(dp0
S'cookies'
p1
(dp2
S'wxloadtime'
p3
S'1571142613'
p4
sS'webwx_data_ticket'
p5
S'gScg1VKlVhH6dkrjMqrHIthV'
p6
sS'wxuin'
p7
S'200509586'
p8
sS'login_frequency'
p9
S'2'
p10
sS'MM_WX_NOTIFY_STATE'
p11
S'1'
p12
sS'MM_WX_SOUND_STATE'
p13
g12
sS'webwx_auth_ticket'
p14
S'CIsBELqQ35kNGoABwL9kmYUpUAdT8Zam6bXjzxyUKB2qlYLxh1QhYG5FOLIfUH8drPRbAawR9U9YXvLb+sDWBpBVc3D/Ul7S6qGWKPX5pLFWseKQczhqcb3NH1fPvDWC6EF9UupMtL40hGGEuj6HgHd/KF4kIrYCV2x6HrgXYJ1IAwQ+jPWIrn7GY7g='
p15
sS'last_wxuin'
p16
S'200509586'
p17
sS'webwxuvid'
p18
S'ef16bd48961c4320b665ac296596e4e62612cd35a3b55d1decfecc71b76ece76abf4a7bdfb71b03a30e1dd2ec32ea226'
p19
sS'wxpluginkey'
p20
S'1571037946_expired'
p21
sS'wxsid'
p22
S'XrgUGJdqWPkdv4dk'
p23
sS'mm_lang'
p24
S'zh_CN'
p25
ssS'version'
p26
S'1.3.10'
p27
sS'storage'
p28
(dp29
S'userName'
p30
V@685861049554c541a1679fcbc9f71e1e0d69a65f3f7af24c6fa8ce3098f9b995
p31
sS'lastInputUserName'
p32
NsS'memberList'
p33
ccopy_reg
_reconstructor
p34
(citchat.storage.templates
ContactList
p35
c__builtin__
list
p36
(lp37
g34
(citchat.storage.templates
User
p38
c__builtin__
dict
p39
(dp40
S'UserName'
p41
g31
sS'City'
p42
S''
p43
sS'DisplayName'
p44
g43
sS'UniFriend'
p45
I0
sS'OwnerUin'
p46
I0
sS'MemberList'
p47
g34
(g35
g36
(lp48
tp49
Rp50
I1
bsS'PYQuanPin'
p51
V
p52
sS'RemarkPYInitial'
p53
g52
sS'Uin'
p54
I200509586
sS'AppAccountFlag'
p55
I0
sS'VerifyFlag'
p56
I0
sS'Province'
p57
g43
sS'KeyWord'
p58
g43
sS'RemarkName'
p59
g52
sS'PYInitial'
p60
g52
sS'ChatRoomId'
p61
I0
sS'HideInputBarFlag'
p62
I0
sVHeadImgFlag
p63
I1
sS'EncryChatRoomId'
p64
g43
sS'AttrStatus'
p65
I0
sS'SnsFlag'
p66
I0
sS'MemberCount'
p67
I0
sVWebWxPluginSwitch
p68
I0
sS'Alias'
p69
g43
sS'Signature'
p70
g52
sS'ContactFlag'
p71
I0
sS'NickName'
p72
V\u673a\u5668\u4eba\u5c0f\u80d6
p73
sS'RemarkPYQuanPin'
p74
g52
sS'HeadImgUrl'
p75
V/cgi-bin/mmwebwx-bin/webwxgeticon?seq=927646454&username=@685861049554c541a1679fcbc9f71e1e0d69a65f3f7af24c6fa8ce3098f9b995&skey=@crypt_49509d7f_e95c32e63f4b431bac2e799bfd162a56
p76
sS'Sex'
p77
I1
sS'StarFriend'
p78
I0
sS'Statues'
p79
I0
stp80
Rp81
I1
bag34
(g38
g39
(dp82
VUserName
p83
V@c3cb152fd5cf57cc4d6ce6d8b8c9047441f3dff65755dc567dc3abba1994219b
p84
sVCity
p85
g52
sVSnsFlag
p86
I1
sVDisplayName
p87
g52
sVUniFriend
p88
I0
sVMemberCount
p89
I0
sVOwnerUin
p90
I0
sVMemberList
p91
g50
sVAlias
p92
g52
sVPYQuanPin
p93
Vchuanguoliushui
p94
sVSignature
p95
V\u53ea\u4e3a\u4e00\u4eba\u7559
p96
sVRemarkPYInitial
p97
g52
sVContactFlag
p98
I1
sVUin
p99
I0
sVNickName
p100
V\u7a7f\u8fc7\u6d41\u6c34
p101
sVAppAccountFlag
p102
I0
sVVerifyFlag
p103
I0
sVRemarkPYQuanPin
p104
g52
sVHeadImgUrl
p105
V/cgi-bin/mmwebwx-bin/webwxgeticon?seq=673714836&username=@c3cb152fd5cf57cc4d6ce6d8b8c9047441f3dff65755dc567dc3abba1994219b&skey=@crypt_49509d7f_e95c32e63f4b431bac2e799bfd162a56
p106
sVKeyWord
p107
g52
sVProvince
p108
VKowloon City
p109
sVPYInitial
p110
VCGLS
p111
sVRemarkName
p112
g52
sVIsOwner
p113
I0
sVSex
p114
I1
sVStarFriend
p115
I0
sVHideInputBarFlag
p116
I0
sVChatRoomId
p117
I0
sVEncryChatRoomId
p118
g52
sVAttrStatus
p119
I33690405
sVStatues
p120
I0
stp121
Rp122
I1
bag34
(g38
g39
(dp123
VUserName
p124
V@16aa968cda3ac09be96b40e14aa40fdb5edee352266f2dc880cf9cba500a59a7
p125
sVCity
p126
g52
sVSnsFlag
p127
I1
sVDisplayName
p128
g52
sVUniFriend
p129
I0
sVMemberCount
p130
I0
sVOwnerUin
p131
I0
sVMemberList
p132
g50
sVAlias
p133
g52
sVPYQuanPin
p134
VAkuaidiyouhuiquanbudingjigengxin
p135
sVSignature
p136
V\u963f\u8fea\u8fbe\u65af\u7ae5\u88c5  \u65ad\u7801\u7279\u4ef7
p137
sVRemarkPYInitial
p138
g52
sVContactFlag
p139
I3
sVUin
p140
I0
sVNickName
p141
VA\u5feb\u9012\u4f18\u60e0\u5238 \u4e0d\u5b9a\u671f\u66f4\u65b0
p142
sVAppAccountFlag
p143
I0
sVVerifyFlag
p144
I0
sVRemarkPYQuanPin
p145
g52
sVHeadImgUrl
p146
V/cgi-bin/mmwebwx-bin/webwxgeticon?seq=673716439&username=@16aa968cda3ac09be96b40e14aa40fdb5edee352266f2dc880cf9cba500a59a7&skey=@crypt_49509d7f_e95c32e63f4b431bac2e799bfd162a56
p147
sVKeyWord
p148
g52
sVProvince
p149
g52
sVPYInitial
p150
VAKDYHQBDJGX
p151
sVRemarkName
p152
g52
sVIsOwner
p153
I0
sVSex
p154
I1
sVStarFriend
p155
I0
sVHideInputBarFlag
p156
I0
sVChatRoomId
p157
I0
sVEncryChatRoomId
p158
g52
sVAttrStatus
p159
I135201
sVStatues
p160
I0
stp161
Rp162
I1
bag34
(g38
g39
(dp163
VUserName
p164
V@a9b538fe8fa55fa4f441929d6db42327c2f9e8611519448b04d81feb3173c07f
p165
sVCity
p166
g52
sVSnsFlag
p167
I1
sVDisplayName
p168
g52
sVUniFriend
p169
I0
sVMemberCount
p170
I0
sVOwnerUin
p171
I0
sVMemberList
p172
g50
sVAlias
p173
g52
sVPYQuanPin
p174
Vbanjialvyou
p175
sVSignature
p176
g52
sVRemarkPYInitial
p177
g52
sVContactFlag
p178
I3
sVUin
p179
I0
sVNickName
p180
V\u534a\u4ef7\u65c5\u6e38
p181
sVAppAccountFlag
p182
I0
sVVerifyFlag
p183
I0
sVRemarkPYQuanPin
p184
g52
sVHeadImgUrl
p185
V/cgi-bin/mmwebwx-bin/webwxgeticon?seq=673722419&username=@a9b538fe8fa55fa4f441929d6db42327c2f9e8611519448b04d81feb3173c07f&skey=@crypt_49509d7f_e95c32e63f4b431bac2e799bfd162a56
p186
sVKeyWord
p187
g52
sVProvince
p188
g52
sVPYInitial
p189
VBJLY
p190
sVRemarkName
p191
g52
sVIsOwner
p192
I0
sVSex
p193
I0
sVStarFriend
p194
I0
sVHideInputBarFlag
p195
I0
sVChatRoomId
p196
I0
sVEncryChatRoomId
p197
g52
sVAttrStatus
p198
I135269
sVStatues
p199
I0
stp200
Rp201
I1
bag34
(g38
g39
(dp202
VUserName
p203
V@d5718755e509e9d5c3b7d6f54f8a06e3
p204
sVCity
p205
V\u4e1c\u57ce
p206
sVSnsFlag
p207
I17
sVDisplayName
p208
g52
sVUniFriend
p209
I0
sVMemberCount
p210
I0
sVOwnerUin
p211
I0
sVMemberList
p212
g50
sVAlias
p213
g52
sVPYQuanPin
p214
Vpengcheng
p215
sVSignature
p216
V\u672a\u6765\u4e0d\u8fce\uff0c\u5f53\u65f6\u4e0d\u6742\uff0c\u8fc7\u5f80\u4e0d\u604b
p217
sVRemarkPYInitial
p218
g52
sVContactFlag
p219
I3
sVUin
p220
I0
sVNickName
p221
V\u9e4f\u7a0b
p222
sVAppAccountFlag
p223
I0
sVVerifyFlag
p224
I0
sVRemarkPYQuanPin
p225
g52
sVHeadImgUrl
p226
V/cgi-bin/mmwebwx-bin/webwxgeticon?seq=669180196&username=@d5718755e509e9d5c3b7d6f54f8a06e3&skey=@crypt_49509d7f_e95c32e63f4b431bac2e799bfd162a56
p227
sVKeyWord
p228
Vwar
p229
sVProvince
p230
V\u5317\u4eac
p231
sVPYInitial
p232
VPC
p233
sVRemarkName
p234
g52
sVIsOwner
p235
I0
sVSex
p236
I1
sVStarFriend
p237
I0
sVHideInputBarFlag
p238
I0
sVChatRoomId
p239
I0
sVEncryChatRoomId
p240
g52
sVAttrStatus
p241
I33691111
sVStatues
p242
I0
stp243
Rp244
I1
bag34
(g38
g39
(dp245
VUserName
p246
V@460a1397daed6df472e56223098a1f9fc2a63dba16f7b93e25499a3a2c181c67
p247
sVCity
p248
g52
sVSnsFlag
p249
I1
sVDisplayName
p250
g52
sVUniFriend
p251
I0
sVMemberCount
p252
I0
sVOwnerUin
p253
I0
sVMemberList
p254
g50
sVAlias
p255
g52
sVPYQuanPin
p256
VMolly
p257
sVSignature
p258
V\u5c3d\u4eba\u4e8b\u542c\u5929\u610f\uff01
p259
sVRemarkPYInitial
p260
g52
sVContactFlag
p261
I1
sVUin
p262
I0
sVNickName
p263
VMolly
p264
sVAppAccountFlag
p265
I0
sVVerifyFlag
p266
I0
sVRemarkPYQuanPin
p267
g52
sVHeadImgUrl
p268
V/cgi-bin/mmwebwx-bin/webwxgeticon?seq=673715616&username=@460a1397daed6df472e56223098a1f9fc2a63dba16f7b93e25499a3a2c181c67&skey=@crypt_49509d7f_e95c32e63f4b431bac2e799bfd162a56
p269
sVKeyWord
p270
g52
sVProvince
p271
g52
sVPYInitial
p272
VMOLLY
p273
sVRemarkName
p274
g52
sVIsOwner
p275
I0
sVSex
p276
I2
sVStarFriend
p277
I0
sVHideInputBarFlag
p278
I0
sVChatRoomId
p279
I0
sVEncryChatRoomId
p280
g52
sVAttrStatus
p281
I234083
sVStatues
p282
I0
stp283
Rp284
I1
bag34
(g38
g39
(dp285
VUserName
p286
V@8f2d16abb19b45ebd7edcc293c4de9f9fdfd61458608957cc397573dae94a07b
p287
sVCity
p288
V\u5305\u5934
p289
sVSnsFlag
p290
I1
sVDisplayName
p291
g52
sVUniFriend
p292
I0
sVMemberCount
p293
I0
sVOwnerUin
p294
I0
sVMemberList
p295
g50
sVAlias
p296
g52
sVPYQuanPin
p297
Vxiaoqing
p298
sVSignature
p299
g52
sVRemarkPYInitial
p300
g52
sVContactFlag
p301
I1
sVUin
p302
I0
sVNickName
p303
V\u5c0f\u9752
p304
sVAppAccountFlag
p305
I0
sVVerifyFlag
p306
I0
sVRemarkPYQuanPin
p307
g52
sVHeadImgUrl
p308
V/cgi-bin/mmwebwx-bin/webwxgeticon?seq=673718930&username=@8f2d16abb19b45ebd7edcc293c4de9f9fdfd61458608957cc397573dae94a07b&skey=@crypt_49509d7f_e95c32e63f4b431bac2e799bfd162a56
p309
sVKeyWord
p310
g52
sVProvince
p311
V\u5185\u8499\u53e4
p312
sVPYInitial
p313
VXQ
p314
sVRemarkName
p315
g52
sVIsOwner
p316
I0
sVSex
p317
I1
sVStarFriend
p318
I0
sVHideInputBarFlag
p319
I0
sVChatRoomId
p320
I0
sVEncryChatRoomId
p321
g52
sVAttrStatus
p322
I234109
sVStatues
p323
I0
stp324
Rp325
I1
bag34
(g38
g39
(dp326
VUserName
p327
V@ca62b02250f3bba3be6885dd30940e55c20e78aa76201cda2c4572415f6ef221
p328
sVCity
p329
V\u90af\u90f8
p330
sVSnsFlag
p331
I1
sVDisplayName
p332
g52
sVUniFriend
p333
I0
sVMemberCount
p334
I0
sVOwnerUin
p335
I0
sVMemberList
p336
g50
sVAlias
p337
g52
sVPYQuanPin
p338
Vningbeisenwu
p339
sVSignature
p340
V\u5b87\u5b87\u4e0d\u6536\u4e8c\u624b\u5783\u573e\u3002
p341
sVRemarkPYInitial
p342
g52
sVContactFlag
p343
I1
sVUin
p344
I0
sVNickName
p345
V\u67e0\u5317\u68ee\u5c4b\u3002
p346
sVAppAccountFlag
p347
I0
sVVerifyFlag
p348
I0
sVRemarkPYQuanPin
p349
g52
sVHeadImgUrl
p350
V/cgi-bin/mmwebwx-bin/webwxgeticon?seq=673721821&username=@ca62b02250f3bba3be6885dd30940e55c20e78aa76201cda2c4572415f6ef221&skey=@crypt_49509d7f_e95c32e63f4b431bac2e799bfd162a56
p351
sVKeyWord
p352
g52
sVProvince
p353
V\u6cb3\u5317
p354
sVPYInitial
p355
VNBSW
p356
sVRemarkName
p357
g52
sVIsOwner
p358
I0
sVSex
p359
I2
sVStarFriend
p360
I0
sVHideInputBarFlag
p361
I0
sVChatRoomId
p362
I0
sVEncryChatRoomId
p363
g52
sVAttrStatus
p364
I102945
sVStatues
p365
I0
stp366
Rp367
I1
bag34
(g38
g39
(dp368
VUserName
p369
V@9164a709d6d4958ce1a0b2a517f54f5c
p370
sVCity
p371
V\u65e0\u9521
p372
sVSnsFlag
p373
I177
sVDisplayName
p374
g52
sVUniFriend
p375
I0
sVMemberCount
p376
I0
sVOwnerUin
p377
I0
sVMemberList
p378
g50
sVAlias
p379
g52
sVPYQuanPin
p380
VjietouebaZip
p381
sVSignature
p382
VStreet Bully &amp; \u72d7\u4e0d\u61c2\u521b\u59cb\u4eba
p383
sVRemarkPYInitial
p384
g52
sVContactFlag
p385
I1
sVUin
p386
I0
sVNickName
p387
V\u8857\u982d\u60e1\u9738\u3010Zip\u3011
p388
sVAppAccountFlag
p389
I0
sVVerifyFlag
p390
I0
sVRemarkPYQuanPin
p391
g52
sVHeadImgUrl
p392
V/cgi-bin/mmwebwx-bin/webwxgeticon?seq=673713460&username=@9164a709d6d4958ce1a0b2a517f54f5c&skey=@crypt_49509d7f_e95c32e63f4b431bac2e799bfd162a56
p393
sVKeyWord
p394
Vtr8
p395
sVProvince
p396
V\u6c5f\u82cf
p397
sVPYInitial
p398
VJTEBZIP
p399
sVRemarkName
p400
g52
sVIsOwner
p401
I0
sVSex
p402
I1
sVStarFriend
p403
I0
sVHideInputBarFlag
p404
I0
sVChatRoomId
p405
I0
sVEncryChatRoomId
p406
g52
sVAttrStatus
p407
I2147564455
sVStatues
p408
I0
stp409
Rp410
I1
bag34
(g38
g39
(dp411
VUserName
p412
V@a01aadc442c26786ae94d41c396341fe45cd36afd992f1c75c328bad01876ee9
p413
sVCity
p414
V\u5e7f\u5dde
p415
sVSnsFlag
p416
I1
sVDisplayName
p417
g52
sVUniFriend
p418
I0
sVMemberCount
p419
I0
sVOwnerUin
p420
I0
sVMemberList
p421
g50
sVAlias
p422
g52
sVPYQuanPin
p423
VAzhengshubanlizhaodaili
p424
sVSignature
p425
V\u8d28\u91cf\u4e0e\u8bda\u4fe1\u5e76\u5b58\uff01\u62db\u4ee3\u7406\uff01
p426
sVRemarkPYInitial
p427
g52
sVContactFlag
p428
I3
sVUin
p429
I0
sVNickName
p430
VA\u8bc1\u4e66\u529e\u7406(\u62db\u4ee3\u7406)
p431
sVAppAccountFlag
p432
I0
sVVerifyFlag
p433
I0
sVRemarkPYQuanPin
p434
g52
sVHeadImgUrl
p435
V/cgi-bin/mmwebwx-bin/webwxgeticon?seq=673725399&username=@a01aadc442c26786ae94d41c396341fe45cd36afd992f1c75c328bad01876ee9&skey=@crypt_49509d7f_e95c32e63f4b431bac2e799bfd162a56
p436
sVKeyWord
p437
g52
sVProvince
p438
V\u5e7f\u4e1c
p439
sVPYInitial
p440
VAZSBLZDL
p441
sVRemarkName
p442
g52
sVIsOwner
p443
I0
sVSex
p444
I1
sVStarFriend
p445
I0
sVHideInputBarFlag
p446
I0
sVChatRoomId
p447
I0
sVEncryChatRoomId
p448
g52
sVAttrStatus
p449
I5053
sVStatues
p450
I0
stp451
Rp452
I1
bag34
(g38
g39
(dp453
VUserName
p454
V@c706cc9bb8f30b41ed58a13dbc6f08510f0b6c8158a87e0eeaa5e6daff1263b1
p455
sVCity
p456
g52
sVSnsFlag
p457
I1
sVDisplayName
p458
g52
sVUniFriend
p459
I0
sVMemberCount
p460
I0
sVOwnerUin
p461
I0
sVMemberList
p462
g50
sVAlias
p463
g52
sVPYQuanPin
p464
Vruhigruhig
p465
sVSignature
p466
g52
sVRemarkPYInitial
p467
g52
sVContactFlag
p468
I3
sVUin
p469
I0
sVNickName
p470
Vruhigruhig
p471
sVAppAccountFlag
p472
I0
sVVerifyFlag
p473
I0
sVRemarkPYQuanPin
p474
g52
sVHeadImgUrl
p475
V/cgi-bin/mmwebwx-bin/webwxgeticon?seq=673722781&username=@c706cc9bb8f30b41ed58a13dbc6f08510f0b6c8158a87e0eeaa5e6daff1263b1&skey=@crypt_49509d7f_e95c32e63f4b431bac2e799bfd162a56
p476
sVKeyWord
p477
g52
sVProvince
p478
g52
sVPYInitial
p479
VRUHIGRUHIG
p480
sVRemarkName
p481
g52
sVIsOwner
p482
I0
sVSex
p483
I0
sVStarFriend
p484
I0
sVHideInputBarFlag
p485
I0
sVChatRoomId
p486
I0
sVEncryChatRoomId
p487
g52
sVAttrStatus
p488
I234277
sVStatues
p489
I0
stp490
Rp491
I1
bag34
(g38
g39
(dp492
VUserName
p493
V@593b4f34f2e39741035b663cd6a143ec81549cb1c7c3ab8c832f850046691c5c
p494
sVCity
p495
V\u671d\u9633
p496
sVSnsFlag
p497
I1
sVDisplayName
p498
g52
sVUniFriend
p499
I0
sVMemberCount
p500
I0
sVOwnerUin
p501
I0
sVMemberList
p502
g50
sVAlias
p503
g52
sVPYQuanPin
p504
Vzhishixuexi
p505
sVSignature
p506
V\u5907\u6ce8\u6765\u610f+\u54ea\u91cc\u770b\u5230\u5fae\u4fe1\u53f7\uff0c\u4e0d\u5907\u6ce8\u4e0d\u901a\u8fc7
p507
sVRemarkPYInitial
p508
g52
sVContactFlag
p509
I3
sVUin
p510
I0
sVNickName
p511
V\u77e5\u8bc6\u5b66\u4e60
p512
sVAppAccountFlag
p513
I0
sVVerifyFlag
p514
I0
sVRemarkPYQuanPin
p515
g52
sVHeadImgUrl
p516
V/cgi-bin/mmwebwx-bin/webwxgeticon?seq=673723018&username=@593b4f34f2e39741035b663cd6a143ec81549cb1c7c3ab8c832f850046691c5c&skey=@crypt_49509d7f_e95c32e63f4b431bac2e799bfd162a56
p517
sVKeyWord
p518
g52
sVProvince
p519
V\u5317\u4eac
p520
sVPYInitial
p521
VZSXX
p522
sVRemarkName
p523
g52
sVIsOwner
p524
I0
sVSex
p525
I2
sVStarFriend
p526
I0
sVHideInputBarFlag
p527
I0
sVChatRoomId
p528
I0
sVEncryChatRoomId
p529
g52
sVAttrStatus
p530
I4645
sVStatues
p531
I0
stp532
Rp533
I1
bag34
(g38
g39
(dp534
VUserName
p535
V@50237f4bb850644fb306f047e905da67
p536
sVCity
p537
g52
sVSnsFlag
p538
I17
sVDisplayName
p539
g52
sVUniFriend
p540
I0
sVMemberCount
p541
I0
sVOwnerUin
p542
I0
sVMemberList
p543
g50
sVAlias
p544
g52
sVPYQuanPin
p545
VCXY
p546
sVSignature
p547
V\u7b49\u98ce\u4e5f\u7b49\u4f60\u3002
p548
sVRemarkPYInitial
p549
VXYKTX
p550
sVContactFlag
p551
I1
sVUin
p552
I0
sVNickName
p553
V-C_XY-
p554
sVAppAccountFlag
p555
I0
sVVerifyFlag
p556
I0
sVRemarkPYQuanPin
p557
Vxinyongkataoxian
p558
sVHeadImgUrl
p559
V/cgi-bin/mmwebwx-bin/webwxgeticon?seq=673710066&username=@50237f4bb850644fb306f047e905da67&skey=@crypt_49509d7f_e95c32e63f4b431bac2e799bfd162a56
p560
sVKeyWord
p561
Vwux
p562
sVProvince
p563
g52
sVPYInitial
p564
VCXY
p565
sVRemarkName
p566
V\u4fe1\u7528\u5361\u5957\u73b0
p567
sVIsOwner
p568
I0
sVSex
p569
I2
sVStarFriend
p570
I0
sVHideInputBarFlag
p571
I0
sVChatRoomId
p572
I0
sVEncryChatRoomId
p573
g52
sVAttrStatus
p574
I111719
sVStatues
p575
I0
stp576
Rp577
I1
bag34
(g38
g39
(dp578
VUserName
p579
V@e609879cba86ec9128dabff6a03d7a7a60583401c030ce5e06ff21ddf6bbb2d0
p580
sVCity
p581
g52
sVSnsFlag
p582
I1
sVDisplayName
p583
g52
sVUniFriend
p584
I0
sVMemberCount
p585
I0
sVOwnerUin
p586
I0
sVMemberList
p587
g50
sVAlias
p588
g52
sVPYQuanPin
p589
Vspanclassemojiemoji1f451spanHoiYispanclassemojiemoji1f451span
p590
sVSignature
p591
V\u4eba\u751f\u5efa\u8bae\uff1aKeep it real<span class="emoji emoji2764"></span>\ufe0f\u2003\u2003\u2003\u2003\u2003\u2003\u2003\u2003 \u2003\u05b4\u05b4\u000a\u05b4
p592
sVRemarkPYInitial
p593
g52
sVContactFlag
p594
I1
sVUin
p595
I0
sVNickName
p596
V\U0001f451HoiYi\U0001f451
p597
sVAppAccountFlag
p598
I0
sVVerifyFlag
p599
I0
sVRemarkPYQuanPin
p600
g52
sVHeadImgUrl
p601
V/cgi-bin/mmwebwx-bin/webwxgeticon?seq=673722685&username=@e609879cba86ec9128dabff6a03d7a7a60583401c030ce5e06ff21ddf6bbb2d0&skey=@crypt_49509d7f_e95c32e63f4b431bac2e799bfd162a56
p602
sVKeyWord
p603
g52
sVProvince
p604
g52
sVPYInitial
p605
VSPANCLASSEMOJIEMOJI1F451SPANHOIYISPANCLASSEMOJIEMOJI1F451SPAN
p606
sVRemarkName
p607
g52
sVIsOwner
p608
I0
sVSex
p609
I0
sVStarFriend
p610
I0
sVHideInputBarFlag
p611
I0
sVChatRoomId
p612
I0
sVEncryChatRoomId
p613
g52
sVAttrStatus
p614
I105253
sVStatues
p615
I0
stp616
Rp617
I1
bag34
(g38
g39
(dp618
VUserName
p619
V@9573373f3388a534e86c0f0abc8d27c3db4b9e66b77b53844d3516faad40c7f7
p620
sVCity
p621
g52
sVSnsFlag
p622
I1
sVDisplayName
p623
g52
sVUniFriend
p624
I0
sVMemberCount
p625
I0
sVOwnerUin
p626
I0
sVMemberList
p627
g50
sVAlias
p628
g52
sVPYQuanPin
p629
VSimpler?
p630
sVSignature
p631
VHierarchy
p632
sVRemarkPYInitial
p633
g52
sVContactFlag
p634
I1
sVUin
p635
I0
sVNickName
p636
VSimpler\U0001f408
p637
sVAppAccountFlag
p638
I0
sVVerifyFlag
p639
I0
sVRemarkPYQuanPin
p640
g52
sVHeadImgUrl
p641
V/cgi-bin/mmwebwx-bin/webwxgeticon?seq=673719582&username=@9573373f3388a534e86c0f0abc8d27c3db4b9e66b77b53844d3516faad40c7f7&skey=@crypt_49509d7f_e95c32e63f4b431bac2e799bfd162a56
p642
sVKeyWord
p643
g52
sVProvince
p644
g52
sVPYInitial
p645
VSIMPLER?
p646
sVRemarkName
p647
g52
sVIsOwner
p648
I0
sVSex
p649
I2
sVStarFriend
p650
I0
sVHideInputBarFlag
p651
I0
sVChatRoomId
p652
I0
sVEncryChatRoomId
p653
g52
sVAttrStatus
p654
I234277
sVStatues
p655
I0
stp656
Rp657
I1
bag34
(g38
g39
(dp658
VUserName
p659
V@c4da1ad64e5458b276758fe5e147e2c70c8a039b0c771788e9f1efd70eea0b45
p660
sVCity
p661
g52
sVSnsFlag
p662
I1
sVDisplayName
p663
g52
sVUniFriend
p664
I0
sVMemberCount
p665
I0
sVOwnerUin
p666
I0
sVMemberList
p667
g50
sVAlias
p668
g52
sVPYQuanPin
p669
Vqinghuida2019
p670
sVSignature
p671
V\u8bda\u5fc3\u6b63\u610f\uff0c\u505a\u5fc3\u5e95\u8ba4\u4e3a\u6b63\u786e\u7684\u4e8b
p672
sVRemarkPYInitial
p673
VCLAIRTINDER
p674
sVContactFlag
p675
I1
sVUin
p676
I0
sVNickName
p677
V\u8bf7\u56de\u7b542019
p678
sVAppAccountFlag
p679
I0
sVVerifyFlag
p680
I0
sVRemarkPYQuanPin
p681
VClairTinder
p682
sVHeadImgUrl
p683
V/cgi-bin/mmwebwx-bin/webwxgeticon?seq=673719286&username=@c4da1ad64e5458b276758fe5e147e2c70c8a039b0c771788e9f1efd70eea0b45&skey=@crypt_49509d7f_e95c32e63f4b431bac2e799bfd162a56
p684
sVKeyWord
p685
g52
sVProvince
p686
g52
sVPYInitial
p687
VQHD2019
p688
sVRemarkName
p689
VClair Tinder
p690
sVIsOwner
p691
I0
sVSex
p692
I0
sVStarFriend
p693
I0
sVHideInputBarFlag
p694
I0
sVChatRoomId
p695
I0
sVEncryChatRoomId
p696
g52
sVAttrStatus
p697
I102693
sVStatues
p698
I0
stp699
Rp700
I1
bag34
(g38
g39
(dp701
VUserName
p702
V@440948c86ae4f821a9d574c0dc8c7f8863ce40b34dd5f0d55696f26838c5b258
p703
sVCity
p704
g52
sVSnsFlag
p705
I1
sVDisplayName
p706
g52
sVUniFriend
p707
I0
sVMemberCount
p708
I0
sVOwnerUin
p709
I0
sVMemberList
p710
g50
sVAlias
p711
g52
sVPYQuanPin
p712
VBellashanspanclassemojiemoji1f48bspan
p713
sVSignature
p714
VYou're the world to me, and dreaming on\U0001f942
p715
sVRemarkPYInitial
p716
g52
sVContactFlag
p717
I1
sVUin
p718
I0
sVNickName
p719
VBella\u73ca\U0001f48b
p720
sVAppAccountFlag
p721
I0
sVVerifyFlag
p722
I0
sVRemarkPYQuanPin
p723
g52
sVHeadImgUrl
p724
V/cgi-bin/mmwebwx-bin/webwxgeticon?seq=673727141&username=@440948c86ae4f821a9d574c0dc8c7f8863ce40b34dd5f0d55696f26838c5b258&skey=@crypt_49509d7f_e95c32e63f4b431bac2e799bfd162a56
p725
sVKeyWord
p726
g52
sVProvince
p727
VTuen Mun
p728
sVPYInitial
p729
VBELLASSPANCLASSEMOJIEMOJI1F48BSPAN
p730
sVRemarkName
p731
g52
sVIsOwner
p732
I0
sVSex
p733
I2
sVStarFriend
p734
I0
sVHideInputBarFlag
p735
I0
sVChatRoomId
p736
I0
sVEncryChatRoomId
p737
g52
sVAttrStatus
p738
I234277
sVStatues
p739
I0
stp740
Rp741
I1
bag34
(g38
g39
(dp742
VUserName
p743
V@05b6a8fff5b6c603b38a1cfb2671278efc419d7eaccf203c0415369d94a53f79
p744
sVCity
p745
VMelaka
p746
sVSnsFlag
p747
I1
sVDisplayName
p748
g52
sVUniFriend
p749
I0
sVMemberCount
p750
I0
sVOwnerUin
p751
I0
sVMemberList
p752
g50
sVAlias
p753
g52
sVPYQuanPin
p754
VAbbyspanclassemojiemoji1f495spanLee
p755
sVSignature
p756
V\u5982\u82e5\u4f60\u80fd\u501f\u6211\u62e5\u62b1\u4e88\u6211\u6e29\u6696\uff0c\u6211\u613f\u8fd8\u4f60\u4e00\u4e16\u966a\u4f34<span class="emoji emoji1f493"></span><span class="emoji emoji1f493"></span>
p757
sVRemarkPYInitial
p758
g52
sVContactFlag
p759
I1
sVUin
p760
I0
sVNickName
p761
VAbby\U0001f495Lee
p762
sVAppAccountFlag
p763
I0
sVVerifyFlag
p764
I0
sVRemarkPYQuanPin
p765
g52
sVHeadImgUrl
p766
V/cgi-bin/mmwebwx-bin/webwxgeticon?seq=673727218&username=@05b6a8fff5b6c603b38a1cfb2671278efc419d7eaccf203c0415369d94a53f79&skey=@crypt_49509d7f_e95c32e63f4b431bac2e799bfd162a56
p767
sVKeyWord
p768
g52
sVProvince
p769
VMalacca
p770
sVPYInitial
p771
VABBYSPANCLASSEMOJIEMOJI1F495SPANLEE
p772
sVRemarkName
p773
g52
sVIsOwner
p774
I0
sVSex
p775
I2
sVStarFriend
p776
I0
sVHideInputBarFlag
p777
I0
sVChatRoomId
p778
I0
sVEncryChatRoomId
p779
g52
sVAttrStatus
p780
I33656865
sVStatues
p781
I0
stp782
Rp783
I1
bag34
(g38
g39
(dp784
VUserName
p785
V@de4c335e6de9c3294af6978a7767f98aad93af492800b167d1d2da7189b69bda
p786
sVCity
p787
V\u6b66\u6c49
p788
sVSnsFlag
p789
I1
sVDisplayName
p790
g52
sVUniFriend
p791
I0
sVMemberCount
p792
I0
sVOwnerUin
p793
I0
sVMemberList
p794
g50
sVAlias
p795
g52
sVPYQuanPin
p796
V0
p797
sVSignature
p798
V<span class="emoji emoji2764"></span>\ufe0f
p799
sVRemarkPYInitial
p800
V0JP
p801
sVContactFlag
p802
I3
sVUin
p803
I0
sVNickName
p804
g797
sVAppAccountFlag
p805
I0
sVVerifyFlag
p806
I0
sVRemarkPYQuanPin
p807
V0jipiao
p808
sVHeadImgUrl
p809
V/cgi-bin/mmwebwx-bin/webwxgeticon?seq=673727237&username=@de4c335e6de9c3294af6978a7767f98aad93af492800b167d1d2da7189b69bda&skey=@crypt_49509d7f_e95c32e63f4b431bac2e799bfd162a56
p810
sVKeyWord
p811
g52
sVProvince
p812
V\u6e56\u5317
p813
sVPYInitial
p814
g797
sVRemarkName
p815
V0 \u673a\u7968
p816
sVIsOwner
p817
I0
sVSex
p818
I2
sVStarFriend
p819
I0
sVHideInputBarFlag
p820
I0
sVChatRoomId
p821
I0
sVEncryChatRoomId
p822
g52
sVAttrStatus
p823
I236027
sVStatues
p824
I0
stp825
Rp826
I1
bag34
(g38
g39
(dp827
VUserName
p828
V@fb667333e89db91479773f80190518564ddecc0336aeadcc8fdc30f0a2995dc7
p829
sVCity
p830
V\u6d77\u6dc0
p831
sVSnsFlag
p832
I1
sVDisplayName
p833
g52
sVUniFriend
p834
I0
sVMemberCount
p835
I0
sVOwnerUin
p836
I0
sVMemberList
p837
g50
sVAlias
p838
g52
sVPYQuanPin
p839
Vdiermeng
p840
sVSignature
p841
V\u9189\u5367\u6c99\u573a\u541b\u83ab\u7b11
p842
sVRemarkPYInitial
p843
g52
sVContactFlag
p844
I1
sVUin
p845
I0
sVNickName
p846
V\u7b2c\u4e8c\u68a6
p847
sVAppAccountFlag
p848
I0
sVVerifyFlag
p849
I0
sVRemarkPYQuanPin
p850
g52
sVHeadImgUrl
p851
V/cgi-bin/mmwebwx-bin/webwxgeticon?seq=673725344&username=@fb667333e89db91479773f80190518564ddecc0336aeadcc8fdc30f0a2995dc7&skey=@crypt_49509d7f_e95c32e63f4b431bac2e799bfd162a56
p852
sVKeyWord
p853
g52
sVProvince
p854
V\u5317\u4eac
p855
sVPYInitial
p856
VDEM
p857
sVRemarkName
p858
g52
sVIsOwner
p859
I0
sVSex
p860
I2
sVStarFriend
p861
I0
sVHideInputBarFlag
p862
I0
sVChatRoomId
p863
I0
sVEncryChatRoomId
p864
g52
sVAttrStatus
p865
I236323
sVStatues
p866
I0
stp867
Rp868
I1
bag34
(g38
g39
(dp869
VUserName
p870
V@47b7939c8a6d42aab9f96594ae89630ed7f09aa9193b31cea04cded793603fe0
p871
sVCity
p872
g52
sVSnsFlag
p873
I1
sVDisplayName
p874
g52
sVUniFriend
p875
I0
sVMemberCount
p876
I0
sVOwnerUin
p877
I0
sVMemberList
p878
g50
sVAlias
p879
g52
sVPYQuanPin
p880
VKIKI
p881
sVSignature
p882
g52
sVRemarkPYInitial
p883
g52
sVContactFlag
p884
I1
sVUin
p885
I0
sVNickName
p886
VKIKI
p887
sVAppAccountFlag
p888
I0
sVVerifyFlag
p889
I0
sVRemarkPYQuanPin
p890
g52
sVHeadImgUrl
p891
V/cgi-bin/mmwebwx-bin/webwxgeticon?seq=673727264&username=@47b7939c8a6d42aab9f96594ae89630ed7f09aa9193b31cea04cded793603fe0&skey=@crypt_49509d7f_e95c32e63f4b431bac2e799bfd162a56
p892
sVKeyWord
p893
g52
sVProvince
p894
g52
sVPYInitial
p895
VKIKI
p896
sVRemarkName
p897
g52
sVIsOwner
p898
I0
sVSex
p899
I2
sVStarFriend
p900
I0
sVHideInputBarFlag
p901
I0
sVChatRoomId
p902
I0
sVEncryChatRoomId
p903
g52
sVAttrStatus
p904
I104485
sVStatues
p905
I0
stp906
Rp907
I1
bag34
(g38
g39
(dp908
VUserName
p909
V@5e19e0426f6d4158fb6e218b2d3516b2d2c63be5ca16c6f0c0fa09f6f54c7629
p910
sVCity
p911
V\u90af\u90f8
p912
sVSnsFlag
p913
I1
sVDisplayName
p914
g52
sVUniFriend
p915
I0
sVMemberCount
p916
I0
sVOwnerUin
p917
I0
sVMemberList
p918
g50
sVAlias
p919
g52
sVPYQuanPin
p920
Vniming
p921
sVSignature
p922
V<span class="emoji emoji1f63a"></span> <span class="emoji emoji1f63a"></span> <span class="emoji emoji1f63a"></span> <span class="emoji emoji1f63a"></span> <span class="emoji emoji1f63a"></span>
p923
sVRemarkPYInitial
p924
g52
sVContactFlag
p925
I1
sVUin
p926
I0
sVNickName
p927
V\u533f\u540d
p928
sVAppAccountFlag
p929
I0
sVVerifyFlag
p930
I0
sVRemarkPYQuanPin
p931
g52
sVHeadImgUrl
p932
V/cgi-bin/mmwebwx-bin/webwxgeticon?seq=673727308&username=@5e19e0426f6d4158fb6e218b2d3516b2d2c63be5ca16c6f0c0fa09f6f54c7629&skey=@crypt_49509d7f_e95c32e63f4b431bac2e799bfd162a56
p933
sVKeyWord
p934
g52
sVProvince
p935
V\u6cb3\u5317
p936
sVPYInitial
p937
VNM
p938
sVRemarkName
p939
g52
sVIsOwner
p940
I0
sVSex
p941
I1
sVStarFriend
p942
I0
sVHideInputBarFlag
p943
I0
sVChatRoomId
p944
I0
sVEncryChatRoomId
p945
g52
sVAttrStatus
p946
I33657021
sVStatues
p947
I0
stp948
Rp949
I1
batp950
Rp951
I1
bsS'chatroomList'
p952
g34
(g35
g36
(lp953
g34
(citchat.storage.templates
Chatroom
p954
g39
(dp955
VUserName
p956
V@@cff1f8f69ef9f0bb1193604403ffdb5ef0e4bbaaedcff033250701eeffa18a5d
p957
sVCity
p958
g52
sVDisplayName
p959
g52
sVUniFriend
p960
I0
sS'Self'
p961
g34
(g38
g39
(dp962
g41
g31
sg42
g43
sg44
g43
sg45
I0
sg46
I0
sg47
g34
(g35
g36
(lp963
tp964
Rp965
I1
bsg51
g52
sg53
g52
sg54
I200509586
sg55
I0
sg56
I0
sg57
g43
sg58
g43
sg59
g52
sg60
g52
sg61
I0
sg62
I0
sg63
I1
sg64
g43
sg65
I0
sg66
I0
sg67
I0
sg68
I0
sg69
g43
sg70
g52
sg71
I0
sg72
g73
sg74
g52
sg75
g76
sg77
I1
sg78
I0
sg79
I0
stp966
Rp967
I1
bsVMemberList
p968
g34
(g35
g36
(lp969
tp970
Rp971
I1
bsVPYQuanPin
p972
g52
sVRemarkPYInitial
p973
g52
sVSex
p974
I0
sVAppAccountFlag
p975
I0
sVVerifyFlag
p976
I0
sVProvince
p977
g52
sVKeyWord
p978
g52
sVRemarkName
p979
g52
sVPYInitial
p980
g52
sVIsOwner
p981
I0
sVChatRoomId
p982
I0
sVHideInputBarFlag
p983
I0
sVEncryChatRoomId
p984
g52
sVAttrStatus
p985
I0
sVSnsFlag
p986
I0
sVMemberCount
p987
I499
sVOwnerUin
p988
I0
sVAlias
p989
g52
sS'IsAdmin'
p990
NsVSignature
p991
g52
sVContactFlag
p992
I2
sVNickName
p993
VRedis\u6280\u672f\u4ea4\u6d41\u7fa4
p994
sVRemarkPYQuanPin
p995
g52
sVHeadImgUrl
p996
V/cgi-bin/mmwebwx-bin/webwxgetheadimg?seq=673727552&username=@@cff1f8f69ef9f0bb1193604403ffdb5ef0e4bbaaedcff033250701eeffa18a5d&skey=@crypt_49509d7f_e95c32e63f4b431bac2e799bfd162a56
p997
sVUin
p998
I0
sVStarFriend
p999
I0
sVStatues
p1000
I1
stp1001
Rp1002
I1
bag34
(g954
g39
(dp1003
VUserName
p1004
V@@92c6d59145a8b48a2176431879eda29a259b5b7182f6c5d352d99fecf3877cfc
p1005
sVCity
p1006
g52
sVDisplayName
p1007
g52
sVUniFriend
p1008
I0
sg961
g34
(g38
g39
(dp1009
g41
g31
sg42
g43
sg44
g43
sg45
I0
sg46
I0
sg47
g34
(g35
g36
(lp1010
tp1011
Rp1012
I1
bsg51
g52
sg53
g52
sg54
I200509586
sg55
I0
sg56
I0
sg57
g43
sg58
g43
sg59
g52
sg60
g52
sg61
I0
sg62
I0
sg63
I1
sg64
g43
sg65
I0
sg66
I0
sg67
I0
sg68
I0
sg69
g43
sg70
g52
sg71
I0
sg72
g73
sg74
g52
sg75
g76
sg77
I1
sg78
I0
sg79
I0
stp1013
Rp1014
I1
bsVMemberList
p1015
g34
(g35
g36
(lp1016
tp1017
Rp1018
I1
bsVPYQuanPin
p1019
g52
sVRemarkPYInitial
p1020
g52
sVSex
p1021
I0
sVAppAccountFlag
p1022
I0
sVVerifyFlag
p1023
I0
sVProvince
p1024
g52
sVKeyWord
p1025
g52
sVRemarkName
p1026
g52
sVPYInitial
p1027
g52
sVIsOwner
p1028
I0
sVChatRoomId
p1029
I0
sVHideInputBarFlag
p1030
I0
sVEncryChatRoomId
p1031
g52
sVAttrStatus
p1032
I0
sVSnsFlag
p1033
I0
sVMemberCount
p1034
I500
sVOwnerUin
p1035
I0
sVAlias
p1036
g52
sg990
NsVSignature
p1037
g52
sVContactFlag
p1038
I0
sVNickName
p1039
VRedis\u6280\u672f\u4ea4\u6d41\u7fa42
p1040
sVRemarkPYQuanPin
p1041
g52
sVHeadImgUrl
p1042
V/cgi-bin/mmwebwx-bin/webwxgetheadimg?seq=0&username=@@92c6d59145a8b48a2176431879eda29a259b5b7182f6c5d352d99fecf3877cfc&skey=@crypt_49509d7f_e95c32e63f4b431bac2e799bfd162a56
p1043
sVUin
p1044
I0
sVStarFriend
p1045
I0
sVStatues
p1046
I1
stp1047
Rp1048
I1
bag34
(g954
g39
(dp1049
VUserName
p1050
V@@11f3d4f393e39c1102ada5e13f94693a1cc97d03adb0c901874c1defe5b3a872
p1051
sVCity
p1052
g52
sVDisplayName
p1053
g52
sVUniFriend
p1054
I0
sg961
g34
(g38
g39
(dp1055
g41
g31
sg42
g43
sg44
g43
sg45
I0
sg46
I0
sg47
g34
(g35
g36
(lp1056
tp1057
Rp1058
I1
bsg51
g52
sg53
g52
sg54
I200509586
sg55
I0
sg56
I0
sg57
g43
sg58
g43
sg59
g52
sg60
g52
sg61
I0
sg62
I0
sg63
I1
sg64
g43
sg65
I0
sg66
I0
sg67
I0
sg68
I0
sg69
g43
sg70
g52
sg71
I0
sg72
g73
sg74
g52
sg75
g76
sg77
I1
sg78
I0
sg79
I0
stp1059
Rp1060
I1
bsVMemberList
p1061
g34
(g35
g36
(lp1062
tp1063
Rp1064
I1
bsVPYQuanPin
p1065
g52
sVRemarkPYInitial
p1066
g52
sVSex
p1067
I0
sVAppAccountFlag
p1068
I0
sVVerifyFlag
p1069
I0
sVProvince
p1070
g52
sVKeyWord
p1071
g52
sVRemarkName
p1072
g52
sVPYInitial
p1073
g52
sVIsOwner
p1074
I0
sVChatRoomId
p1075
I0
sVHideInputBarFlag
p1076
I0
sVEncryChatRoomId
p1077
g52
sVAttrStatus
p1078
I0
sVSnsFlag
p1079
I0
sVMemberCount
p1080
I10
sVOwnerUin
p1081
I0
sVAlias
p1082
g52
sg990
NsVSignature
p1083
g52
sVContactFlag
p1084
I0
sVNickName
p1085
VRedis\u6280\u672f\u4ea4\u6d41\u7fa43
p1086
sVRemarkPYQuanPin
p1087
g52
sVHeadImgUrl
p1088
V/cgi-bin/mmwebwx-bin/webwxgetheadimg?seq=0&username=@@11f3d4f393e39c1102ada5e13f94693a1cc97d03adb0c901874c1defe5b3a872&skey=@crypt_49509d7f_e95c32e63f4b431bac2e799bfd162a56
p1089
sVUin
p1090
I0
sVStarFriend
p1091
I0
sVStatues
p1092
I1
stp1093
Rp1094
I1
batp1095
Rp1096
I1
bsS'nickName'
p1097
g73
sS'mpList'
p1098
g34
(g35
g36
(lp1099
g34
(citchat.storage.templates
MassivePlatform
p1100
g39
(dp1101
VUserName
p1102
V@22703b2922bbe317a3357e2c1c635660
p1103
sVCity
p1104
V\u5e7f\u5dde
p1105
sVSnsFlag
p1106
I0
sVDisplayName
p1107
g52
sVUniFriend
p1108
I0
sVMemberCount
p1109
I0
sVOwnerUin
p1110
I0
sVMemberList
p1111
g50
sVAlias
p1112
g52
sVPYQuanPin
p1113
Vguanaiguijuanbot
p1114
sVSignature
p1115
V\u8fd9\u91cc\u6709\u4f60\u7684\u524d\u4efb\u3002
p1116
sVRemarkPYInitial
p1117
g52
sVContactFlag
p1118
I3
sVUin
p1119
I0
sVNickName
p1120
V\u5173\u7231\u8d35\u5708bot
p1121
sVAppAccountFlag
p1122
I0
sVVerifyFlag
p1123
I8
sVRemarkPYQuanPin
p1124
g52
sVHeadImgUrl
p1125
V/cgi-bin/mmwebwx-bin/webwxgeticon?seq=673727200&username=@22703b2922bbe317a3357e2c1c635660&skey=@crypt_49509d7f_e95c32e63f4b431bac2e799bfd162a56
p1126
sVKeyWord
p1127
Vgh_
p1128
sVProvince
p1129
V\u5e7f\u4e1c
p1130
sVPYInitial
p1131
VGAGJBOT
p1132
sVRemarkName
p1133
g52
sVIsOwner
p1134
I0
sVSex
p1135
I0
sVStarFriend
p1136
I0
sVHideInputBarFlag
p1137
I0
sVChatRoomId
p1138
I0
sVEncryChatRoomId
p1139
g52
sVAttrStatus
p1140
I0
sVStatues
p1141
I0
stp1142
Rp1143
I1
bag34
(g1100
g39
(dp1144
VUserName
p1145
V@f0fa7c143d44211f0ba65495f7aceb81
p1146
sVCity
p1147
V\u5e7f\u5dde
p1148
sVSnsFlag
p1149
I0
sVDisplayName
p1150
g52
sVUniFriend
p1151
I0
sVMemberCount
p1152
I0
sVOwnerUin
p1153
I0
sVMemberList
p1154
g50
sVAlias
p1155
g52
sVPYQuanPin
p1156
Vyikushaonv
p1157
sVSignature
p1158
V\u5173\u6ce8\u4e0d\u4e86\uff1f \u8bf7\u641c\u7d22\u5173\u6ce8\uff1a\u5947\u8da3\u62a5\u793e\u65b0\u53f7
p1159
sVRemarkPYInitial
p1160
g52
sVContactFlag
p1161
I3
sVUin
p1162
I0
sVNickName
p1163
V\u4e00\u5e93\u5c11\u5973
p1164
sVAppAccountFlag
p1165
I0
sVVerifyFlag
p1166
I8
sVRemarkPYQuanPin
p1167
g52
sVHeadImgUrl
p1168
V/cgi-bin/mmwebwx-bin/webwxgeticon?seq=673712037&username=@f0fa7c143d44211f0ba65495f7aceb81&skey=@crypt_49509d7f_e95c32e63f4b431bac2e799bfd162a56
p1169
sVKeyWord
p1170
Vgh_
p1171
sVProvince
p1172
V\u5e7f\u4e1c
p1173
sVPYInitial
p1174
VYKSN
p1175
sVRemarkName
p1176
g52
sVIsOwner
p1177
I0
sVSex
p1178
I0
sVStarFriend
p1179
I0
sVHideInputBarFlag
p1180
I0
sVChatRoomId
p1181
I0
sVEncryChatRoomId
p1182
g52
sVAttrStatus
p1183
I0
sVStatues
p1184
I0
stp1185
Rp1186
I1
bag34
(g1100
g39
(dp1187
VUserName
p1188
V@087db80e6d2c6c133fedc5c90b6bbfff
p1189
sVCity
p1190
V\u6df1\u5733
p1191
sVSnsFlag
p1192
I0
sVDisplayName
p1193
g52
sVUniFriend
p1194
I0
sVMemberCount
p1195
I0
sVOwnerUin
p1196
I0
sVMemberList
p1197
g50
sVAlias
p1198
g52
sVPYQuanPin
p1199
Vshunfengsuyun
p1200
sVSignature
p1201
V\u5feb\u4ef6\u4fe1\u606f\u5b9e\u65f6\u6536\uff0c\u4f1a\u5458\u6743\u76ca\u7b49\u4f60\u62ff\u3002\u987a\u4e30\u901f\u8fd0\u51fa\u54c1\uff0c\u4e00\u6b3e\u63d0\u4f9b\u5728\u7ebf\u5bc4\u4ef6\u3001\u4e00\u5c0f\u65f6\u4e0a\u95e8\u3001\u5feb\u9012\u5355\u53f7\u67e5\u8be2\u3001\u7f51\u70b9\u67e5\u8be2\u3001\u8fd0\u8d39\u67e5\u8be2\u7b49\u76f8\u5173\u670d\u52a1\u7684\u5feb\u9012\u7269\u6d41\u516c\u4f17\u53f7\u3002\u67e5\u5feb\u9012\u3001\u5bc4\u5feb\u9012\u7528\u987a\u4e30\uff0c\u4e0d\u6b62\u662f\u5feb\u3002
p1202
sVRemarkPYInitial
p1203
g52
sVContactFlag
p1204
I3
sVUin
p1205
I0
sVNickName
p1206
V\u987a\u4e30\u901f\u8fd0
p1207
sVAppAccountFlag
p1208
I0
sVVerifyFlag
p1209
I24
sVRemarkPYQuanPin
p1210
g52
sVHeadImgUrl
p1211
V/cgi-bin/mmwebwx-bin/webwxgeticon?seq=673719418&username=@087db80e6d2c6c133fedc5c90b6bbfff&skey=@crypt_49509d7f_e95c32e63f4b431bac2e799bfd162a56
p1212
sVKeyWord
p1213
Vgh_
p1214
sVProvince
p1215
V\u5e7f\u4e1c
p1216
sVPYInitial
p1217
VSFSY
p1218
sVRemarkName
p1219
g52
sVIsOwner
p1220
I0
sVSex
p1221
I0
sVStarFriend
p1222
I0
sVHideInputBarFlag
p1223
I0
sVChatRoomId
p1224
I0
sVEncryChatRoomId
p1225
g52
sVAttrStatus
p1226
I0
sVStatues
p1227
I0
stp1228
Rp1229
I1
bag34
(g1100
g39
(dp1230
VUserName
p1231
V@2cf37873954bc4b5c58a05f60093295d
p1232
sVCity
p1233
V\u6d4e\u5357
p1234
sVSnsFlag
p1235
I0
sVDisplayName
p1236
g52
sVUniFriend
p1237
I0
sVMemberCount
p1238
I0
sVOwnerUin
p1239
I0
sVMemberList
p1240
g50
sVAlias
p1241
g52
sVPYQuanPin
p1242
Vbaigehuidi
p1243
sVSignature
p1244
V\u767d\u9e3d\u60e0\u9012\u4e3a\u5feb\u9012\u7269\u6d41\u4e1a\u52a1\u7684\u7f51\u4e0a\u4e0b\u5355\u5e73\u53f0\u3002\u4e0e\u4e2d\u90ae\u3001\u987a\u4e30\u3001\u5fb7\u90a6\u3001\u5706\u901a\u3001\u5b85\u6025\u9001\u7b49\u4e00\u7ebf\u901f\u8fd0\u4f01\u4e1a\u5f62\u6210\u5168\u56fd\u5408\u4f5c\u9635\u8425\u3002\u7528\u6237\u53ef\u5728\u7ebf\u5bf9\u6bd4\u4e0b\u5355\uff0c\u4eab\u53d7\u5e73\u53f0\u8865\u8d34\u3002\u4e0b\u5355\u540e\u5ba2\u6237\u9759\u5f85\u5feb\u9012\u5458\u63fd\u4ef6\u3002
p1245
sVRemarkPYInitial
p1246
g52
sVContactFlag
p1247
I3
sVUin
p1248
I0
sVNickName
p1249
V\u767d\u9e3d\u60e0\u9012
p1250
sVAppAccountFlag
p1251
I0
sVVerifyFlag
p1252
I24
sVRemarkPYQuanPin
p1253
g52
sVHeadImgUrl
p1254
V/cgi-bin/mmwebwx-bin/webwxgeticon?seq=673719895&username=@2cf37873954bc4b5c58a05f60093295d&skey=@crypt_49509d7f_e95c32e63f4b431bac2e799bfd162a56
p1255
sVKeyWord
p1256
Vgh_
p1257
sVProvince
p1258
V\u5c71\u4e1c
p1259
sVPYInitial
p1260
VBGHD
p1261
sVRemarkName
p1262
g52
sVIsOwner
p1263
I0
sVSex
p1264
I0
sVStarFriend
p1265
I0
sVHideInputBarFlag
p1266
I0
sVChatRoomId
p1267
I0
sVEncryChatRoomId
p1268
g52
sVAttrStatus
p1269
I0
sVStatues
p1270
I0
stp1271
Rp1272
I1
batp1273
Rp1274
I1
bssS'loginInfo'
p1275
(dp1276
S'SyncKey'
p1277
(dp1278
VCount
p1279
I4
sVList
p1280
(lp1281
(dp1282
VVal
p1283
I673727415
sVKey
p1284
I1
sa(dp1285
VVal
p1286
I673727568
sVKey
p1287
I2
sa(dp1288
VVal
p1289
I673727308
sVKey
p1290
I3
sa(dp1291
VVal
p1292
I1571128637
sVKey
p1293
I1000
sassS'syncUrl'
p1294
S'https://webpush.wx2.qq.com/cgi-bin/mmwebwx-bin'
p1295
sS'skey'
p1296
V@crypt_49509d7f_e95c32e63f4b431bac2e799bfd162a56
p1297
sS'wxuin'
p1298
V200509586
p1299
sS'synckey'
p1300
S'1_673727415|2_673727568|3_673727308|1000_1571128637'
p1301
sS'url'
p1302
Vhttps://wx2.qq.com/cgi-bin/mmwebwx-bin
p1303
sS'pass_ticket'
p1304
Vb2VBJ1pxr2Hm1LVFG8mBCb7GPDb%2B1WkM%2FvMPTo2xSYE%3D
p1305
sS'wxsid'
p1306
VXrgUGJdqWPkdv4dk
p1307
sS'User'
p1308
g34
(g38
g39
(dp1309
g41
g31
sg42
g43
sg44
g43
sg45
I0
sg47
g50
sg51
g52
sg53
g52
sg77
I1
sg55
I0
sg56
I0
sg57
g43
sg58
g43
sg59
g52
sg60
g52
sg61
I0
sg62
I0
sg63
I1
sg64
g43
sg65
I0
sg68
I0
sg66
I0
sg67
I0
sg46
I0
sg69
g43
sg70
g52
sg71
I0
sg72
g73
sg74
g52
sg75
g76
sg54
I200509586
sg78
I0
sg79
I0
stp1310
Rp1311
I1
bsS'InviteStartCount'
p1312
I40
sS'fileUrl'
p1313
S'https://file.wx2.qq.com/cgi-bin/mmwebwx-bin'
p1314
sS'BaseRequest'
p1315
(dp1316
g54
g1299
sS'Skey'
p1317
g1297
sS'DeviceID'
p1318
g1305
sS'Sid'
p1319
g1307
ssS'deviceid'
p1320
S'e689187784278973'
p1321
ss.