(dp0
S'cookies'
p1
(dp2
S'wxloadtime'
p3
S'1565943583'
p4
sS'webwx_data_ticket'
p5
S'gSclY+m6AxCVw68aQ7pcMD0p'
p6
sS'wxuin'
p7
S'200509586'
p8
sS'login_frequency'
p9
S'2'
p10
sS'MM_WX_NOTIFY_STATE'
p11
S'1'
p12
sS'MM_WX_SOUND_STATE'
p13
g12
sS'webwx_auth_ticket'
p14
S'CIsBENmSi90EGoABq+g+KLXNpaax1KGvNlWIRRyUKB2qlYLxh1QhYG5FOLJPDL3nHjgFdoRkPOPBJuREeyGpoCOQK0ptqv5jkAboEckVq+lZ8bY9kugIiqjmIXOr5m2jonLI3j9F8nmq773Wz4wT15WvgUsxrMRQeuGiNbgXYJ1IAwQ+jPWIrn7GY7g='
p15
sS'last_wxuin'
p16
S'200509586'
p17
sS'webwxuvid'
p18
S'ef16bd48961c4320b665ac296596e4e6eb6a05de906f2bce9dd22846416c173663f21bd7bf9ad4c6c171e3c2a4059808'
p19
sS'wxpluginkey'
p20
S'1565428239_expired'
p21
sS'wxsid'
p22
S'VSwNfwBHk4LwmVm1'
p23
sS'mm_lang'
p24
S'zh_CN'
p25
ssS'version'
p26
S'1.3.10'
p27
sS'storage'
p28
(dp29
S'userName'
p30
V@f18b7613b0e985f8befe58444a2dc716e7e99c5c8ae2566c7343f3d3769cefaf
p31
sS'lastInputUserName'
p32
NsS'memberList'
p33
ccopy_reg
_reconstructor
p34
(citchat.storage.templates
ContactList
p35
c__builtin__
list
p36
(lp37
g34
(citchat.storage.templates
User
p38
c__builtin__
dict
p39
(dp40
S'UserName'
p41
g31
sS'City'
p42
S''
p43
sS'DisplayName'
p44
g43
sS'UniFriend'
p45
I0
sS'OwnerUin'
p46
I0
sS'MemberList'
p47
g34
(g35
g36
(lp48
tp49
Rp50
I1
bsS'PYQuanPin'
p51
V
p52
sS'RemarkPYInitial'
p53
g52
sS'Uin'
p54
I200509586
sS'AppAccountFlag'
p55
I0
sS'VerifyFlag'
p56
I0
sS'Province'
p57
g43
sS'KeyWord'
p58
g43
sS'RemarkName'
p59
g52
sS'PYInitial'
p60
g52
sS'ChatRoomId'
p61
I0
sS'HideInputBarFlag'
p62
I0
sVHeadImgFlag
p63
I1
sS'EncryChatRoomId'
p64
g43
sS'AttrStatus'
p65
I0
sS'SnsFlag'
p66
I0
sS'MemberCount'
p67
I0
sVWebWxPluginSwitch
p68
I0
sS'Alias'
p69
g43
sS'Signature'
p70
g52
sS'ContactFlag'
p71
I0
sS'NickName'
p72
V\u673a\u5668\u4eba\u5c0f\u80d6
p73
sS'RemarkPYQuanPin'
p74
g52
sS'HeadImgUrl'
p75
V/cgi-bin/mmwebwx-bin/webwxgeticon?seq=252561698&username=@f18b7613b0e985f8befe58444a2dc716e7e99c5c8ae2566c7343f3d3769cefaf&skey=@crypt_49509d7f_4e6af99d540755db4bb3faeaf14e71f4
p76
sS'Sex'
p77
I1
sS'StarFriend'
p78
I0
sS'Statues'
p79
I0
stp80
Rp81
I1
bag34
(g38
g39
(dp82
VUserName
p83
V@cb34774ea1271fc2b80014ba6d7abfff
p84
sVCity
p85
g52
sVSnsFlag
p86
I17
sVDisplayName
p87
g52
sVUniFriend
p88
I0
sVMemberCount
p89
I0
sVOwnerUin
p90
I0
sVMemberList
p91
g50
sVAlias
p92
g52
sVPYQuanPin
p93
VCXY
p94
sVSignature
p95
V\u7b49\u98ce\u4e5f\u7b49\u4f60\u3002
p96
sVRemarkPYInitial
p97
VXYKTX
p98
sVContactFlag
p99
I1
sVUin
p100
I0
sVNickName
p101
V-C_XY-
p102
sVAppAccountFlag
p103
I0
sVVerifyFlag
p104
I0
sVRemarkPYQuanPin
p105
Vxinyongkataoxian
p106
sVHeadImgUrl
p107
V/cgi-bin/mmwebwx-bin/webwxgeticon?seq=673710066&username=@cb34774ea1271fc2b80014ba6d7abfff&skey=@crypt_49509d7f_4e6af99d540755db4bb3faeaf14e71f4
p108
sVKeyWord
p109
Vwux
p110
sVProvince
p111
g52
sVPYInitial
p112
VCXY
p113
sVRemarkName
p114
V\u4fe1\u7528\u5361\u5957\u73b0
p115
sVIsOwner
p116
I0
sVSex
p117
I2
sVStarFriend
p118
I0
sVHideInputBarFlag
p119
I0
sVChatRoomId
p120
I0
sVEncryChatRoomId
p121
g52
sVAttrStatus
p122
I111719
sVStatues
p123
I0
stp124
Rp125
I1
bag34
(g38
g39
(dp126
VUserName
p127
V@86cf495adf77cf0e2e0791c933f91c0c45c91a2a11e31f1b098073ef3185faf8
p128
sVCity
p129
g52
sVSnsFlag
p130
I1
sVDisplayName
p131
g52
sVUniFriend
p132
I0
sVMemberCount
p133
I0
sVOwnerUin
p134
I0
sVMemberList
p135
g50
sVAlias
p136
g52
sVPYQuanPin
p137
VMolly
p138
sVSignature
p139
V\u5c3d\u4eba\u4e8b\u542c\u5929\u610f\uff01
p140
sVRemarkPYInitial
p141
g52
sVContactFlag
p142
I1
sVUin
p143
I0
sVNickName
p144
VMolly
p145
sVAppAccountFlag
p146
I0
sVVerifyFlag
p147
I0
sVRemarkPYQuanPin
p148
g52
sVHeadImgUrl
p149
V/cgi-bin/mmwebwx-bin/webwxgeticon?seq=673715616&username=@86cf495adf77cf0e2e0791c933f91c0c45c91a2a11e31f1b098073ef3185faf8&skey=@crypt_49509d7f_4e6af99d540755db4bb3faeaf14e71f4
p150
sVKeyWord
p151
g52
sVProvince
p152
g52
sVPYInitial
p153
VMOLLY
p154
sVRemarkName
p155
g52
sVIsOwner
p156
I0
sVSex
p157
I2
sVStarFriend
p158
I0
sVHideInputBarFlag
p159
I0
sVChatRoomId
p160
I0
sVEncryChatRoomId
p161
g52
sVAttrStatus
p162
I234083
sVStatues
p163
I0
stp164
Rp165
I1
bag34
(g38
g39
(dp166
VUserName
p167
V@db90bec6fa87c86b0e39c2596fef09c3a3f12a6782619ee8c1bca02e18569b1a
p168
sVCity
p169
g52
sVSnsFlag
p170
I1
sVDisplayName
p171
g52
sVUniFriend
p172
I0
sVMemberCount
p173
I0
sVOwnerUin
p174
I0
sVMemberList
p175
g50
sVAlias
p176
g52
sVPYQuanPin
p177
Vchuanguoliushui
p178
sVSignature
p179
V\u53ea\u4e3a\u4e00\u4eba\u7559
p180
sVRemarkPYInitial
p181
g52
sVContactFlag
p182
I1
sVUin
p183
I0
sVNickName
p184
V\u7a7f\u8fc7\u6d41\u6c34
p185
sVAppAccountFlag
p186
I0
sVVerifyFlag
p187
I0
sVRemarkPYQuanPin
p188
g52
sVHeadImgUrl
p189
V/cgi-bin/mmwebwx-bin/webwxgeticon?seq=673714836&username=@db90bec6fa87c86b0e39c2596fef09c3a3f12a6782619ee8c1bca02e18569b1a&skey=@crypt_49509d7f_4e6af99d540755db4bb3faeaf14e71f4
p190
sVKeyWord
p191
g52
sVProvince
p192
VKowloon City
p193
sVPYInitial
p194
VCGLS
p195
sVRemarkName
p196
g52
sVIsOwner
p197
I0
sVSex
p198
I1
sVStarFriend
p199
I0
sVHideInputBarFlag
p200
I0
sVChatRoomId
p201
I0
sVEncryChatRoomId
p202
g52
sVAttrStatus
p203
I33690405
sVStatues
p204
I0
stp205
Rp206
I1
bag34
(g38
g39
(dp207
VUserName
p208
V@197749f584353580c80287e1209d01fc0d7eaa2ab662c284ddfa8c9da194c3b0
p209
sVCity
p210
V\u6d66\u4e1c\u65b0\u533a
p211
sVSnsFlag
p212
I1
sVDisplayName
p213
g52
sVUniFriend
p214
I0
sVMemberCount
p215
I0
sVOwnerUin
p216
I0
sVMemberList
p217
g50
sVAlias
p218
g52
sVPYQuanPin
p219
Vyannispanclassemojiemoji1f485span?
p220
sVSignature
p221
V\u4f60\u82e5\u76db\u5f00\uff0c\u8774\u8776\u81ea\u6765\u2026\u2026
p222
sVRemarkPYInitial
p223
g52
sVContactFlag
p224
I1
sVUin
p225
I0
sVNickName
p226
V\u71d5\u59ae\U0001f485\U0001f3fb
p227
sVAppAccountFlag
p228
I0
sVVerifyFlag
p229
I0
sVRemarkPYQuanPin
p230
g52
sVHeadImgUrl
p231
V/cgi-bin/mmwebwx-bin/webwxgeticon?seq=673715724&username=@197749f584353580c80287e1209d01fc0d7eaa2ab662c284ddfa8c9da194c3b0&skey=@crypt_49509d7f_4e6af99d540755db4bb3faeaf14e71f4
p232
sVKeyWord
p233
g52
sVProvince
p234
V\u4e0a\u6d77
p235
sVPYInitial
p236
VYNSPANCLASSEMOJIEMOJI1F485SPAN?
p237
sVRemarkName
p238
g52
sVIsOwner
p239
I0
sVSex
p240
I2
sVStarFriend
p241
I0
sVHideInputBarFlag
p242
I0
sVChatRoomId
p243
I0
sVEncryChatRoomId
p244
g52
sVAttrStatus
p245
I103205
sVStatues
p246
I0
stp247
Rp248
I1
bag34
(g38
g39
(dp249
VUserName
p250
V@54150df205eab42ced1e07afbba10ec388ed46537fa4f0c3ec32495ed358ef67
p251
sVCity
p252
g52
sVSnsFlag
p253
I1
sVDisplayName
p254
g52
sVUniFriend
p255
I0
sVMemberCount
p256
I0
sVOwnerUin
p257
I0
sVMemberList
p258
g50
sVAlias
p259
g52
sVPYQuanPin
p260
VAkuaidiyouhuiquanbudingjigengxin
p261
sVSignature
p262
V\u963f\u8fea\u8fbe\u65af\u7ae5\u88c5  \u65ad\u7801\u7279\u4ef7
p263
sVRemarkPYInitial
p264
g52
sVContactFlag
p265
I3
sVUin
p266
I0
sVNickName
p267
VA\u5feb\u9012\u4f18\u60e0\u5238 \u4e0d\u5b9a\u671f\u66f4\u65b0
p268
sVAppAccountFlag
p269
I0
sVVerifyFlag
p270
I0
sVRemarkPYQuanPin
p271
g52
sVHeadImgUrl
p272
V/cgi-bin/mmwebwx-bin/webwxgeticon?seq=673716439&username=@54150df205eab42ced1e07afbba10ec388ed46537fa4f0c3ec32495ed358ef67&skey=@crypt_49509d7f_4e6af99d540755db4bb3faeaf14e71f4
p273
sVKeyWord
p274
g52
sVProvince
p275
g52
sVPYInitial
p276
VAKDYHQBDJGX
p277
sVRemarkName
p278
g52
sVIsOwner
p279
I0
sVSex
p280
I1
sVStarFriend
p281
I0
sVHideInputBarFlag
p282
I0
sVChatRoomId
p283
I0
sVEncryChatRoomId
p284
g52
sVAttrStatus
p285
I135205
sVStatues
p286
I0
stp287
Rp288
I1
bag34
(g38
g39
(dp289
VUserName
p290
V@488c985b0e8089350ad2fdb1fac8d9a4
p291
sVCity
p292
V\u4e1c\u57ce
p293
sVSnsFlag
p294
I17
sVDisplayName
p295
g52
sVUniFriend
p296
I0
sVMemberCount
p297
I0
sVOwnerUin
p298
I0
sVMemberList
p299
g50
sVAlias
p300
g52
sVPYQuanPin
p301
Vpengcheng
p302
sVSignature
p303
V\u672a\u6765\u4e0d\u8fce\uff0c\u5f53\u65f6\u4e0d\u6742\uff0c\u8fc7\u5f80\u4e0d\u604b
p304
sVRemarkPYInitial
p305
g52
sVContactFlag
p306
I3
sVUin
p307
I0
sVNickName
p308
V\u9e4f\u7a0b
p309
sVAppAccountFlag
p310
I0
sVVerifyFlag
p311
I0
sVRemarkPYQuanPin
p312
g52
sVHeadImgUrl
p313
V/cgi-bin/mmwebwx-bin/webwxgeticon?seq=669180196&username=@488c985b0e8089350ad2fdb1fac8d9a4&skey=@crypt_49509d7f_4e6af99d540755db4bb3faeaf14e71f4
p314
sVKeyWord
p315
Vwar
p316
sVProvince
p317
V\u5317\u4eac
p318
sVPYInitial
p319
VPC
p320
sVRemarkName
p321
g52
sVIsOwner
p322
I0
sVSex
p323
I1
sVStarFriend
p324
I0
sVHideInputBarFlag
p325
I0
sVChatRoomId
p326
I0
sVEncryChatRoomId
p327
g52
sVAttrStatus
p328
I33691111
sVStatues
p329
I0
stp330
Rp331
I1
bag34
(g38
g39
(dp332
VUserName
p333
V@a1fa2cb1f8a27515944ab6cbd1b63c4824bcd0dd1cb6e8f0c3b188163d96ecd3
p334
sVCity
p335
V\u90af\u90f8
p336
sVSnsFlag
p337
I1
sVDisplayName
p338
g52
sVUniFriend
p339
I0
sVMemberCount
p340
I0
sVOwnerUin
p341
I0
sVMemberList
p342
g50
sVAlias
p343
g52
sVPYQuanPin
p344
Vniming
p345
sVSignature
p346
V<span class="emoji emoji1f63a"></span> <span class="emoji emoji1f63a"></span> <span class="emoji emoji1f63a"></span> <span class="emoji emoji1f63a"></span> <span class="emoji emoji1f63a"></span>
p347
sVRemarkPYInitial
p348
g52
sVContactFlag
p349
I3
sVUin
p350
I0
sVNickName
p351
V\u533f\u540d
p352
sVAppAccountFlag
p353
I0
sVVerifyFlag
p354
I0
sVRemarkPYQuanPin
p355
g52
sVHeadImgUrl
p356
V/cgi-bin/mmwebwx-bin/webwxgeticon?seq=673718011&username=@a1fa2cb1f8a27515944ab6cbd1b63c4824bcd0dd1cb6e8f0c3b188163d96ecd3&skey=@crypt_49509d7f_4e6af99d540755db4bb3faeaf14e71f4
p357
sVKeyWord
p358
g52
sVProvince
p359
V\u6cb3\u5317
p360
sVPYInitial
p361
VNM
p362
sVRemarkName
p363
g52
sVIsOwner
p364
I0
sVSex
p365
I1
sVStarFriend
p366
I0
sVHideInputBarFlag
p367
I0
sVChatRoomId
p368
I0
sVEncryChatRoomId
p369
g52
sVAttrStatus
p370
I33657277
sVStatues
p371
I0
stp372
Rp373
I1
bag34
(g38
g39
(dp374
VUserName
p375
V@8dd17c90d416ba1aea83530a1cf48f1cceb8b7410a5c9ee9095e736070cb9a2c
p376
sVCity
p377
V\u5305\u5934
p378
sVSnsFlag
p379
I1
sVDisplayName
p380
g52
sVUniFriend
p381
I0
sVMemberCount
p382
I0
sVOwnerUin
p383
I0
sVMemberList
p384
g50
sVAlias
p385
g52
sVPYQuanPin
p386
Vxiaoqing
p387
sVSignature
p388
g52
sVRemarkPYInitial
p389
g52
sVContactFlag
p390
I3
sVUin
p391
I0
sVNickName
p392
V\u5c0f\u9752
p393
sVAppAccountFlag
p394
I0
sVVerifyFlag
p395
I0
sVRemarkPYQuanPin
p396
g52
sVHeadImgUrl
p397
V/cgi-bin/mmwebwx-bin/webwxgeticon?seq=673718930&username=@8dd17c90d416ba1aea83530a1cf48f1cceb8b7410a5c9ee9095e736070cb9a2c&skey=@crypt_49509d7f_4e6af99d540755db4bb3faeaf14e71f4
p398
sVKeyWord
p399
g52
sVProvince
p400
V\u5185\u8499\u53e4
p401
sVPYInitial
p402
VXQ
p403
sVRemarkName
p404
g52
sVIsOwner
p405
I0
sVSex
p406
I1
sVStarFriend
p407
I0
sVHideInputBarFlag
p408
I0
sVChatRoomId
p409
I0
sVEncryChatRoomId
p410
g52
sVAttrStatus
p411
I234109
sVStatues
p412
I0
stp413
Rp414
I1
bag34
(g38
g39
(dp415
VUserName
p416
V@bca2f55b1b6b28703659579c44b688bd74e66fc22d48fd5bc0addfb541109d71
p417
sVCity
p418
V\u53a6\u95e8
p419
sVSnsFlag
p420
I1
sVDisplayName
p421
g52
sVUniFriend
p422
I0
sVMemberCount
p423
I0
sVOwnerUin
p424
I0
sVMemberList
p425
g50
sVAlias
p426
g52
sVPYQuanPin
p427
Vfeisehuiyi
p428
sVSignature
p429
V\u505a\u4e2a\u6e29\u67d4\uff0c\u9738\u6c14\u7684\uff0c\u6dd1\u5973\U0001f643\U0001f643
p430
sVRemarkPYInitial
p431
g52
sVContactFlag
p432
I1
sVUin
p433
I0
sVNickName
p434
V\u83f2\u8272\u56de\u5fc6
p435
sVAppAccountFlag
p436
I0
sVVerifyFlag
p437
I0
sVRemarkPYQuanPin
p438
g52
sVHeadImgUrl
p439
V/cgi-bin/mmwebwx-bin/webwxgeticon?seq=673715277&username=@bca2f55b1b6b28703659579c44b688bd74e66fc22d48fd5bc0addfb541109d71&skey=@crypt_49509d7f_4e6af99d540755db4bb3faeaf14e71f4
p440
sVKeyWord
p441
g52
sVProvince
p442
V\u798f\u5efa
p443
sVPYInitial
p444
VFSHY
p445
sVRemarkName
p446
g52
sVIsOwner
p447
I0
sVSex
p448
I2
sVStarFriend
p449
I0
sVHideInputBarFlag
p450
I0
sVChatRoomId
p451
I0
sVEncryChatRoomId
p452
g52
sVAttrStatus
p453
I102589
sVStatues
p454
I0
stp455
Rp456
I1
bag34
(g38
g39
(dp457
VUserName
p458
V@b7dc6fd04687ac4f4879649d2c213ddba8a25e2cc44789b599a86747e0f4d372
p459
sVCity
p460
g52
sVSnsFlag
p461
I1
sVDisplayName
p462
g52
sVUniFriend
p463
I0
sVMemberCount
p464
I0
sVOwnerUin
p465
I0
sVMemberList
p466
g50
sVAlias
p467
g52
sVPYQuanPin
p468
VSimpler?
p469
sVSignature
p470
VHierarchy
p471
sVRemarkPYInitial
p472
g52
sVContactFlag
p473
I1
sVUin
p474
I0
sVNickName
p475
VSimpler\U0001f408
p476
sVAppAccountFlag
p477
I0
sVVerifyFlag
p478
I0
sVRemarkPYQuanPin
p479
g52
sVHeadImgUrl
p480
V/cgi-bin/mmwebwx-bin/webwxgeticon?seq=673719582&username=@b7dc6fd04687ac4f4879649d2c213ddba8a25e2cc44789b599a86747e0f4d372&skey=@crypt_49509d7f_4e6af99d540755db4bb3faeaf14e71f4
p481
sVKeyWord
p482
g52
sVProvince
p483
g52
sVPYInitial
p484
VSIMPLER?
p485
sVRemarkName
p486
g52
sVIsOwner
p487
I0
sVSex
p488
I2
sVStarFriend
p489
I0
sVHideInputBarFlag
p490
I0
sVChatRoomId
p491
I0
sVEncryChatRoomId
p492
g52
sVAttrStatus
p493
I234277
sVStatues
p494
I0
stp495
Rp496
I1
bag34
(g38
g39
(dp497
VUserName
p498
V@d9eee631c6a1bb4819c003ec8a00a8066c7529602bae231f6c73afa6bd513d43
p499
sVCity
p500
V\u90af\u90f8
p501
sVSnsFlag
p502
I1
sVDisplayName
p503
g52
sVUniFriend
p504
I0
sVMemberCount
p505
I0
sVOwnerUin
p506
I0
sVMemberList
p507
g50
sVAlias
p508
g52
sVPYQuanPin
p509
Vningbeisenwu
p510
sVSignature
p511
V\u5b87\u5b87\u4e0d\u6536\u4e8c\u624b\u5783\u573e\u3002
p512
sVRemarkPYInitial
p513
g52
sVContactFlag
p514
I3
sVUin
p515
I0
sVNickName
p516
V\u67e0\u5317\u68ee\u5c4b\u3002
p517
sVAppAccountFlag
p518
I0
sVVerifyFlag
p519
I0
sVRemarkPYQuanPin
p520
g52
sVHeadImgUrl
p521
V/cgi-bin/mmwebwx-bin/webwxgeticon?seq=673721821&username=@d9eee631c6a1bb4819c003ec8a00a8066c7529602bae231f6c73afa6bd513d43&skey=@crypt_49509d7f_4e6af99d540755db4bb3faeaf14e71f4
p522
sVKeyWord
p523
g52
sVProvince
p524
V\u6cb3\u5317
p525
sVPYInitial
p526
VNBSW
p527
sVRemarkName
p528
g52
sVIsOwner
p529
I0
sVSex
p530
I2
sVStarFriend
p531
I0
sVHideInputBarFlag
p532
I0
sVChatRoomId
p533
I0
sVEncryChatRoomId
p534
g52
sVAttrStatus
p535
I102945
sVStatues
p536
I0
stp537
Rp538
I1
bag34
(g38
g39
(dp539
VUserName
p540
V@ee7e10ba026614f7f708698b837c6feb0d139957ac19216d376424b4a13ff8f3
p541
sVCity
p542
g52
sVSnsFlag
p543
I1
sVDisplayName
p544
g52
sVUniFriend
p545
I0
sVMemberCount
p546
I0
sVOwnerUin
p547
I0
sVMemberList
p548
g50
sVAlias
p549
g52
sVPYQuanPin
p550
Vqinghuida2019
p551
sVSignature
p552
V\u8bda\u5fc3\u6b63\u610f\uff0c\u505a\u5fc3\u5e95\u8ba4\u4e3a\u6b63\u786e\u7684\u4e8b
p553
sVRemarkPYInitial
p554
VCLAIRTINDER
p555
sVContactFlag
p556
I3
sVUin
p557
I0
sVNickName
p558
V\u8bf7\u56de\u7b542019
p559
sVAppAccountFlag
p560
I0
sVVerifyFlag
p561
I0
sVRemarkPYQuanPin
p562
VClairTinder
p563
sVHeadImgUrl
p564
V/cgi-bin/mmwebwx-bin/webwxgeticon?seq=673719286&username=@ee7e10ba026614f7f708698b837c6feb0d139957ac19216d376424b4a13ff8f3&skey=@crypt_49509d7f_4e6af99d540755db4bb3faeaf14e71f4
p565
sVKeyWord
p566
g52
sVProvince
p567
g52
sVPYInitial
p568
VQHD2019
p569
sVRemarkName
p570
VClair Tinder
p571
sVIsOwner
p572
I0
sVSex
p573
I0
sVStarFriend
p574
I0
sVHideInputBarFlag
p575
I0
sVChatRoomId
p576
I0
sVEncryChatRoomId
p577
g52
sVAttrStatus
p578
I233509
sVStatues
p579
I0
stp580
Rp581
I1
bag34
(g38
g39
(dp582
VUserName
p583
V@3548806d920df6b1b446ff1db93f68996ce452efead44bd488e103da066aa467
p584
sVCity
p585
g52
sVSnsFlag
p586
I1
sVDisplayName
p587
g52
sVUniFriend
p588
I0
sVMemberCount
p589
I0
sVOwnerUin
p590
I0
sVMemberList
p591
g50
sVAlias
p592
g52
sVPYQuanPin
p593
Vbanjialvyou
p594
sVSignature
p595
g52
sVRemarkPYInitial
p596
g52
sVContactFlag
p597
I3
sVUin
p598
I0
sVNickName
p599
V\u534a\u4ef7\u65c5\u6e38
p600
sVAppAccountFlag
p601
I0
sVVerifyFlag
p602
I0
sVRemarkPYQuanPin
p603
g52
sVHeadImgUrl
p604
V/cgi-bin/mmwebwx-bin/webwxgeticon?seq=673722419&username=@3548806d920df6b1b446ff1db93f68996ce452efead44bd488e103da066aa467&skey=@crypt_49509d7f_4e6af99d540755db4bb3faeaf14e71f4
p605
sVKeyWord
p606
g52
sVProvince
p607
g52
sVPYInitial
p608
VBJLY
p609
sVRemarkName
p610
g52
sVIsOwner
p611
I0
sVSex
p612
I0
sVStarFriend
p613
I0
sVHideInputBarFlag
p614
I0
sVChatRoomId
p615
I0
sVEncryChatRoomId
p616
g52
sVAttrStatus
p617
I135269
sVStatues
p618
I0
stp619
Rp620
I1
bag34
(g38
g39
(dp621
VUserName
p622
V@ccb6c5dbc068a9d97f9433ae5a883cd6
p623
sVCity
p624
V\u65e0\u9521
p625
sVSnsFlag
p626
I177
sVDisplayName
p627
g52
sVUniFriend
p628
I0
sVMemberCount
p629
I0
sVOwnerUin
p630
I0
sVMemberList
p631
g50
sVAlias
p632
g52
sVPYQuanPin
p633
VjietouebaZip
p634
sVSignature
p635
VStreet Bully\u521b\u59cb\u4eba\u3001\u72d7\u4e0d\u61c2\u521b\u59cb\u4eba
p636
sVRemarkPYInitial
p637
g52
sVContactFlag
p638
I1
sVUin
p639
I0
sVNickName
p640
V\u8857\u982d\u60e1\u9738\u3010Zip\u3011
p641
sVAppAccountFlag
p642
I0
sVVerifyFlag
p643
I0
sVRemarkPYQuanPin
p644
g52
sVHeadImgUrl
p645
V/cgi-bin/mmwebwx-bin/webwxgeticon?seq=673713460&username=@ccb6c5dbc068a9d97f9433ae5a883cd6&skey=@crypt_49509d7f_4e6af99d540755db4bb3faeaf14e71f4
p646
sVKeyWord
p647
Vtr8
p648
sVProvince
p649
V\u6c5f\u82cf
p650
sVPYInitial
p651
VJTEBZIP
p652
sVRemarkName
p653
g52
sVIsOwner
p654
I0
sVSex
p655
I1
sVStarFriend
p656
I0
sVHideInputBarFlag
p657
I0
sVChatRoomId
p658
I0
sVEncryChatRoomId
p659
g52
sVAttrStatus
p660
I2147564455
sVStatues
p661
I0
stp662
Rp663
I1
bag34
(g38
g39
(dp664
VUserName
p665
V@0991bb92e6a4c400433d42dcaf89d97e001f7f812d0d62ee2253c0afb04d7f0f
p666
sVCity
p667
V\u671d\u9633
p668
sVSnsFlag
p669
I1
sVDisplayName
p670
g52
sVUniFriend
p671
I0
sVMemberCount
p672
I0
sVOwnerUin
p673
I0
sVMemberList
p674
g50
sVAlias
p675
g52
sVPYQuanPin
p676
Vxiaomaoshugadian
p677
sVSignature
p678
V\u5907\u6ce8\u6765\u610f+\u54ea\u91cc\u770b\u5230\u5fae\u4fe1\u53f7\uff0c\u4e0d\u5907\u6ce8\u4e0d\u901a\u8fc7
p679
sVRemarkPYInitial
p680
g52
sVContactFlag
p681
I3
sVUin
p682
I0
sVNickName
p683
V\u5c0f\u732b\u4e66\u5496\u5e97
p684
sVAppAccountFlag
p685
I0
sVVerifyFlag
p686
I0
sVRemarkPYQuanPin
p687
g52
sVHeadImgUrl
p688
V/cgi-bin/mmwebwx-bin/webwxgeticon?seq=673723018&username=@0991bb92e6a4c400433d42dcaf89d97e001f7f812d0d62ee2253c0afb04d7f0f&skey=@crypt_49509d7f_4e6af99d540755db4bb3faeaf14e71f4
p689
sVKeyWord
p690
g52
sVProvince
p691
V\u5317\u4eac
p692
sVPYInitial
p693
VXMSGD
p694
sVRemarkName
p695
g52
sVIsOwner
p696
I0
sVSex
p697
I2
sVStarFriend
p698
I0
sVHideInputBarFlag
p699
I0
sVChatRoomId
p700
I0
sVEncryChatRoomId
p701
g52
sVAttrStatus
p702
I135717
sVStatues
p703
I0
stp704
Rp705
I1
bag34
(g38
g39
(dp706
VUserName
p707
V@113dcca89f7fc84d58fe8afbf0d888219d1b04972356f20c417a2d78b1658c3a
p708
sVCity
p709
VOthers
p710
sVSnsFlag
p711
I1
sVDisplayName
p712
g52
sVUniFriend
p713
I0
sVMemberCount
p714
I0
sVOwnerUin
p715
I0
sVMemberList
p716
g50
sVAlias
p717
g52
sVPYQuanPin
p718
Vabbyhuanerspanclassemojiemoji1f48bspanspanclassemojiemoji1f6baspan
p719
sVSignature
p720
V\u8ba9\u8721\u70db\u4ee3\u66ff\u6240\u6709\u706f \u8ba9\u97f3\u4e50\u4ee3\u66ff\u8bdd\u8bed\u58f0 \u6b64\u65f6\u65e0\u58f0\u80dc\u6709\u58f0
p721
sVRemarkPYInitial
p722
g52
sVContactFlag
p723
I1
sVUin
p724
I0
sVNickName
p725
Vabby\u6b22\u513f\U0001f48b\U0001f6ba
p726
sVAppAccountFlag
p727
I0
sVVerifyFlag
p728
I0
sVRemarkPYQuanPin
p729
g52
sVHeadImgUrl
p730
V/cgi-bin/mmwebwx-bin/webwxgeticon?seq=673719319&username=@113dcca89f7fc84d58fe8afbf0d888219d1b04972356f20c417a2d78b1658c3a&skey=@crypt_49509d7f_4e6af99d540755db4bb3faeaf14e71f4
p731
sVKeyWord
p732
g52
sVProvince
p733
VKuala Lumpur
p734
sVPYInitial
p735
VABBYHESPANCLASSEMOJIEMOJI1F48BSPANSPANCLASSEMOJIEMOJI1F6BASPAN
p736
sVRemarkName
p737
g52
sVIsOwner
p738
I0
sVSex
p739
I2
sVStarFriend
p740
I0
sVHideInputBarFlag
p741
I0
sVChatRoomId
p742
I0
sVEncryChatRoomId
p743
g52
sVAttrStatus
p744
I33656865
sVStatues
p745
I0
stp746
Rp747
I1
bag34
(g38
g39
(dp748
VUserName
p749
V@e5a075e538093b212e01624dc9583fe87f4d8c31444a9c0172ed42d277b3dbfa
p750
sVCity
p751
g52
sVSnsFlag
p752
I1
sVDisplayName
p753
g52
sVUniFriend
p754
I0
sVMemberCount
p755
I0
sVOwnerUin
p756
I0
sVMemberList
p757
g50
sVAlias
p758
g52
sVPYQuanPin
p759
Vruhigruhig
p760
sVSignature
p761
g52
sVRemarkPYInitial
p762
g52
sVContactFlag
p763
I3
sVUin
p764
I0
sVNickName
p765
Vruhigruhig
p766
sVAppAccountFlag
p767
I0
sVVerifyFlag
p768
I0
sVRemarkPYQuanPin
p769
g52
sVHeadImgUrl
p770
V/cgi-bin/mmwebwx-bin/webwxgeticon?seq=673722781&username=@e5a075e538093b212e01624dc9583fe87f4d8c31444a9c0172ed42d277b3dbfa&skey=@crypt_49509d7f_4e6af99d540755db4bb3faeaf14e71f4
p771
sVKeyWord
p772
g52
sVProvince
p773
g52
sVPYInitial
p774
VRUHIGRUHIG
p775
sVRemarkName
p776
g52
sVIsOwner
p777
I0
sVSex
p778
I0
sVStarFriend
p779
I0
sVHideInputBarFlag
p780
I0
sVChatRoomId
p781
I0
sVEncryChatRoomId
p782
g52
sVAttrStatus
p783
I234277
sVStatues
p784
I0
stp785
Rp786
I1
bag34
(g38
g39
(dp787
VUserName
p788
V@c4c583631ef428dc401cbdc6f80651c767236de1b6a386ef3e0ef55f05f57280
p789
sVCity
p790
V\u5e7f\u5dde
p791
sVSnsFlag
p792
I1
sVDisplayName
p793
g52
sVUniFriend
p794
I0
sVMemberCount
p795
I0
sVOwnerUin
p796
I0
sVMemberList
p797
g50
sVAlias
p798
g52
sVPYQuanPin
p799
VA0zhengshubanli0Azhaodaili
p800
sVSignature
p801
V\u8d28\u91cf\u4e0e\u8bda\u4fe1\u5e76\u5b58\uff01\u62db\u4ee3\u7406\uff01
p802
sVRemarkPYInitial
p803
g52
sVContactFlag
p804
I3
sVUin
p805
I0
sVNickName
p806
VA0\u8bc1\u4e66\u529e\u74060A(\u62db\u4ee3\u7406)
p807
sVAppAccountFlag
p808
I0
sVVerifyFlag
p809
I0
sVRemarkPYQuanPin
p810
g52
sVHeadImgUrl
p811
V/cgi-bin/mmwebwx-bin/webwxgeticon?seq=673724315&username=@c4c583631ef428dc401cbdc6f80651c767236de1b6a386ef3e0ef55f05f57280&skey=@crypt_49509d7f_4e6af99d540755db4bb3faeaf14e71f4
p812
sVKeyWord
p813
g52
sVProvince
p814
V\u5e7f\u4e1c
p815
sVPYInitial
p816
VA0ZSBL0AZDL
p817
sVRemarkName
p818
g52
sVIsOwner
p819
I0
sVSex
p820
I1
sVStarFriend
p821
I0
sVHideInputBarFlag
p822
I0
sVChatRoomId
p823
I0
sVEncryChatRoomId
p824
g52
sVAttrStatus
p825
I4965
sVStatues
p826
I0
stp827
Rp828
I1
bag34
(g38
g39
(dp829
VUserName
p830
V@0a0001732efc31a03b503c49efef1265bf92f30fc2e313bdc87914652034172f
p831
sVCity
p832
g52
sVSnsFlag
p833
I1
sVDisplayName
p834
g52
sVUniFriend
p835
I0
sVMemberCount
p836
I0
sVOwnerUin
p837
I0
sVMemberList
p838
g50
sVAlias
p839
g52
sVPYQuanPin
p840
Vspanclassemojiemoji1f451spanHoiYispanclassemojiemoji1f451span
p841
sVSignature
p842
V\u4eba\u751f\u5efa\u8bae\uff1aKeep it real<span class="emoji emoji2764"></span>\ufe0f\u2003\u2003\u2003\u2003\u2003\u2003\u2003\u2003 \u2003\u05b4\u05b4\u000a\u05b4
p843
sVRemarkPYInitial
p844
g52
sVContactFlag
p845
I1
sVUin
p846
I0
sVNickName
p847
V\U0001f451HoiYi\U0001f451
p848
sVAppAccountFlag
p849
I0
sVVerifyFlag
p850
I0
sVRemarkPYQuanPin
p851
g52
sVHeadImgUrl
p852
V/cgi-bin/mmwebwx-bin/webwxgeticon?seq=673722685&username=@0a0001732efc31a03b503c49efef1265bf92f30fc2e313bdc87914652034172f&skey=@crypt_49509d7f_4e6af99d540755db4bb3faeaf14e71f4
p853
sVKeyWord
p854
g52
sVProvince
p855
g52
sVPYInitial
p856
VSPANCLASSEMOJIEMOJI1F451SPANHOIYISPANCLASSEMOJIEMOJI1F451SPAN
p857
sVRemarkName
p858
g52
sVIsOwner
p859
I0
sVSex
p860
I0
sVStarFriend
p861
I0
sVHideInputBarFlag
p862
I0
sVChatRoomId
p863
I0
sVEncryChatRoomId
p864
g52
sVAttrStatus
p865
I105253
sVStatues
p866
I0
stp867
Rp868
I1
batp869
Rp870
I1
bsS'chatroomList'
p871
g34
(g35
g36
(lp872
g34
(citchat.storage.templates
Chatroom
p873
g39
(dp874
VUserName
p875
V@@ba77f9cf6382fceed41d50579de7bd95cfdf659523d724a7efa3408c7ef75c46
p876
sVCity
p877
g52
sVDisplayName
p878
g52
sVUniFriend
p879
I0
sS'Self'
p880
g34
(g38
g39
(dp881
g41
g31
sg42
g43
sg44
g43
sg45
I0
sg46
I0
sg47
g34
(g35
g36
(lp882
tp883
Rp884
I1
bsg51
g52
sg53
g52
sg54
I200509586
sg55
I0
sg56
I0
sg57
g43
sg58
g43
sg59
g52
sg60
g52
sg61
I0
sg62
I0
sg63
I1
sg64
g43
sg65
I0
sg66
I0
sg67
I0
sg68
I0
sg69
g43
sg70
g52
sg71
I0
sg72
g73
sg74
g52
sg75
g76
sg77
I1
sg78
I0
sg79
I0
stp885
Rp886
I1
bsVMemberList
p887
g34
(g35
g36
(lp888
tp889
Rp890
I1
bsVPYQuanPin
p891
g52
sVRemarkPYInitial
p892
g52
sVSex
p893
I0
sVAppAccountFlag
p894
I0
sVVerifyFlag
p895
I0
sVProvince
p896
g52
sVKeyWord
p897
g52
sVRemarkName
p898
g52
sVPYInitial
p899
g52
sVIsOwner
p900
I0
sVChatRoomId
p901
I0
sVHideInputBarFlag
p902
I0
sVEncryChatRoomId
p903
g52
sVAttrStatus
p904
I0
sVSnsFlag
p905
I0
sVMemberCount
p906
I498
sVOwnerUin
p907
I0
sVAlias
p908
g52
sS'IsAdmin'
p909
NsVSignature
p910
g52
sVContactFlag
p911
I0
sVNickName
p912
VRedis\u6280\u672f\u4ea4\u6d41\u7fa42
p913
sVRemarkPYQuanPin
p914
g52
sVHeadImgUrl
p915
V/cgi-bin/mmwebwx-bin/webwxgetheadimg?seq=0&username=@@ba77f9cf6382fceed41d50579de7bd95cfdf659523d724a7efa3408c7ef75c46&skey=@crypt_49509d7f_4e6af99d540755db4bb3faeaf14e71f4
p916
sVUin
p917
I0
sVStarFriend
p918
I0
sVStatues
p919
I1
stp920
Rp921
I1
bag34
(g873
g39
(dp922
VUserName
p923
V@@0e91b1a5e0ae2042d3719d1459ecaae8a1cbfd52b763a719858421fde099cd6d
p924
sVCity
p925
g52
sVDisplayName
p926
g52
sVUniFriend
p927
I0
sg880
g34
(g38
g39
(dp928
g41
g31
sg42
g43
sg44
g43
sg45
I0
sg46
I0
sg47
g34
(g35
g36
(lp929
tp930
Rp931
I1
bsg51
g52
sg53
g52
sg54
I200509586
sg55
I0
sg56
I0
sg57
g43
sg58
g43
sg59
g52
sg60
g52
sg61
I0
sg62
I0
sg63
I1
sg64
g43
sg65
I0
sg66
I0
sg67
I0
sg68
I0
sg69
g43
sg70
g52
sg71
I0
sg72
g73
sg74
g52
sg75
g76
sg77
I1
sg78
I0
sg79
I0
stp932
Rp933
I1
bsVMemberList
p934
g34
(g35
g36
(lp935
tp936
Rp937
I1
bsVPYQuanPin
p938
g52
sVRemarkPYInitial
p939
g52
sVSex
p940
I0
sVAppAccountFlag
p941
I0
sVVerifyFlag
p942
I0
sVProvince
p943
g52
sVKeyWord
p944
g52
sVRemarkName
p945
g52
sVPYInitial
p946
g52
sVIsOwner
p947
I0
sVChatRoomId
p948
I0
sVHideInputBarFlag
p949
I0
sVEncryChatRoomId
p950
g52
sVAttrStatus
p951
I0
sVSnsFlag
p952
I0
sVMemberCount
p953
I499
sVOwnerUin
p954
I0
sVAlias
p955
g52
sg909
NsVSignature
p956
g52
sVContactFlag
p957
I2
sVNickName
p958
VRedis\u6280\u672f\u4ea4\u6d41\u7fa4
p959
sVRemarkPYQuanPin
p960
g52
sVHeadImgUrl
p961
V/cgi-bin/mmwebwx-bin/webwxgetheadimg?seq=673724770&username=@@0e91b1a5e0ae2042d3719d1459ecaae8a1cbfd52b763a719858421fde099cd6d&skey=@crypt_49509d7f_4e6af99d540755db4bb3faeaf14e71f4
p962
sVUin
p963
I0
sVStarFriend
p964
I0
sVStatues
p965
I1
stp966
Rp967
I1
batp968
Rp969
I1
bsS'nickName'
p970
g73
sS'mpList'
p971
g34
(g35
g36
(lp972
g34
(citchat.storage.templates
MassivePlatform
p973
g39
(dp974
VUserName
p975
V@d26dab3ce949fe16837ff0b6822bbd2d
p976
sVCity
p977
V\u6df1\u5733
p978
sVSnsFlag
p979
I0
sVDisplayName
p980
g52
sVUniFriend
p981
I0
sVMemberCount
p982
I0
sVOwnerUin
p983
I0
sVMemberList
p984
g50
sVAlias
p985
g52
sVPYQuanPin
p986
Vfengchaozhinenggui
p987
sVSignature
p988
V\u5173\u6ce8\u4e30\u5de2\u670d\u52a1\u53f7\uff0c\u7b2c\u4e00\u65f6\u95f4\u63a5\u6536\u60a8\u7684\u5feb\u4ef6\u7269\u6d41\u63d0\u9192\uff01\u63d0\u4f9b24\u5c0f\u65f6\u81ea\u52a9\u5bc4\u5feb\u9012\u3001\u7535\u5546\u8d2d\u7269\u3001\u6682\u5b58\u7269\u54c1\u3001\u5a92\u4f53\u4e92\u52a8\u7b49\u4e00\u7ad9\u5f0f\u751f\u6d3b\u670d\u52a1\uff0c\u8ba9\u751f\u6d3b\u66f4\u7b80\u5355\uff01
p989
sVRemarkPYInitial
p990
g52
sVContactFlag
p991
I3
sVUin
p992
I0
sVNickName
p993
V\u4e30\u5de2\u667a\u80fd\u67dc
p994
sVAppAccountFlag
p995
I0
sVVerifyFlag
p996
I24
sVRemarkPYQuanPin
p997
g52
sVHeadImgUrl
p998
V/cgi-bin/mmwebwx-bin/webwxgeticon?seq=673711737&username=@d26dab3ce949fe16837ff0b6822bbd2d&skey=@crypt_49509d7f_4e6af99d540755db4bb3faeaf14e71f4
p999
sVKeyWord
p1000
Vgh_
p1001
sVProvince
p1002
V\u5e7f\u4e1c
p1003
sVPYInitial
p1004
VFCZNG
p1005
sVRemarkName
p1006
g52
sVIsOwner
p1007
I0
sVSex
p1008
I0
sVStarFriend
p1009
I0
sVHideInputBarFlag
p1010
I0
sVChatRoomId
p1011
I0
sVEncryChatRoomId
p1012
g52
sVAttrStatus
p1013
I0
sVStatues
p1014
I0
stp1015
Rp1016
I1
bag34
(g973
g39
(dp1017
VUserName
p1018
V@e2fd4c952543c36155138a5dbd3ed437
p1019
sVCity
p1020
V\u5e7f\u5dde
p1021
sVSnsFlag
p1022
I0
sVDisplayName
p1023
g52
sVUniFriend
p1024
I0
sVMemberCount
p1025
I0
sVOwnerUin
p1026
I0
sVMemberList
p1027
g50
sVAlias
p1028
g52
sVPYQuanPin
p1029
Vyikushaonv
p1030
sVSignature
p1031
V\u5173\u6ce8\u4e0d\u4e86\uff1f \u8bf7\u641c\u7d22\u5173\u6ce8\uff1a\u5947\u8da3\u62a5\u793e\u65b0\u53f7
p1032
sVRemarkPYInitial
p1033
g52
sVContactFlag
p1034
I3
sVUin
p1035
I0
sVNickName
p1036
V\u4e00\u5e93\u5c11\u5973
p1037
sVAppAccountFlag
p1038
I0
sVVerifyFlag
p1039
I8
sVRemarkPYQuanPin
p1040
g52
sVHeadImgUrl
p1041
V/cgi-bin/mmwebwx-bin/webwxgeticon?seq=673712037&username=@e2fd4c952543c36155138a5dbd3ed437&skey=@crypt_49509d7f_4e6af99d540755db4bb3faeaf14e71f4
p1042
sVKeyWord
p1043
Vgh_
p1044
sVProvince
p1045
V\u5e7f\u4e1c
p1046
sVPYInitial
p1047
VYKSN
p1048
sVRemarkName
p1049
g52
sVIsOwner
p1050
I0
sVSex
p1051
I0
sVStarFriend
p1052
I0
sVHideInputBarFlag
p1053
I0
sVChatRoomId
p1054
I0
sVEncryChatRoomId
p1055
g52
sVAttrStatus
p1056
I0
sVStatues
p1057
I0
stp1058
Rp1059
I1
bag34
(g973
g39
(dp1060
VUserName
p1061
V@2ef8e0e85c263ae516c9ad723926dc86
p1062
sVCity
p1063
V\u6df1\u5733
p1064
sVSnsFlag
p1065
I0
sVDisplayName
p1066
g52
sVUniFriend
p1067
I0
sVMemberCount
p1068
I0
sVOwnerUin
p1069
I0
sVMemberList
p1070
g50
sVAlias
p1071
g52
sVPYQuanPin
p1072
Vqiyueyingku
p1073
sVSignature
p1074
V\u56e0\u4e3a\u7231\u7535\u5f71\uff0c\u6240\u4ee5\u4e0d\u5bc2\u5bde\u3002
p1075
sVRemarkPYInitial
p1076
g52
sVContactFlag
p1077
I3
sVUin
p1078
I0
sVNickName
p1079
V\u4e03\u6708\u5f71\u5e93
p1080
sVAppAccountFlag
p1081
I0
sVVerifyFlag
p1082
I24
sVRemarkPYQuanPin
p1083
g52
sVHeadImgUrl
p1084
V/cgi-bin/mmwebwx-bin/webwxgeticon?seq=673715022&username=@2ef8e0e85c263ae516c9ad723926dc86&skey=@crypt_49509d7f_4e6af99d540755db4bb3faeaf14e71f4
p1085
sVKeyWord
p1086
Vgh_
p1087
sVProvince
p1088
V\u5e7f\u4e1c
p1089
sVPYInitial
p1090
VQYYK
p1091
sVRemarkName
p1092
g52
sVIsOwner
p1093
I0
sVSex
p1094
I0
sVStarFriend
p1095
I0
sVHideInputBarFlag
p1096
I0
sVChatRoomId
p1097
I0
sVEncryChatRoomId
p1098
g52
sVAttrStatus
p1099
I0
sVStatues
p1100
I0
stp1101
Rp1102
I1
bag34
(g973
g39
(dp1103
VUserName
p1104
V@a33aedac344f5a736a2f9afec96c9452
p1105
sVCity
p1106
V\u9752\u6d66
p1107
sVSnsFlag
p1108
I0
sVDisplayName
p1109
g52
sVUniFriend
p1110
I0
sVMemberCount
p1111
I0
sVOwnerUin
p1112
I0
sVMemberList
p1113
g50
sVAlias
p1114
g52
sVPYQuanPin
p1115
Vdebangkuaidi
p1116
sVSignature
p1117
V\u5173\u6ce8\u7acb\u4eab25\u5143\u5bc4\u4ef6\u4f18\u60e0\u5927\u793c\u5305\uff0c\u5b9e\u65f6\u83b7\u53d6\u8d27\u7269\u52a8\u6001\u3002
p1118
sVRemarkPYInitial
p1119
g52
sVContactFlag
p1120
I3
sVUin
p1121
I0
sVNickName
p1122
V\u5fb7\u90a6\u5feb\u9012
p1123
sVAppAccountFlag
p1124
I0
sVVerifyFlag
p1125
I24
sVRemarkPYQuanPin
p1126
g52
sVHeadImgUrl
p1127
V/cgi-bin/mmwebwx-bin/webwxgeticon?seq=673716437&username=@a33aedac344f5a736a2f9afec96c9452&skey=@crypt_49509d7f_4e6af99d540755db4bb3faeaf14e71f4
p1128
sVKeyWord
p1129
Vgh_
p1130
sVProvince
p1131
V\u4e0a\u6d77
p1132
sVPYInitial
p1133
VDBKD
p1134
sVRemarkName
p1135
g52
sVIsOwner
p1136
I0
sVSex
p1137
I0
sVStarFriend
p1138
I0
sVHideInputBarFlag
p1139
I0
sVChatRoomId
p1140
I0
sVEncryChatRoomId
p1141
g52
sVAttrStatus
p1142
I0
sVStatues
p1143
I0
stp1144
Rp1145
I1
bag34
(g973
g39
(dp1146
VUserName
p1147
V@06b1da525ea7bae961ce444fc744bc14
p1148
sVCity
p1149
V\u6df1\u5733
p1150
sVSnsFlag
p1151
I0
sVDisplayName
p1152
g52
sVUniFriend
p1153
I0
sVMemberCount
p1154
I0
sVOwnerUin
p1155
I0
sVMemberList
p1156
g50
sVAlias
p1157
g52
sVPYQuanPin
p1158
Vshunfengsuyun
p1159
sVSignature
p1160
V\u6700\u4fbf\u6377\u7684\u987a\u4e30\u901f\u8fd0\u81ea\u52a9\u670d\u52a1\u5e73\u53f0\u3002\u4e0b\u5355\u5bc4\u4ef6\uff0c \u53ca\u65f6\u8ffd\u8e2a\u5feb\u4ef6\u72b6\u6001\uff0c\u4e3b\u52a8\u63a8\u9001\u8def\u7531\u4fe1\u606f\uff0c\u540c\u65f6\u8ba2\u5355\u7ba1\u7406\u3001\u5730\u5740\u7c3f\u7ba1\u7406\u8ba9\u60a8\u653e\u5fc3\u3001\u8212\u5fc3\u3002\u6211\u4eec\u4e00\u76f4\u5728\u52aa\u529b\uff01
p1161
sVRemarkPYInitial
p1162
g52
sVContactFlag
p1163
I3
sVUin
p1164
I0
sVNickName
p1165
V\u987a\u4e30\u901f\u8fd0
p1166
sVAppAccountFlag
p1167
I0
sVVerifyFlag
p1168
I24
sVRemarkPYQuanPin
p1169
g52
sVHeadImgUrl
p1170
V/cgi-bin/mmwebwx-bin/webwxgeticon?seq=673719418&username=@06b1da525ea7bae961ce444fc744bc14&skey=@crypt_49509d7f_4e6af99d540755db4bb3faeaf14e71f4
p1171
sVKeyWord
p1172
Vgh_
p1173
sVProvince
p1174
V\u5e7f\u4e1c
p1175
sVPYInitial
p1176
VSFSY
p1177
sVRemarkName
p1178
g52
sVIsOwner
p1179
I0
sVSex
p1180
I0
sVStarFriend
p1181
I0
sVHideInputBarFlag
p1182
I0
sVChatRoomId
p1183
I0
sVEncryChatRoomId
p1184
g52
sVAttrStatus
p1185
I0
sVStatues
p1186
I0
stp1187
Rp1188
I1
bag34
(g973
g39
(dp1189
VUserName
p1190
V@aac4d757566df4dd9b6f408791e05a80
p1191
sVCity
p1192
V\u6d4e\u5357
p1193
sVSnsFlag
p1194
I0
sVDisplayName
p1195
g52
sVUniFriend
p1196
I0
sVMemberCount
p1197
I0
sVOwnerUin
p1198
I0
sVMemberList
p1199
g50
sVAlias
p1200
g52
sVPYQuanPin
p1201
Vbaigehuidi
p1202
sVSignature
p1203
V\u767d\u9e3d\u60e0\u9012\u4e3a\u5feb\u9012\u7269\u6d41\u4e1a\u52a1\u7684\u7f51\u4e0a\u4e0b\u5355\u5e73\u53f0\u3002\u4e0e\u4e2d\u90ae\u3001\u987a\u4e30\u3001\u5fb7\u90a6\u3001\u5706\u901a\u3001\u5b85\u6025\u9001\u7b49\u4e00\u7ebf\u901f\u8fd0\u4f01\u4e1a\u5f62\u6210\u5168\u56fd\u5408\u4f5c\u9635\u8425\u3002\u7528\u6237\u53ef\u5728\u7ebf\u5bf9\u6bd4\u4e0b\u5355\uff0c\u4eab\u53d7\u5e73\u53f0\u8865\u8d34\u3002\u4e0b\u5355\u540e\u5ba2\u6237\u9759\u5f85\u5feb\u9012\u5458\u63fd\u4ef6\u3002
p1204
sVRemarkPYInitial
p1205
g52
sVContactFlag
p1206
I3
sVUin
p1207
I0
sVNickName
p1208
V\u767d\u9e3d\u60e0\u9012
p1209
sVAppAccountFlag
p1210
I0
sVVerifyFlag
p1211
I24
sVRemarkPYQuanPin
p1212
g52
sVHeadImgUrl
p1213
V/cgi-bin/mmwebwx-bin/webwxgeticon?seq=673719895&username=@aac4d757566df4dd9b6f408791e05a80&skey=@crypt_49509d7f_4e6af99d540755db4bb3faeaf14e71f4
p1214
sVKeyWord
p1215
Vgh_
p1216
sVProvince
p1217
V\u5c71\u4e1c
p1218
sVPYInitial
p1219
VBGHD
p1220
sVRemarkName
p1221
g52
sVIsOwner
p1222
I0
sVSex
p1223
I0
sVStarFriend
p1224
I0
sVHideInputBarFlag
p1225
I0
sVChatRoomId
p1226
I0
sVEncryChatRoomId
p1227
g52
sVAttrStatus
p1228
I0
sVStatues
p1229
I0
stp1230
Rp1231
I1
batp1232
Rp1233
I1
bssS'loginInfo'
p1234
(dp1235
S'SyncKey'
p1236
(dp1237
VCount
p1238
I4
sVList
p1239
(lp1240
(dp1241
VVal
p1242
I673724727
sVKey
p1243
I1
sa(dp1244
VVal
p1245
I673724799
sVKey
p1246
I2
sa(dp1247
VVal
p1248
I673724641
sVKey
p1249
I3
sa(dp1250
VVal
p1251
I1565939402
sVKey
p1252
I1000
sassS'syncUrl'
p1253
S'https://webpush.wx2.qq.com/cgi-bin/mmwebwx-bin'
p1254
sS'skey'
p1255
V@crypt_49509d7f_4e6af99d540755db4bb3faeaf14e71f4
p1256
sS'wxuin'
p1257
V200509586
p1258
sS'synckey'
p1259
S'1_673724727|2_673724799|3_673724641|1000_1565939402'
p1260
sS'url'
p1261
Vhttps://wx2.qq.com/cgi-bin/mmwebwx-bin
p1262
sS'pass_ticket'
p1263
VYbQher%2FL5IaDcU3FY2APcJ0bizrnbaCBcjM7pKBxN1k%3D
p1264
sS'wxsid'
p1265
VVSwNfwBHk4LwmVm1
p1266
sS'InviteStartCount'
p1267
I40
sS'deviceid'
p1268
S'e348245724075433'
p1269
sS'fileUrl'
p1270
S'https://file.wx2.qq.com/cgi-bin/mmwebwx-bin'
p1271
sS'BaseRequest'
p1272
(dp1273
g54
g1258
sS'Skey'
p1274
g1256
sS'DeviceID'
p1275
g1264
sS'Sid'
p1276
g1266
ssS'User'
p1277
g34
(g38
g39
(dp1278
g41
g31
sg42
g43
sg44
g43
sg45
I0
sg47
g50
sg51
g52
sg53
g52
sg77
I1
sg55
I0
sg56
I0
sg57
g43
sg58
g43
sg59
g52
sg60
g52
sg61
I0
sg62
I0
sg63
I1
sg64
g43
sg65
I0
sg68
I0
sg66
I0
sg67
I0
sg46
I0
sg69
g43
sg70
g52
sg71
I0
sg72
g73
sg74
g52
sg75
g76
sg54
I200509586
sg78
I0
sg79
I0
stp1279
Rp1280
I1
bss.