(dp0
S'cookies'
p1
(dp2
S'wxloadtime'
p3
S'1577887504'
p4
sS'webwx_data_ticket'
p5
S'gSc9qAxsq89k5Z+L7LlsKQYi'
p6
sS'wxuin'
p7
S'200509586'
p8
sS'login_frequency'
p9
S'2'
p10
sS'MM_WX_NOTIFY_STATE'
p11
S'1'
p12
sS'MM_WX_SOUND_STATE'
p13
g12
sS'webwx_auth_ticket'
p14
S'CIsBEOuI57YOGoABxmd5GYFW8dy+CFVEWjjAuz7MHdMpRbuiaUJTvWLXFTGvYbvCnJ0rdLTKU41hjVG13wVb1VLL6xxqiq9rwd8YpJ5UJvpc934xBYuR1TwoWP3HIsWZFaJBMcG1CQEClVlX0oNJSFgCIC59P2/a/zxpIRLnKEQX8AazuUYyxifdxHw='
p15
sS'last_wxuin'
p16
S'200509586'
p17
sS'webwxuvid'
p18
S'10e3aeb592b2a80b70add45fa14c3381c71632adf2b57e4b7bfa73827f643d36887cf848b3f8bab7d12b941920a6b1f4'
p19
sS'wxpluginkey'
p20
S'1577756435_expired'
p21
sS'wxsid'
p22
S'ttBdPgaND3jX0CUn'
p23
sS'mm_lang'
p24
S'zh_CN'
p25
ssS'version'
p26
S'1.3.10'
p27
sS'storage'
p28
(dp29
S'userName'
p30
V@bc43eccdab9f96c1c49209e2d746b0f6d4caa971c4898f7e69d8fd4600c7ffe8
p31
sS'lastInputUserName'
p32
NsS'memberList'
p33
ccopy_reg
_reconstructor
p34
(citchat.storage.templates
ContactList
p35
c__builtin__
list
p36
(lp37
g34
(citchat.storage.templates
User
p38
c__builtin__
dict
p39
(dp40
S'UserName'
p41
g31
sS'City'
p42
S''
p43
sS'DisplayName'
p44
g43
sS'UniFriend'
p45
I0
sS'OwnerUin'
p46
I0
sS'MemberList'
p47
g34
(g35
g36
(lp48
tp49
Rp50
I1
bsS'PYQuanPin'
p51
V
p52
sS'RemarkPYInitial'
p53
g52
sS'Uin'
p54
I200509586
sS'AppAccountFlag'
p55
I0
sS'VerifyFlag'
p56
I0
sS'Province'
p57
g43
sS'KeyWord'
p58
g43
sS'RemarkName'
p59
g52
sS'PYInitial'
p60
g52
sS'ChatRoomId'
p61
I0
sS'HideInputBarFlag'
p62
I0
sVHeadImgFlag
p63
I1
sS'EncryChatRoomId'
p64
g43
sS'AttrStatus'
p65
I0
sS'SnsFlag'
p66
I0
sS'MemberCount'
p67
I0
sVWebWxPluginSwitch
p68
I0
sS'Alias'
p69
g43
sS'Signature'
p70
g52
sS'ContactFlag'
p71
I0
sS'NickName'
p72
V\u673a\u5668\u4eba\u5c0f\u80d6
p73
sS'RemarkPYQuanPin'
p74
g52
sS'HeadImgUrl'
p75
V/cgi-bin/mmwebwx-bin/webwxgeticon?seq=2084065122&username=@bc43eccdab9f96c1c49209e2d746b0f6d4caa971c4898f7e69d8fd4600c7ffe8&skey=@crypt_49509d7f_d800c1243301c7b0b2ebaa5af0f58f4e
p76
sS'Sex'
p77
I1
sS'StarFriend'
p78
I0
sS'Statues'
p79
I0
stp80
Rp81
I1
bag34
(g38
g39
(dp82
VUserName
p83
V@5213a848b18fb0d6b90e5bc0ada8f8aa5371c96db5c46dc439bf3b5527357db5
p84
sVCity
p85
g52
sVSnsFlag
p86
I1
sVDisplayName
p87
g52
sVUniFriend
p88
I0
sVMemberCount
p89
I0
sVOwnerUin
p90
I0
sVMemberList
p91
g50
sVAlias
p92
g52
sVPYQuanPin
p93
Vchuanguoliushui
p94
sVSignature
p95
V\u53ea\u4e3a\u4e00\u4eba\u7559
p96
sVRemarkPYInitial
p97
g52
sVContactFlag
p98
I1
sVUin
p99
I0
sVNickName
p100
V\u7a7f\u8fc7\u6d41\u6c34
p101
sVAppAccountFlag
p102
I0
sVVerifyFlag
p103
I0
sVRemarkPYQuanPin
p104
g52
sVHeadImgUrl
p105
V/cgi-bin/mmwebwx-bin/webwxgeticon?seq=673714836&username=@5213a848b18fb0d6b90e5bc0ada8f8aa5371c96db5c46dc439bf3b5527357db5&skey=@crypt_49509d7f_d800c1243301c7b0b2ebaa5af0f58f4e
p106
sVKeyWord
p107
g52
sVProvince
p108
VKowloon City
p109
sVPYInitial
p110
VCGLS
p111
sVRemarkName
p112
g52
sVIsOwner
p113
I0
sVSex
p114
I1
sVStarFriend
p115
I0
sVHideInputBarFlag
p116
I0
sVChatRoomId
p117
I0
sVEncryChatRoomId
p118
g52
sVAttrStatus
p119
I33689893
sVStatues
p120
I0
stp121
Rp122
I1
bag34
(g38
g39
(dp123
VUserName
p124
V@b7617de3078fe952f009b9ca5abbaf2388afd0a057c0de0288f45c70025cf873
p125
sVCity
p126
g52
sVSnsFlag
p127
I1
sVDisplayName
p128
g52
sVUniFriend
p129
I0
sVMemberCount
p130
I0
sVOwnerUin
p131
I0
sVMemberList
p132
g50
sVAlias
p133
g52
sVPYQuanPin
p134
VAkuaidiyouhuiquanbudingjigengxin
p135
sVSignature
p136
V\u963f\u8fea\u8fbe\u65af\u7ae5\u88c5  \u65ad\u7801\u7279\u4ef7
p137
sVRemarkPYInitial
p138
g52
sVContactFlag
p139
I3
sVUin
p140
I0
sVNickName
p141
VA\u5feb\u9012\u4f18\u60e0\u5238 \u4e0d\u5b9a\u671f\u66f4\u65b0
p142
sVAppAccountFlag
p143
I0
sVVerifyFlag
p144
I0
sVRemarkPYQuanPin
p145
g52
sVHeadImgUrl
p146
V/cgi-bin/mmwebwx-bin/webwxgeticon?seq=673716439&username=@b7617de3078fe952f009b9ca5abbaf2388afd0a057c0de0288f45c70025cf873&skey=@crypt_49509d7f_d800c1243301c7b0b2ebaa5af0f58f4e
p147
sVKeyWord
p148
g52
sVProvince
p149
g52
sVPYInitial
p150
VAKDYHQBDJGX
p151
sVRemarkName
p152
g52
sVIsOwner
p153
I0
sVSex
p154
I1
sVStarFriend
p155
I0
sVHideInputBarFlag
p156
I0
sVChatRoomId
p157
I0
sVEncryChatRoomId
p158
g52
sVAttrStatus
p159
I135201
sVStatues
p160
I0
stp161
Rp162
I1
bag34
(g38
g39
(dp163
VUserName
p164
V@6e209ab37617940b7185f7e2db3ff193ef18feb44163b108a9ec699a92824321
p165
sVCity
p166
g52
sVSnsFlag
p167
I1
sVDisplayName
p168
g52
sVUniFriend
p169
I0
sVMemberCount
p170
I0
sVOwnerUin
p171
I0
sVMemberList
p172
g50
sVAlias
p173
g52
sVPYQuanPin
p174
Vbanjialvyou
p175
sVSignature
p176
g52
sVRemarkPYInitial
p177
g52
sVContactFlag
p178
I3
sVUin
p179
I0
sVNickName
p180
V\u534a\u4ef7\u65c5\u6e38
p181
sVAppAccountFlag
p182
I0
sVVerifyFlag
p183
I0
sVRemarkPYQuanPin
p184
g52
sVHeadImgUrl
p185
V/cgi-bin/mmwebwx-bin/webwxgeticon?seq=673722419&username=@6e209ab37617940b7185f7e2db3ff193ef18feb44163b108a9ec699a92824321&skey=@crypt_49509d7f_d800c1243301c7b0b2ebaa5af0f58f4e
p186
sVKeyWord
p187
g52
sVProvince
p188
g52
sVPYInitial
p189
VBJLY
p190
sVRemarkName
p191
g52
sVIsOwner
p192
I0
sVSex
p193
I0
sVStarFriend
p194
I0
sVHideInputBarFlag
p195
I0
sVChatRoomId
p196
I0
sVEncryChatRoomId
p197
g52
sVAttrStatus
p198
I135269
sVStatues
p199
I0
stp200
Rp201
I1
bag34
(g38
g39
(dp202
VUserName
p203
V@5e9d0f6862a527da94934fddd4c25e44
p204
sVCity
p205
V\u4e1c\u57ce
p206
sVSnsFlag
p207
I17
sVDisplayName
p208
g52
sVUniFriend
p209
I0
sVMemberCount
p210
I0
sVOwnerUin
p211
I0
sVMemberList
p212
g50
sVAlias
p213
g52
sVPYQuanPin
p214
Vpengcheng
p215
sVSignature
p216
V\u672a\u6765\u4e0d\u8fce\uff0c\u5f53\u65f6\u4e0d\u6742\uff0c\u8fc7\u5f80\u4e0d\u604b
p217
sVRemarkPYInitial
p218
g52
sVContactFlag
p219
I3
sVUin
p220
I0
sVNickName
p221
V\u9e4f\u7a0b
p222
sVAppAccountFlag
p223
I0
sVVerifyFlag
p224
I0
sVRemarkPYQuanPin
p225
g52
sVHeadImgUrl
p226
V/cgi-bin/mmwebwx-bin/webwxgeticon?seq=669180196&username=@5e9d0f6862a527da94934fddd4c25e44&skey=@crypt_49509d7f_d800c1243301c7b0b2ebaa5af0f58f4e
p227
sVKeyWord
p228
Vwar
p229
sVProvince
p230
V\u5317\u4eac
p231
sVPYInitial
p232
VPC
p233
sVRemarkName
p234
g52
sVIsOwner
p235
I0
sVSex
p236
I1
sVStarFriend
p237
I0
sVHideInputBarFlag
p238
I0
sVChatRoomId
p239
I0
sVEncryChatRoomId
p240
g52
sVAttrStatus
p241
I33789415
sVStatues
p242
I0
stp243
Rp244
I1
bag34
(g38
g39
(dp245
VUserName
p246
V@557e0d7e7ae691417cdff1a27cbeb6965a11f6aa5ad65ac9586d2e6813817a2c
p247
sVCity
p248
g52
sVSnsFlag
p249
I1
sVDisplayName
p250
g52
sVUniFriend
p251
I0
sVMemberCount
p252
I0
sVOwnerUin
p253
I0
sVMemberList
p254
g50
sVAlias
p255
g52
sVPYQuanPin
p256
VMolly
p257
sVSignature
p258
V\u5c3d\u4eba\u4e8b\u542c\u5929\u610f\uff01
p259
sVRemarkPYInitial
p260
g52
sVContactFlag
p261
I1
sVUin
p262
I0
sVNickName
p263
VMolly
p264
sVAppAccountFlag
p265
I0
sVVerifyFlag
p266
I0
sVRemarkPYQuanPin
p267
g52
sVHeadImgUrl
p268
V/cgi-bin/mmwebwx-bin/webwxgeticon?seq=673715616&username=@557e0d7e7ae691417cdff1a27cbeb6965a11f6aa5ad65ac9586d2e6813817a2c&skey=@crypt_49509d7f_d800c1243301c7b0b2ebaa5af0f58f4e
p269
sVKeyWord
p270
g52
sVProvince
p271
g52
sVPYInitial
p272
VMOLLY
p273
sVRemarkName
p274
g52
sVIsOwner
p275
I0
sVSex
p276
I2
sVStarFriend
p277
I0
sVHideInputBarFlag
p278
I0
sVChatRoomId
p279
I0
sVEncryChatRoomId
p280
g52
sVAttrStatus
p281
I234083
sVStatues
p282
I0
stp283
Rp284
I1
bag34
(g38
g39
(dp285
VUserName
p286
V@58a6518ac7cf3287ff5ba30141522dbe5ed9765c81fbe71479ee455c3f536542
p287
sVCity
p288
V\u5305\u5934
p289
sVSnsFlag
p290
I1
sVDisplayName
p291
g52
sVUniFriend
p292
I0
sVMemberCount
p293
I0
sVOwnerUin
p294
I0
sVMemberList
p295
g50
sVAlias
p296
g52
sVPYQuanPin
p297
Vxiaoqing
p298
sVSignature
p299
g52
sVRemarkPYInitial
p300
g52
sVContactFlag
p301
I1
sVUin
p302
I0
sVNickName
p303
V\u5c0f\u9752
p304
sVAppAccountFlag
p305
I0
sVVerifyFlag
p306
I0
sVRemarkPYQuanPin
p307
g52
sVHeadImgUrl
p308
V/cgi-bin/mmwebwx-bin/webwxgeticon?seq=673718930&username=@58a6518ac7cf3287ff5ba30141522dbe5ed9765c81fbe71479ee455c3f536542&skey=@crypt_49509d7f_d800c1243301c7b0b2ebaa5af0f58f4e
p309
sVKeyWord
p310
g52
sVProvince
p311
V\u5185\u8499\u53e4
p312
sVPYInitial
p313
VXQ
p314
sVRemarkName
p315
g52
sVIsOwner
p316
I0
sVSex
p317
I1
sVStarFriend
p318
I0
sVHideInputBarFlag
p319
I0
sVChatRoomId
p320
I0
sVEncryChatRoomId
p321
g52
sVAttrStatus
p322
I234109
sVStatues
p323
I0
stp324
Rp325
I1
bag34
(g38
g39
(dp326
VUserName
p327
V@fe30ca1a4427d1683a63c428439d6529458d5b8cf135e94b986a8f3cfd71d46b
p328
sVCity
p329
V\u90af\u90f8
p330
sVSnsFlag
p331
I1
sVDisplayName
p332
g52
sVUniFriend
p333
I0
sVMemberCount
p334
I0
sVOwnerUin
p335
I0
sVMemberList
p336
g50
sVAlias
p337
g52
sVPYQuanPin
p338
Vningbeisenwu
p339
sVSignature
p340
V\u5b87\u5b87\u4e0d\u6536\u4e8c\u624b\u5783\u573e\u3002
p341
sVRemarkPYInitial
p342
g52
sVContactFlag
p343
I1
sVUin
p344
I0
sVNickName
p345
V\u67e0\u5317\u68ee\u5c4b\u3002
p346
sVAppAccountFlag
p347
I0
sVVerifyFlag
p348
I0
sVRemarkPYQuanPin
p349
g52
sVHeadImgUrl
p350
V/cgi-bin/mmwebwx-bin/webwxgeticon?seq=673721821&username=@fe30ca1a4427d1683a63c428439d6529458d5b8cf135e94b986a8f3cfd71d46b&skey=@crypt_49509d7f_d800c1243301c7b0b2ebaa5af0f58f4e
p351
sVKeyWord
p352
g52
sVProvince
p353
V\u6cb3\u5317
p354
sVPYInitial
p355
VNBSW
p356
sVRemarkName
p357
g52
sVIsOwner
p358
I0
sVSex
p359
I2
sVStarFriend
p360
I0
sVHideInputBarFlag
p361
I0
sVChatRoomId
p362
I0
sVEncryChatRoomId
p363
g52
sVAttrStatus
p364
I102945
sVStatues
p365
I0
stp366
Rp367
I1
bag34
(g38
g39
(dp368
VUserName
p369
V@ff90545c26bf5d441d7667ff3eb6a55c
p370
sVCity
p371
g52
sVSnsFlag
p372
I17
sVDisplayName
p373
g52
sVUniFriend
p374
I0
sVMemberCount
p375
I0
sVOwnerUin
p376
I0
sVMemberList
p377
g50
sVAlias
p378
g52
sVPYQuanPin
p379
VCXY
p380
sVSignature
p381
V\u7b49\u98ce\u4e5f\u7b49\u4f60\u3002
p382
sVRemarkPYInitial
p383
VXYKTX
p384
sVContactFlag
p385
I1
sVUin
p386
I0
sVNickName
p387
V-C_XY-
p388
sVAppAccountFlag
p389
I0
sVVerifyFlag
p390
I0
sVRemarkPYQuanPin
p391
Vxinyongkataoxian
p392
sVHeadImgUrl
p393
V/cgi-bin/mmwebwx-bin/webwxgeticon?seq=673710066&username=@ff90545c26bf5d441d7667ff3eb6a55c&skey=@crypt_49509d7f_d800c1243301c7b0b2ebaa5af0f58f4e
p394
sVKeyWord
p395
Vwux
p396
sVProvince
p397
g52
sVPYInitial
p398
VCXY
p399
sVRemarkName
p400
V\u4fe1\u7528\u5361\u5957\u73b0
p401
sVIsOwner
p402
I0
sVSex
p403
I2
sVStarFriend
p404
I0
sVHideInputBarFlag
p405
I0
sVChatRoomId
p406
I0
sVEncryChatRoomId
p407
g52
sVAttrStatus
p408
I111719
sVStatues
p409
I0
stp410
Rp411
I1
bag34
(g38
g39
(dp412
VUserName
p413
V@b9c4a71abe6375798ec9762423254dc8726285445a67a269f34c15f39e05ea1c
p414
sVCity
p415
VMelaka
p416
sVSnsFlag
p417
I1
sVDisplayName
p418
g52
sVUniFriend
p419
I0
sVMemberCount
p420
I0
sVOwnerUin
p421
I0
sVMemberList
p422
g50
sVAlias
p423
g52
sVPYQuanPin
p424
VAbbyspanclassemojiemoji1f495spanLee
p425
sVSignature
p426
V\u5982\u82e5\u4f60\u80fd\u501f\u6211\u62e5\u62b1\u4e88\u6211\u6e29\u6696\uff0c\u6211\u613f\u8fd8\u4f60\u4e00\u4e16\u966a\u4f34<span class="emoji emoji1f493"></span><span class="emoji emoji1f493"></span>
p427
sVRemarkPYInitial
p428
g52
sVContactFlag
p429
I1
sVUin
p430
I0
sVNickName
p431
VAbby\U0001f495Lee
p432
sVAppAccountFlag
p433
I0
sVVerifyFlag
p434
I0
sVRemarkPYQuanPin
p435
g52
sVHeadImgUrl
p436
V/cgi-bin/mmwebwx-bin/webwxgeticon?seq=673727218&username=@b9c4a71abe6375798ec9762423254dc8726285445a67a269f34c15f39e05ea1c&skey=@crypt_49509d7f_d800c1243301c7b0b2ebaa5af0f58f4e
p437
sVKeyWord
p438
g52
sVProvince
p439
VMalacca
p440
sVPYInitial
p441
VABBYSPANCLASSEMOJIEMOJI1F495SPANLEE
p442
sVRemarkName
p443
g52
sVIsOwner
p444
I0
sVSex
p445
I2
sVStarFriend
p446
I0
sVHideInputBarFlag
p447
I0
sVChatRoomId
p448
I0
sVEncryChatRoomId
p449
g52
sVAttrStatus
p450
I33656865
sVStatues
p451
I0
stp452
Rp453
I1
bag34
(g38
g39
(dp454
VUserName
p455
V@098780777dae05bf0448e199573189596b5ceafc84aaf92c387d83e8805f9546
p456
sVCity
p457
V\u90af\u90f8
p458
sVSnsFlag
p459
I1
sVDisplayName
p460
g52
sVUniFriend
p461
I0
sVMemberCount
p462
I0
sVOwnerUin
p463
I0
sVMemberList
p464
g50
sVAlias
p465
g52
sVPYQuanPin
p466
Vniming
p467
sVSignature
p468
V<span class="emoji emoji1f63a"></span> <span class="emoji emoji1f63a"></span> <span class="emoji emoji1f63a"></span> <span class="emoji emoji1f63a"></span> <span class="emoji emoji1f63a"></span>
p469
sVRemarkPYInitial
p470
g52
sVContactFlag
p471
I1
sVUin
p472
I0
sVNickName
p473
V\u533f\u540d
p474
sVAppAccountFlag
p475
I0
sVVerifyFlag
p476
I0
sVRemarkPYQuanPin
p477
g52
sVHeadImgUrl
p478
V/cgi-bin/mmwebwx-bin/webwxgeticon?seq=673727308&username=@098780777dae05bf0448e199573189596b5ceafc84aaf92c387d83e8805f9546&skey=@crypt_49509d7f_d800c1243301c7b0b2ebaa5af0f58f4e
p479
sVKeyWord
p480
g52
sVProvince
p481
V\u6cb3\u5317
p482
sVPYInitial
p483
VNM
p484
sVRemarkName
p485
g52
sVIsOwner
p486
I0
sVSex
p487
I1
sVStarFriend
p488
I0
sVHideInputBarFlag
p489
I0
sVChatRoomId
p490
I0
sVEncryChatRoomId
p491
g52
sVAttrStatus
p492
I33657021
sVStatues
p493
I0
stp494
Rp495
I1
bag34
(g38
g39
(dp496
VUserName
p497
V@55d4a73bfaea92ed41d05a6c3e69480008728fa777bab7192cc0b5c904c0fca4
p498
sVCity
p499
g52
sVSnsFlag
p500
I1
sVDisplayName
p501
g52
sVUniFriend
p502
I0
sVMemberCount
p503
I0
sVOwnerUin
p504
I0
sVMemberList
p505
g50
sVAlias
p506
g52
sVPYQuanPin
p507
VBellashanspanclassemojiemoji1f48bspan
p508
sVSignature
p509
VYou're the world to me, and dreaming on\U0001f942
p510
sVRemarkPYInitial
p511
g52
sVContactFlag
p512
I1
sVUin
p513
I0
sVNickName
p514
VBella\u73ca\U0001f48b
p515
sVAppAccountFlag
p516
I0
sVVerifyFlag
p517
I0
sVRemarkPYQuanPin
p518
g52
sVHeadImgUrl
p519
V/cgi-bin/mmwebwx-bin/webwxgeticon?seq=673727652&username=@55d4a73bfaea92ed41d05a6c3e69480008728fa777bab7192cc0b5c904c0fca4&skey=@crypt_49509d7f_d800c1243301c7b0b2ebaa5af0f58f4e
p520
sVKeyWord
p521
g52
sVProvince
p522
VTuen Mun
p523
sVPYInitial
p524
VBELLASSPANCLASSEMOJIEMOJI1F48BSPAN
p525
sVRemarkName
p526
g52
sVIsOwner
p527
I0
sVSex
p528
I2
sVStarFriend
p529
I0
sVHideInputBarFlag
p530
I0
sVChatRoomId
p531
I0
sVEncryChatRoomId
p532
g52
sVAttrStatus
p533
I234277
sVStatues
p534
I0
stp535
Rp536
I1
bag34
(g38
g39
(dp537
VUserName
p538
V@ce4c689659531f12d454f6400e08cf52951a38a0a09b05f325f9a4798f141817
p539
sVCity
p540
V\u671d\u9633
p541
sVSnsFlag
p542
I1
sVDisplayName
p543
g52
sVUniFriend
p544
I0
sVMemberCount
p545
I0
sVOwnerUin
p546
I0
sVMemberList
p547
g50
sVAlias
p548
g52
sVPYQuanPin
p549
Vzhishixuexi
p550
sVSignature
p551
V\u5907\u6ce8\u6765\u610f+\u54ea\u91cc\u770b\u5230\u5fae\u4fe1\u53f7\uff0c\u4e0d\u5907\u6ce8\u4e0d\u901a\u8fc7
p552
sVRemarkPYInitial
p553
g52
sVContactFlag
p554
I3
sVUin
p555
I0
sVNickName
p556
V\u77e5\u8bc6\u5b66\u4e60
p557
sVAppAccountFlag
p558
I0
sVVerifyFlag
p559
I0
sVRemarkPYQuanPin
p560
g52
sVHeadImgUrl
p561
V/cgi-bin/mmwebwx-bin/webwxgeticon?seq=673727834&username=@ce4c689659531f12d454f6400e08cf52951a38a0a09b05f325f9a4798f141817&skey=@crypt_49509d7f_d800c1243301c7b0b2ebaa5af0f58f4e
p562
sVKeyWord
p563
g52
sVProvince
p564
V\u5317\u4eac
p565
sVPYInitial
p566
VZSXX
p567
sVRemarkName
p568
g52
sVIsOwner
p569
I0
sVSex
p570
I2
sVStarFriend
p571
I0
sVHideInputBarFlag
p572
I0
sVChatRoomId
p573
I0
sVEncryChatRoomId
p574
g52
sVAttrStatus
p575
I4645
sVStatues
p576
I0
stp577
Rp578
I1
bag34
(g38
g39
(dp579
VUserName
p580
V@93d4b5d197d54658e7982e4805cb03e401e0f2f2558a5d3b2ed21cad6cdc587d
p581
sVCity
p582
g52
sVSnsFlag
p583
I1
sVDisplayName
p584
g52
sVUniFriend
p585
I0
sVMemberCount
p586
I0
sVOwnerUin
p587
I0
sVMemberList
p588
g50
sVAlias
p589
g52
sVPYQuanPin
p590
Vqingchen
p591
sVSignature
p592
V\u5907\u7528\u8054\u7cfb\u65b9\u5f0f\uff0cQQ1094506491
p593
sVRemarkPYInitial
p594
g52
sVContactFlag
p595
I3
sVUin
p596
I0
sVNickName
p597
V\u6e05\u5c18
p598
sVAppAccountFlag
p599
I0
sVVerifyFlag
p600
I0
sVRemarkPYQuanPin
p601
g52
sVHeadImgUrl
p602
V/cgi-bin/mmwebwx-bin/webwxgeticon?seq=673728000&username=@93d4b5d197d54658e7982e4805cb03e401e0f2f2558a5d3b2ed21cad6cdc587d&skey=@crypt_49509d7f_d800c1243301c7b0b2ebaa5af0f58f4e
p603
sVKeyWord
p604
g52
sVProvince
p605
g52
sVPYInitial
p606
VQC
p607
sVRemarkName
p608
g52
sVIsOwner
p609
I0
sVSex
p610
I1
sVStarFriend
p611
I0
sVHideInputBarFlag
p612
I0
sVChatRoomId
p613
I0
sVEncryChatRoomId
p614
g52
sVAttrStatus
p615
I102437
sVStatues
p616
I0
stp617
Rp618
I1
bag34
(g38
g39
(dp619
VUserName
p620
V@9f8b14939e1b9611c1687e3d1d90038dbac13bbc9474a89e9a3b475365ce0ff7
p621
sVCity
p622
g52
sVSnsFlag
p623
I1
sVDisplayName
p624
g52
sVUniFriend
p625
I0
sVMemberCount
p626
I0
sVOwnerUin
p627
I0
sVMemberList
p628
g50
sVAlias
p629
g52
sVPYQuanPin
p630
Vspanclassemojiemoji1f451spanHoiYispanclassemojiemoji1f451span
p631
sVSignature
p632
V\u4eba\u751f\u5efa\u8bae\uff1aKeep it real<span class="emoji emoji2764"></span>\ufe0f\u2003\u2003\u2003\u2003\u2003\u2003\u2003\u2003 \u2003\u05b4\u05b4\u000a\u05b4
p633
sVRemarkPYInitial
p634
g52
sVContactFlag
p635
I1
sVUin
p636
I0
sVNickName
p637
V\U0001f451HoiYi\U0001f451
p638
sVAppAccountFlag
p639
I0
sVVerifyFlag
p640
I0
sVRemarkPYQuanPin
p641
g52
sVHeadImgUrl
p642
V/cgi-bin/mmwebwx-bin/webwxgeticon?seq=673722685&username=@9f8b14939e1b9611c1687e3d1d90038dbac13bbc9474a89e9a3b475365ce0ff7&skey=@crypt_49509d7f_d800c1243301c7b0b2ebaa5af0f58f4e
p643
sVKeyWord
p644
g52
sVProvince
p645
g52
sVPYInitial
p646
VSPANCLASSEMOJIEMOJI1F451SPANHOIYISPANCLASSEMOJIEMOJI1F451SPAN
p647
sVRemarkName
p648
g52
sVIsOwner
p649
I0
sVSex
p650
I0
sVStarFriend
p651
I0
sVHideInputBarFlag
p652
I0
sVChatRoomId
p653
I0
sVEncryChatRoomId
p654
g52
sVAttrStatus
p655
I105253
sVStatues
p656
I0
stp657
Rp658
I1
bag34
(g38
g39
(dp659
VUserName
p660
V@d91287291bca5aac5c159b78af8c3d6c2fc190ba717e6fc8f7b71b6830af9d75
p661
sVCity
p662
g52
sVSnsFlag
p663
I257
sVDisplayName
p664
g52
sVUniFriend
p665
I0
sVMemberCount
p666
I0
sVOwnerUin
p667
I0
sVMemberList
p668
g50
sVAlias
p669
g52
sVPYQuanPin
p670
VKIKI
p671
sVSignature
p672
g52
sVRemarkPYInitial
p673
g52
sVContactFlag
p674
I1
sVUin
p675
I0
sVNickName
p676
VKIKI
p677
sVAppAccountFlag
p678
I0
sVVerifyFlag
p679
I0
sVRemarkPYQuanPin
p680
g52
sVHeadImgUrl
p681
V/cgi-bin/mmwebwx-bin/webwxgeticon?seq=673728477&username=@d91287291bca5aac5c159b78af8c3d6c2fc190ba717e6fc8f7b71b6830af9d75&skey=@crypt_49509d7f_d800c1243301c7b0b2ebaa5af0f58f4e
p682
sVKeyWord
p683
g52
sVProvince
p684
g52
sVPYInitial
p685
VKIKI
p686
sVRemarkName
p687
g52
sVIsOwner
p688
I0
sVSex
p689
I2
sVStarFriend
p690
I0
sVHideInputBarFlag
p691
I0
sVChatRoomId
p692
I0
sVEncryChatRoomId
p693
g52
sVAttrStatus
p694
I104485
sVStatues
p695
I0
stp696
Rp697
I1
bag34
(g38
g39
(dp698
VUserName
p699
V@524a521e61ad306ef0ce201402f25a84fe86870eeb5b4f43e71a9c9b87a46e1b
p700
sVCity
p701
V\u5e7f\u5dde
p702
sVSnsFlag
p703
I1
sVDisplayName
p704
g52
sVUniFriend
p705
I0
sVMemberCount
p706
I0
sVOwnerUin
p707
I0
sVMemberList
p708
g50
sVAlias
p709
g52
sVPYQuanPin
p710
VAzhengshubanli
p711
sVSignature
p712
V\u8d28\u91cf\u4e0e\u8bda\u4fe1\u5e76\u5b58\uff01\u62db\u4ee3\u7406\uff01
p713
sVRemarkPYInitial
p714
g52
sVContactFlag
p715
I3
sVUin
p716
I0
sVNickName
p717
VA\u8bc1\u4e66\u529e\u7406
p718
sVAppAccountFlag
p719
I0
sVVerifyFlag
p720
I0
sVRemarkPYQuanPin
p721
g52
sVHeadImgUrl
p722
V/cgi-bin/mmwebwx-bin/webwxgeticon?seq=673727928&username=@524a521e61ad306ef0ce201402f25a84fe86870eeb5b4f43e71a9c9b87a46e1b&skey=@crypt_49509d7f_d800c1243301c7b0b2ebaa5af0f58f4e
p723
sVKeyWord
p724
g52
sVProvince
p725
V\u5e7f\u4e1c
p726
sVPYInitial
p727
VAZSBL
p728
sVRemarkName
p729
g52
sVIsOwner
p730
I0
sVSex
p731
I1
sVStarFriend
p732
I0
sVHideInputBarFlag
p733
I0
sVChatRoomId
p734
I0
sVEncryChatRoomId
p735
g52
sVAttrStatus
p736
I4961
sVStatues
p737
I0
stp738
Rp739
I1
bag34
(g38
g39
(dp740
VUserName
p741
V@dad05f521de7e66b3553c47895331e9a
p742
sVCity
p743
V\u65e0\u9521
p744
sVSnsFlag
p745
I433
sVDisplayName
p746
g52
sVUniFriend
p747
I0
sVMemberCount
p748
I0
sVOwnerUin
p749
I0
sVMemberList
p750
g50
sVAlias
p751
g52
sVPYQuanPin
p752
VjietouebaZip
p753
sVSignature
p754
VStreet Bully &amp; \u72d7\u4e0d\u61c2\u521b\u59cb\u4eba
p755
sVRemarkPYInitial
p756
g52
sVContactFlag
p757
I1
sVUin
p758
I0
sVNickName
p759
V\u8857\u982d\u60e1\u9738\u3010Zip\u3011
p760
sVAppAccountFlag
p761
I0
sVVerifyFlag
p762
I0
sVRemarkPYQuanPin
p763
g52
sVHeadImgUrl
p764
V/cgi-bin/mmwebwx-bin/webwxgeticon?seq=673713460&username=@dad05f521de7e66b3553c47895331e9a&skey=@crypt_49509d7f_d800c1243301c7b0b2ebaa5af0f58f4e
p765
sVKeyWord
p766
Vtr8
p767
sVProvince
p768
V\u6c5f\u82cf
p769
sVPYInitial
p770
VJTEBZIP
p771
sVRemarkName
p772
g52
sVIsOwner
p773
I0
sVSex
p774
I1
sVStarFriend
p775
I0
sVHideInputBarFlag
p776
I0
sVChatRoomId
p777
I0
sVEncryChatRoomId
p778
g52
sVAttrStatus
p779
I2147564455
sVStatues
p780
I0
stp781
Rp782
I1
bag34
(g38
g39
(dp783
VUserName
p784
V@273dded2747392c840d708c5ff3280bc55f919efd78536c2ca573acc389892df
p785
sVCity
p786
V\u6b66\u6c49
p787
sVSnsFlag
p788
I1
sVDisplayName
p789
g52
sVUniFriend
p790
I0
sVMemberCount
p791
I0
sVOwnerUin
p792
I0
sVMemberList
p793
g50
sVAlias
p794
g52
sVPYQuanPin
p795
V0
p796
sVSignature
p797
V<span class="emoji emoji2764"></span>\ufe0f
p798
sVRemarkPYInitial
p799
V0JP
p800
sVContactFlag
p801
I3
sVUin
p802
I0
sVNickName
p803
g796
sVAppAccountFlag
p804
I0
sVVerifyFlag
p805
I0
sVRemarkPYQuanPin
p806
V0jipiao
p807
sVHeadImgUrl
p808
V/cgi-bin/mmwebwx-bin/webwxgeticon?seq=673728965&username=@273dded2747392c840d708c5ff3280bc55f919efd78536c2ca573acc389892df&skey=@crypt_49509d7f_d800c1243301c7b0b2ebaa5af0f58f4e
p809
sVKeyWord
p810
g52
sVProvince
p811
V\u6e56\u5317
p812
sVPYInitial
p813
g796
sVRemarkName
p814
V0 \u673a\u7968
p815
sVIsOwner
p816
I0
sVSex
p817
I2
sVStarFriend
p818
I0
sVHideInputBarFlag
p819
I0
sVChatRoomId
p820
I0
sVEncryChatRoomId
p821
g52
sVAttrStatus
p822
I236027
sVStatues
p823
I0
stp824
Rp825
I1
bag34
(g38
g39
(dp826
VUserName
p827
V@bb08821e3f5c1c327985910ff59a72a696e80cfa2ee35d7f92dac11535ec99a5
p828
sVCity
p829
V\u6d77\u6dc0
p830
sVSnsFlag
p831
I1
sVDisplayName
p832
g52
sVUniFriend
p833
I0
sVMemberCount
p834
I0
sVOwnerUin
p835
I0
sVMemberList
p836
g50
sVAlias
p837
g52
sVPYQuanPin
p838
Vdiermeng
p839
sVSignature
p840
V\u6b32\u4e70\u6842\u82b1\u540c\u8f7d\u9152
p841
sVRemarkPYInitial
p842
g52
sVContactFlag
p843
I1
sVUin
p844
I0
sVNickName
p845
V\u7b2c\u4e8c\u68a6
p846
sVAppAccountFlag
p847
I0
sVVerifyFlag
p848
I0
sVRemarkPYQuanPin
p849
g52
sVHeadImgUrl
p850
V/cgi-bin/mmwebwx-bin/webwxgeticon?seq=673728178&username=@bb08821e3f5c1c327985910ff59a72a696e80cfa2ee35d7f92dac11535ec99a5&skey=@crypt_49509d7f_d800c1243301c7b0b2ebaa5af0f58f4e
p851
sVKeyWord
p852
g52
sVProvince
p853
V\u5317\u4eac
p854
sVPYInitial
p855
VDEM
p856
sVRemarkName
p857
g52
sVIsOwner
p858
I0
sVSex
p859
I2
sVStarFriend
p860
I0
sVHideInputBarFlag
p861
I0
sVChatRoomId
p862
I0
sVEncryChatRoomId
p863
g52
sVAttrStatus
p864
I236323
sVStatues
p865
I0
stp866
Rp867
I1
bag34
(g38
g39
(dp868
VUserName
p869
V@ecb8b95c468b51123804384b51df451d7bd46cc1cf03021bcadbf1a180a868b0
p870
sVCity
p871
g52
sVSnsFlag
p872
I257
sVDisplayName
p873
g52
sVUniFriend
p874
I0
sVMemberCount
p875
I0
sVOwnerUin
p876
I0
sVMemberList
p877
g50
sVAlias
p878
g52
sVPYQuanPin
p879
Vruhigruhig
p880
sVSignature
p881
g52
sVRemarkPYInitial
p882
g52
sVContactFlag
p883
I3
sVUin
p884
I0
sVNickName
p885
Vruhigruhig
p886
sVAppAccountFlag
p887
I0
sVVerifyFlag
p888
I0
sVRemarkPYQuanPin
p889
g52
sVHeadImgUrl
p890
V/cgi-bin/mmwebwx-bin/webwxgeticon?seq=673727830&username=@ecb8b95c468b51123804384b51df451d7bd46cc1cf03021bcadbf1a180a868b0&skey=@crypt_49509d7f_d800c1243301c7b0b2ebaa5af0f58f4e
p891
sVKeyWord
p892
g52
sVProvince
p893
g52
sVPYInitial
p894
VRUHIGRUHIG
p895
sVRemarkName
p896
g52
sVIsOwner
p897
I0
sVSex
p898
I0
sVStarFriend
p899
I0
sVHideInputBarFlag
p900
I0
sVChatRoomId
p901
I0
sVEncryChatRoomId
p902
g52
sVAttrStatus
p903
I234277
sVStatues
p904
I0
stp905
Rp906
I1
bag34
(g38
g39
(dp907
VUserName
p908
V@d17fe0898655fb85185b52dd32b2ff91630f639928967327a78cdeb213f3a2d5
p909
sVCity
p910
g52
sVSnsFlag
p911
I1
sVDisplayName
p912
g52
sVUniFriend
p913
I0
sVMemberCount
p914
I0
sVOwnerUin
p915
I0
sVMemberList
p916
g50
sVAlias
p917
g52
sVPYQuanPin
p918
Vqinghuida2020
p919
sVSignature
p920
V\u8bda\u5fc3\u6b63\u610f\uff0c\u505a\u5fc3\u5e95\u8ba4\u4e3a\u6b63\u786e\u7684\u4e8b
p921
sVRemarkPYInitial
p922
VCLAIRTINDER
p923
sVContactFlag
p924
I1
sVUin
p925
I0
sVNickName
p926
V\u8bf7\u56de\u7b542020
p927
sVAppAccountFlag
p928
I0
sVVerifyFlag
p929
I0
sVRemarkPYQuanPin
p930
VClairTinder
p931
sVHeadImgUrl
p932
V/cgi-bin/mmwebwx-bin/webwxgeticon?seq=673719286&username=@d17fe0898655fb85185b52dd32b2ff91630f639928967327a78cdeb213f3a2d5&skey=@crypt_49509d7f_d800c1243301c7b0b2ebaa5af0f58f4e
p933
sVKeyWord
p934
g52
sVProvince
p935
g52
sVPYInitial
p936
VQHD2020
p937
sVRemarkName
p938
VClair Tinder
p939
sVIsOwner
p940
I0
sVSex
p941
I0
sVStarFriend
p942
I0
sVHideInputBarFlag
p943
I0
sVChatRoomId
p944
I0
sVEncryChatRoomId
p945
g52
sVAttrStatus
p946
I102693
sVStatues
p947
I0
stp948
Rp949
I1
bag34
(g38
g39
(dp950
VUserName
p951
V@ad674cd8c597124570df48b6dbaa48f797d15375b8664e8fc237c8c51ef369f2
p952
sVCity
p953
g52
sVSnsFlag
p954
I1
sVDisplayName
p955
g52
sVUniFriend
p956
I0
sVMemberCount
p957
I0
sVOwnerUin
p958
I0
sVMemberList
p959
g50
sVAlias
p960
g52
sVPYQuanPin
p961
VSimpler?
p962
sVSignature
p963
VHierarchy
p964
sVRemarkPYInitial
p965
g52
sVContactFlag
p966
I1
sVUin
p967
I0
sVNickName
p968
VSimpler\U0001f408
p969
sVAppAccountFlag
p970
I0
sVVerifyFlag
p971
I0
sVRemarkPYQuanPin
p972
g52
sVHeadImgUrl
p973
V/cgi-bin/mmwebwx-bin/webwxgeticon?seq=704170264&username=@ad674cd8c597124570df48b6dbaa48f797d15375b8664e8fc237c8c51ef369f2&skey=@crypt_49509d7f_d800c1243301c7b0b2ebaa5af0f58f4e
p974
sVKeyWord
p975
g52
sVProvince
p976
g52
sVPYInitial
p977
VSIMPLER?
p978
sVRemarkName
p979
g52
sVIsOwner
p980
I0
sVSex
p981
I2
sVStarFriend
p982
I0
sVHideInputBarFlag
p983
I0
sVChatRoomId
p984
I0
sVEncryChatRoomId
p985
g52
sVAttrStatus
p986
I234277
sVStatues
p987
I0
stp988
Rp989
I1
batp990
Rp991
I1
bsS'chatroomList'
p992
g34
(g35
g36
(lp993
g34
(citchat.storage.templates
Chatroom
p994
g39
(dp995
VUserName
p996
V@@127c8894e4eac7b688d86355b5a7512078d2a5b8eb1bc94c5f60483018b583ec
p997
sVCity
p998
g52
sVDisplayName
p999
g52
sVUniFriend
p1000
I0
sS'Self'
p1001
g34
(g38
g39
(dp1002
g41
g31
sg42
g43
sg44
g43
sg45
I0
sg46
I0
sg47
g34
(g35
g36
(lp1003
tp1004
Rp1005
I1
bsg51
g52
sg53
g52
sg54
I200509586
sg55
I0
sg56
I0
sg57
g43
sg58
g43
sg59
g52
sg60
g52
sg61
I0
sg62
I0
sg63
I1
sg64
g43
sg65
I0
sg66
I0
sg67
I0
sg68
I0
sg69
g43
sg70
g52
sg71
I0
sg72
g73
sg74
g52
sg75
g76
sg77
I1
sg78
I0
sg79
I0
stp1006
Rp1007
I1
bsVMemberList
p1008
g34
(g35
g36
(lp1009
tp1010
Rp1011
I1
bsVPYQuanPin
p1012
g52
sVRemarkPYInitial
p1013
g52
sVSex
p1014
I0
sVAppAccountFlag
p1015
I0
sVVerifyFlag
p1016
I0
sVProvince
p1017
g52
sVKeyWord
p1018
g52
sVRemarkName
p1019
g52
sVPYInitial
p1020
g52
sVIsOwner
p1021
I0
sVChatRoomId
p1022
I0
sVHideInputBarFlag
p1023
I0
sVEncryChatRoomId
p1024
g52
sVAttrStatus
p1025
I0
sVSnsFlag
p1026
I0
sVMemberCount
p1027
I500
sVOwnerUin
p1028
I0
sVAlias
p1029
g52
sS'IsAdmin'
p1030
NsVSignature
p1031
g52
sVContactFlag
p1032
I2
sVNickName
p1033
VRedis\u6280\u672f\u4ea4\u6d41\u7fa4
p1034
sVRemarkPYQuanPin
p1035
g52
sVHeadImgUrl
p1036
V/cgi-bin/mmwebwx-bin/webwxgetheadimg?seq=704170275&username=@@127c8894e4eac7b688d86355b5a7512078d2a5b8eb1bc94c5f60483018b583ec&skey=@crypt_49509d7f_d800c1243301c7b0b2ebaa5af0f58f4e
p1037
sVUin
p1038
I0
sVStarFriend
p1039
I0
sVStatues
p1040
I1
stp1041
Rp1042
I1
bag34
(g994
g39
(dp1043
VUserName
p1044
V@@d587645a240d1e99bad4b7fef5800caf9de5d32c5eb9f6a5dead0ae9b0a566e0
p1045
sVCity
p1046
g52
sVDisplayName
p1047
g52
sVUniFriend
p1048
I0
sg1001
g34
(g38
g39
(dp1049
g41
g31
sg42
g43
sg44
g43
sg45
I0
sg46
I0
sg47
g34
(g35
g36
(lp1050
tp1051
Rp1052
I1
bsg51
g52
sg53
g52
sg54
I200509586
sg55
I0
sg56
I0
sg57
g43
sg58
g43
sg59
g52
sg60
g52
sg61
I0
sg62
I0
sg63
I1
sg64
g43
sg65
I0
sg66
I0
sg67
I0
sg68
I0
sg69
g43
sg70
g52
sg71
I0
sg72
g73
sg74
g52
sg75
g76
sg77
I1
sg78
I0
sg79
I0
stp1053
Rp1054
I1
bsVMemberList
p1055
g34
(g35
g36
(lp1056
tp1057
Rp1058
I1
bsVPYQuanPin
p1059
g52
sVRemarkPYInitial
p1060
g52
sVSex
p1061
I0
sVAppAccountFlag
p1062
I0
sVVerifyFlag
p1063
I0
sVProvince
p1064
g52
sVKeyWord
p1065
g52
sVRemarkName
p1066
g52
sVPYInitial
p1067
g52
sVIsOwner
p1068
I0
sVChatRoomId
p1069
I0
sVHideInputBarFlag
p1070
I0
sVEncryChatRoomId
p1071
g52
sVAttrStatus
p1072
I0
sVSnsFlag
p1073
I0
sVMemberCount
p1074
I500
sVOwnerUin
p1075
I0
sVAlias
p1076
g52
sg1030
NsVSignature
p1077
g52
sVContactFlag
p1078
I0
sVNickName
p1079
VRedis\u6280\u672f\u4ea4\u6d41\u7fa42
p1080
sVRemarkPYQuanPin
p1081
g52
sVHeadImgUrl
p1082
V/cgi-bin/mmwebwx-bin/webwxgetheadimg?seq=0&username=@@d587645a240d1e99bad4b7fef5800caf9de5d32c5eb9f6a5dead0ae9b0a566e0&skey=@crypt_49509d7f_d800c1243301c7b0b2ebaa5af0f58f4e
p1083
sVUin
p1084
I0
sVStarFriend
p1085
I0
sVStatues
p1086
I1
stp1087
Rp1088
I1
batp1089
Rp1090
I1
bsS'nickName'
p1091
g73
sS'mpList'
p1092
g34
(g35
g36
(lp1093
g34
(citchat.storage.templates
MassivePlatform
p1094
g39
(dp1095
VUserName
p1096
V@2c8bd020b2e077b8abae5e62cab97e1a
p1097
sVCity
p1098
V\u5e7f\u5dde
p1099
sVSnsFlag
p1100
I0
sVDisplayName
p1101
g52
sVUniFriend
p1102
I0
sVMemberCount
p1103
I0
sVOwnerUin
p1104
I0
sVMemberList
p1105
g50
sVAlias
p1106
g52
sVPYQuanPin
p1107
Vyikushaonv
p1108
sVSignature
p1109
V\u5173\u6ce8\u4e0d\u4e86\uff1f \u8bf7\u641c\u7d22\u5173\u6ce8\uff1a\u5947\u8da3\u62a5\u793e\u65b0\u53f7
p1110
sVRemarkPYInitial
p1111
g52
sVContactFlag
p1112
I3
sVUin
p1113
I0
sVNickName
p1114
V\u4e00\u5e93\u5c11\u5973
p1115
sVAppAccountFlag
p1116
I0
sVVerifyFlag
p1117
I8
sVRemarkPYQuanPin
p1118
g52
sVHeadImgUrl
p1119
V/cgi-bin/mmwebwx-bin/webwxgeticon?seq=673712037&username=@2c8bd020b2e077b8abae5e62cab97e1a&skey=@crypt_49509d7f_d800c1243301c7b0b2ebaa5af0f58f4e
p1120
sVKeyWord
p1121
Vgh_
p1122
sVProvince
p1123
V\u5e7f\u4e1c
p1124
sVPYInitial
p1125
VYKSN
p1126
sVRemarkName
p1127
g52
sVIsOwner
p1128
I0
sVSex
p1129
I0
sVStarFriend
p1130
I0
sVHideInputBarFlag
p1131
I0
sVChatRoomId
p1132
I0
sVEncryChatRoomId
p1133
g52
sVAttrStatus
p1134
I0
sVStatues
p1135
I0
stp1136
Rp1137
I1
bag34
(g1094
g39
(dp1138
VUserName
p1139
V@987460022331bfc20fa74fb5bb58208c
p1140
sVCity
p1141
V\u6df1\u5733
p1142
sVSnsFlag
p1143
I0
sVDisplayName
p1144
g52
sVUniFriend
p1145
I0
sVMemberCount
p1146
I0
sVOwnerUin
p1147
I0
sVMemberList
p1148
g50
sVAlias
p1149
g52
sVPYQuanPin
p1150
Vshunfengsuyun
p1151
sVSignature
p1152
V\u5feb\u4ef6\u4fe1\u606f\u5b9e\u65f6\u6536\uff0c\u4f1a\u5458\u6743\u76ca\u7b49\u4f60\u62ff\u3002\u987a\u4e30\u901f\u8fd0\u51fa\u54c1\uff0c\u4e00\u6b3e\u63d0\u4f9b\u5728\u7ebf\u5bc4\u4ef6\u3001\u4e00\u5c0f\u65f6\u4e0a\u95e8\u3001\u5feb\u9012\u5355\u53f7\u67e5\u8be2\u3001\u7f51\u70b9\u67e5\u8be2\u3001\u8fd0\u8d39\u67e5\u8be2\u7b49\u76f8\u5173\u670d\u52a1\u7684\u5feb\u9012\u7269\u6d41\u516c\u4f17\u53f7\u3002\u67e5\u5feb\u9012\u3001\u5bc4\u5feb\u9012\u7528\u987a\u4e30\uff0c\u4e0d\u6b62\u662f\u5feb\u3002
p1153
sVRemarkPYInitial
p1154
g52
sVContactFlag
p1155
I3
sVUin
p1156
I0
sVNickName
p1157
V\u987a\u4e30\u901f\u8fd0
p1158
sVAppAccountFlag
p1159
I0
sVVerifyFlag
p1160
I24
sVRemarkPYQuanPin
p1161
g52
sVHeadImgUrl
p1162
V/cgi-bin/mmwebwx-bin/webwxgeticon?seq=673719418&username=@987460022331bfc20fa74fb5bb58208c&skey=@crypt_49509d7f_d800c1243301c7b0b2ebaa5af0f58f4e
p1163
sVKeyWord
p1164
Vgh_
p1165
sVProvince
p1166
V\u5e7f\u4e1c
p1167
sVPYInitial
p1168
VSFSY
p1169
sVRemarkName
p1170
g52
sVIsOwner
p1171
I0
sVSex
p1172
I0
sVStarFriend
p1173
I0
sVHideInputBarFlag
p1174
I0
sVChatRoomId
p1175
I0
sVEncryChatRoomId
p1176
g52
sVAttrStatus
p1177
I0
sVStatues
p1178
I0
stp1179
Rp1180
I1
bag34
(g1094
g39
(dp1181
VUserName
p1182
V@5deed2de8998cd81442cfa9719d0575d
p1183
sVCity
p1184
V\u6d4e\u5357
p1185
sVSnsFlag
p1186
I0
sVDisplayName
p1187
g52
sVUniFriend
p1188
I0
sVMemberCount
p1189
I0
sVOwnerUin
p1190
I0
sVMemberList
p1191
g50
sVAlias
p1192
g52
sVPYQuanPin
p1193
Vbaigehuidi
p1194
sVSignature
p1195
V\u767d\u9e3d\u60e0\u9012\u4e3a\u5feb\u9012\u7269\u6d41\u4e1a\u52a1\u7684\u7f51\u4e0a\u4e0b\u5355\u5e73\u53f0\u3002\u4e0e\u4e2d\u90ae\u3001\u987a\u4e30\u3001\u5fb7\u90a6\u3001\u5706\u901a\u3001\u5b85\u6025\u9001\u7b49\u4e00\u7ebf\u901f\u8fd0\u4f01\u4e1a\u5f62\u6210\u5168\u56fd\u5408\u4f5c\u9635\u8425\u3002\u7528\u6237\u53ef\u5728\u7ebf\u5bf9\u6bd4\u4e0b\u5355\uff0c\u4eab\u53d7\u5e73\u53f0\u8865\u8d34\u3002\u4e0b\u5355\u540e\u5ba2\u6237\u9759\u5f85\u5feb\u9012\u5458\u63fd\u4ef6\u3002
p1196
sVRemarkPYInitial
p1197
g52
sVContactFlag
p1198
I3
sVUin
p1199
I0
sVNickName
p1200
V\u767d\u9e3d\u60e0\u9012
p1201
sVAppAccountFlag
p1202
I0
sVVerifyFlag
p1203
I24
sVRemarkPYQuanPin
p1204
g52
sVHeadImgUrl
p1205
V/cgi-bin/mmwebwx-bin/webwxgeticon?seq=673719895&username=@5deed2de8998cd81442cfa9719d0575d&skey=@crypt_49509d7f_d800c1243301c7b0b2ebaa5af0f58f4e
p1206
sVKeyWord
p1207
Vgh_
p1208
sVProvince
p1209
V\u5c71\u4e1c
p1210
sVPYInitial
p1211
VBGHD
p1212
sVRemarkName
p1213
g52
sVIsOwner
p1214
I0
sVSex
p1215
I0
sVStarFriend
p1216
I0
sVHideInputBarFlag
p1217
I0
sVChatRoomId
p1218
I0
sVEncryChatRoomId
p1219
g52
sVAttrStatus
p1220
I0
sVStatues
p1221
I0
stp1222
Rp1223
I1
bag34
(g1094
g39
(dp1224
VUserName
p1225
V@23533f7d60ca338a90440d446757ea89
p1226
sVCity
p1227
V\u5e7f\u5dde
p1228
sVSnsFlag
p1229
I0
sVDisplayName
p1230
g52
sVUniFriend
p1231
I0
sVMemberCount
p1232
I0
sVOwnerUin
p1233
I0
sVMemberList
p1234
g50
sVAlias
p1235
g52
sVPYQuanPin
p1236
Vchunliangqingnian
p1237
sVSignature
p1238
V\u8fd9\u91cc\u6709\u4f60\u7684\u524d\u4efb\u3002
p1239
sVRemarkPYInitial
p1240
g52
sVContactFlag
p1241
I3
sVUin
p1242
I0
sVNickName
p1243
V\u7eaf\u826f\u9752\u5e74
p1244
sVAppAccountFlag
p1245
I0
sVVerifyFlag
p1246
I8
sVRemarkPYQuanPin
p1247
g52
sVHeadImgUrl
p1248
V/cgi-bin/mmwebwx-bin/webwxgeticon?seq=673727200&username=@23533f7d60ca338a90440d446757ea89&skey=@crypt_49509d7f_d800c1243301c7b0b2ebaa5af0f58f4e
p1249
sVKeyWord
p1250
Vgh_
p1251
sVProvince
p1252
V\u5e7f\u4e1c
p1253
sVPYInitial
p1254
VCLQN
p1255
sVRemarkName
p1256
g52
sVIsOwner
p1257
I0
sVSex
p1258
I0
sVStarFriend
p1259
I0
sVHideInputBarFlag
p1260
I0
sVChatRoomId
p1261
I0
sVEncryChatRoomId
p1262
g52
sVAttrStatus
p1263
I0
sVStatues
p1264
I0
stp1265
Rp1266
I1
bag34
(g1094
g39
(dp1267
VUserName
p1268
V@6e340823c99c4f7db723895794fbb675
p1269
sVCity
p1270
V\u671d\u9633
p1271
sVSnsFlag
p1272
I0
sVDisplayName
p1273
g52
sVUniFriend
p1274
I0
sVMemberCount
p1275
I0
sVOwnerUin
p1276
I0
sVMemberList
p1277
g50
sVAlias
p1278
g52
sVPYQuanPin
p1279
Vjikeshijian
p1280
sVSignature
p1281
V\u6781\u5ba2\u65f6\u95f4\u670d\u52a1\u53f7
p1282
sVRemarkPYInitial
p1283
g52
sVContactFlag
p1284
I3
sVUin
p1285
I0
sVNickName
p1286
V\u6781\u5ba2\u65f6\u95f4
p1287
sVAppAccountFlag
p1288
I0
sVVerifyFlag
p1289
I24
sVRemarkPYQuanPin
p1290
g52
sVHeadImgUrl
p1291
V/cgi-bin/mmwebwx-bin/webwxgeticon?seq=673728225&username=@6e340823c99c4f7db723895794fbb675&skey=@crypt_49509d7f_d800c1243301c7b0b2ebaa5af0f58f4e
p1292
sVKeyWord
p1293
Vgh_
p1294
sVProvince
p1295
V\u5317\u4eac
p1296
sVPYInitial
p1297
VJKSJ
p1298
sVRemarkName
p1299
g52
sVIsOwner
p1300
I0
sVSex
p1301
I0
sVStarFriend
p1302
I0
sVHideInputBarFlag
p1303
I0
sVChatRoomId
p1304
I0
sVEncryChatRoomId
p1305
g52
sVAttrStatus
p1306
I0
sVStatues
p1307
I0
stp1308
Rp1309
I1
bag34
(g1094
g39
(dp1310
VUserName
p1311
V@2594b3096ab058adfd17457a0277c80d
p1312
sVCity
p1313
V\u6d66\u4e1c\u65b0\u533a
p1314
sVSnsFlag
p1315
I0
sVDisplayName
p1316
g52
sVUniFriend
p1317
I0
sVMemberCount
p1318
I0
sVOwnerUin
p1319
I0
sVMemberList
p1320
g50
sVAlias
p1321
g52
sVPYQuanPin
p1322
Vmodunan
p1323
sVSignature
p1324
V\u56e1\u56e1\u65b0\u53f7\uff0c\u5176\u4ed6\u56db\u4e2a\u5b57\u5f00\u5934\u7684\u90fd\u662f\u5047\u7684\uff0c\u8bf7\u5927\u5bb6\u6ce8\u610f\u8bc6\u522b
p1325
sVRemarkPYInitial
p1326
g52
sVContactFlag
p1327
I3
sVUin
p1328
I0
sVNickName
p1329
V\u9b54\u90fd\u56e1
p1330
sVAppAccountFlag
p1331
I0
sVVerifyFlag
p1332
I8
sVRemarkPYQuanPin
p1333
g52
sVHeadImgUrl
p1334
V/cgi-bin/mmwebwx-bin/webwxgeticon?seq=673729335&username=@2594b3096ab058adfd17457a0277c80d&skey=@crypt_49509d7f_d800c1243301c7b0b2ebaa5af0f58f4e
p1335
sVKeyWord
p1336
Vgh_
p1337
sVProvince
p1338
V\u4e0a\u6d77
p1339
sVPYInitial
p1340
VMDN
p1341
sVRemarkName
p1342
g52
sVIsOwner
p1343
I0
sVSex
p1344
I0
sVStarFriend
p1345
I0
sVHideInputBarFlag
p1346
I0
sVChatRoomId
p1347
I0
sVEncryChatRoomId
p1348
g52
sVAttrStatus
p1349
I0
sVStatues
p1350
I0
stp1351
Rp1352
I1
batp1353
Rp1354
I1
bssS'loginInfo'
p1355
(dp1356
S'SyncKey'
p1357
(dp1358
VCount
p1359
I4
sVList
p1360
(lp1361
(dp1362
VVal
p1363
I704170267
sVKey
p1364
I1
sa(dp1365
VVal
p1366
I704170279
sVKey
p1367
I2
sa(dp1368
VVal
p1369
I704170264
sVKey
p1370
I3
sa(dp1371
VVal
p1372
I1577883255
sVKey
p1373
I1000
sassS'syncUrl'
p1374
S'https://webpush.wx2.qq.com/cgi-bin/mmwebwx-bin'
p1375
sS'skey'
p1376
V@crypt_49509d7f_d800c1243301c7b0b2ebaa5af0f58f4e
p1377
sS'wxuin'
p1378
V200509586
p1379
sS'synckey'
p1380
S'1_704170267|2_704170279|3_704170264|1000_1577883255'
p1381
sS'url'
p1382
Vhttps://wx2.qq.com/cgi-bin/mmwebwx-bin
p1383
sS'pass_ticket'
p1384
V4Xirq61Zt2BB3cAmd4vIu9GVY5avi1UVX6d1qQgcu8o%3D
p1385
sS'wxsid'
p1386
VttBdPgaND3jX0CUn
p1387
sS'BaseRequest'
p1388
(dp1389
g54
g1379
sS'Skey'
p1390
g1377
sS'DeviceID'
p1391
g1385
sS'Sid'
p1392
g1387
ssS'User'
p1393
g34
(g38
g39
(dp1394
g41
g31
sg42
g43
sg44
g43
sg45
I0
sg47
g50
sg51
g52
sg53
g52
sg77
I1
sg55
I0
sg56
I0
sg57
g43
sg58
g43
sg59
g52
sg60
g52
sg61
I0
sg62
I0
sg63
I1
sg64
g43
sg65
I0
sg68
I0
sg66
I0
sg67
I0
sg46
I0
sg69
g43
sg70
g52
sg71
I0
sg72
g73
sg74
g52
sg75
g76
sg54
I200509586
sg78
I0
sg79
I0
stp1395
Rp1396
I1
bsS'fileUrl'
p1397
S'https://file.wx2.qq.com/cgi-bin/mmwebwx-bin'
p1398
sS'InviteStartCount'
p1399
I40
sS'deviceid'
p1400
S'e63141514394028e'
p1401
ss.