(dp0
S'cookies'
p1
(dp2
S'webwx_data_ticket'
p3
S'gSdjWRcuTINhnGr+J2Cj7UEV'
p4
sS'wxuin'
p5
S'200509586'
p6
sS'webwxuvid'
p7
S'ef16bd48961c4320b665ac296596e4e63eac949100eac3dc8e077f2e350173614204136ebc8b57c31e8a02a405ae4496'
p8
sS'webwx_auth_ticket'
p9
S'CIsBELqPn/UNGoAB60LCxP5C3ZYqYEbjfbsVZhyUKB2qlYLxh1QhYG5FOLLc63D5UmVLhP+mojjeHU7TTuBMhrLnno5/pXT2gsG9NllfJHTD8qe6flU88FxpUseieU+D7AiNEa8TVREoeUKNLYByoLrkZmZIGm36ANYcNbgXYJ1IAwQ+jPWIrn7GY7g='
p10
sS'wxloadtime'
p11
S'1563933730'
p12
sS'wxsid'
p13
S'uiev+AhPS7AkV1Cm'
p14
sS'mm_lang'
p15
S'zh_CN'
p16
ssS'version'
p17
S'1.3.10'
p18
sS'storage'
p19
(dp20
S'userName'
p21
V@bdab311584e98d2c3ba5a42165a3a9571e95c414d5b99ee21d676486ee58a031
p22
sS'lastInputUserName'
p23
NsS'memberList'
p24
ccopy_reg
_reconstructor
p25
(citchat.storage.templates
ContactList
p26
c__builtin__
list
p27
(lp28
g25
(citchat.storage.templates
User
p29
c__builtin__
dict
p30
(dp31
S'UserName'
p32
g22
sS'City'
p33
S''
p34
sS'DisplayName'
p35
g34
sS'UniFriend'
p36
I0
sS'OwnerUin'
p37
I0
sS'MemberList'
p38
g25
(g26
g27
(lp39
tp40
Rp41
I1
bsS'PYQuanPin'
p42
V
p43
sS'RemarkPYInitial'
p44
g43
sS'Uin'
p45
I200509586
sS'AppAccountFlag'
p46
I0
sS'VerifyFlag'
p47
I0
sS'Province'
p48
g34
sS'KeyWord'
p49
g34
sS'RemarkName'
p50
g43
sS'PYInitial'
p51
g43
sS'ChatRoomId'
p52
I0
sS'HideInputBarFlag'
p53
I0
sVHeadImgFlag
p54
I1
sS'EncryChatRoomId'
p55
g34
sS'AttrStatus'
p56
I0
sS'SnsFlag'
p57
I0
sS'MemberCount'
p58
I0
sVWebWxPluginSwitch
p59
I0
sS'Alias'
p60
g34
sS'Signature'
p61
g43
sS'ContactFlag'
p62
I0
sS'NickName'
p63
V\u673a\u5668\u4eba\u5c0f\u80d6
p64
sS'RemarkPYQuanPin'
p65
g43
sS'HeadImgUrl'
p66
V/cgi-bin/mmwebwx-bin/webwxgeticon?seq=1354609716&username=@bdab311584e98d2c3ba5a42165a3a9571e95c414d5b99ee21d676486ee58a031&skey=@crypt_49509d7f_51156ced537e0a1dd33d4945c83a3d97
p67
sS'Sex'
p68
I1
sS'StarFriend'
p69
I0
sS'Statues'
p70
I0
stp71
Rp72
I1
bag25
(g29
g30
(dp73
VUserName
p74
V@7db85965db664c09c5615b62bbfeb0ba
p75
sVCity
p76
g43
sVSnsFlag
p77
I17
sVDisplayName
p78
g43
sVUniFriend
p79
I0
sVMemberCount
p80
I0
sVOwnerUin
p81
I0
sVMemberList
p82
g41
sVAlias
p83
g43
sVPYQuanPin
p84
VCXY
p85
sVSignature
p86
V\u7b49\u98ce\u4e5f\u7b49\u4f60\u3002
p87
sVRemarkPYInitial
p88
VXYKTX
p89
sVContactFlag
p90
I1
sVUin
p91
I0
sVNickName
p92
V-C_XY-
p93
sVAppAccountFlag
p94
I0
sVVerifyFlag
p95
I0
sVRemarkPYQuanPin
p96
Vxinyongkataoxian
p97
sVHeadImgUrl
p98
V/cgi-bin/mmwebwx-bin/webwxgeticon?seq=673710066&username=@7db85965db664c09c5615b62bbfeb0ba&skey=@crypt_49509d7f_51156ced537e0a1dd33d4945c83a3d97
p99
sVKeyWord
p100
Vwux
p101
sVProvince
p102
g43
sVPYInitial
p103
VCXY
p104
sVRemarkName
p105
V\u4fe1\u7528\u5361\u5957\u73b0
p106
sVIsOwner
p107
I0
sVSex
p108
I2
sVStarFriend
p109
I0
sVHideInputBarFlag
p110
I0
sVChatRoomId
p111
I0
sVEncryChatRoomId
p112
g43
sVAttrStatus
p113
I111719
sVStatues
p114
I0
stp115
Rp116
I1
bag25
(g29
g30
(dp117
VUserName
p118
V@4316ea9ba856b518e4c470f796a8c3879c596770bb14be54633a67485820d309
p119
sVCity
p120
g43
sVSnsFlag
p121
I1
sVDisplayName
p122
g43
sVUniFriend
p123
I0
sVMemberCount
p124
I0
sVOwnerUin
p125
I0
sVMemberList
p126
g41
sVAlias
p127
g43
sVPYQuanPin
p128
VMolly
p129
sVSignature
p130
V\u5c3d\u4eba\u4e8b\u542c\u5929\u610f\uff01
p131
sVRemarkPYInitial
p132
g43
sVContactFlag
p133
I1
sVUin
p134
I0
sVNickName
p135
VMolly
p136
sVAppAccountFlag
p137
I0
sVVerifyFlag
p138
I0
sVRemarkPYQuanPin
p139
g43
sVHeadImgUrl
p140
V/cgi-bin/mmwebwx-bin/webwxgeticon?seq=673715616&username=@4316ea9ba856b518e4c470f796a8c3879c596770bb14be54633a67485820d309&skey=@crypt_49509d7f_51156ced537e0a1dd33d4945c83a3d97
p141
sVKeyWord
p142
g43
sVProvince
p143
g43
sVPYInitial
p144
VMOLLY
p145
sVRemarkName
p146
g43
sVIsOwner
p147
I0
sVSex
p148
I2
sVStarFriend
p149
I0
sVHideInputBarFlag
p150
I0
sVChatRoomId
p151
I0
sVEncryChatRoomId
p152
g43
sVAttrStatus
p153
I234083
sVStatues
p154
I0
stp155
Rp156
I1
bag25
(g29
g30
(dp157
VUserName
p158
V@3019d87053a08075f8a09cebb04a7db60b776822669697688a9046f69801cdc1
p159
sVCity
p160
g43
sVSnsFlag
p161
I1
sVDisplayName
p162
g43
sVUniFriend
p163
I0
sVMemberCount
p164
I0
sVOwnerUin
p165
I0
sVMemberList
p166
g41
sVAlias
p167
g43
sVPYQuanPin
p168
Vchuanguoliushui
p169
sVSignature
p170
V\u53ea\u4e3a\u4e00\u4eba\u7559
p171
sVRemarkPYInitial
p172
g43
sVContactFlag
p173
I1
sVUin
p174
I0
sVNickName
p175
V\u7a7f\u8fc7\u6d41\u6c34
p176
sVAppAccountFlag
p177
I0
sVVerifyFlag
p178
I0
sVRemarkPYQuanPin
p179
g43
sVHeadImgUrl
p180
V/cgi-bin/mmwebwx-bin/webwxgeticon?seq=673714836&username=@3019d87053a08075f8a09cebb04a7db60b776822669697688a9046f69801cdc1&skey=@crypt_49509d7f_51156ced537e0a1dd33d4945c83a3d97
p181
sVKeyWord
p182
g43
sVProvince
p183
VKowloon City
p184
sVPYInitial
p185
VCGLS
p186
sVRemarkName
p187
g43
sVIsOwner
p188
I0
sVSex
p189
I1
sVStarFriend
p190
I0
sVHideInputBarFlag
p191
I0
sVChatRoomId
p192
I0
sVEncryChatRoomId
p193
g43
sVAttrStatus
p194
I33690405
sVStatues
p195
I0
stp196
Rp197
I1
bag25
(g29
g30
(dp198
VUserName
p199
V@9b792a7fda61d2b5272c56426f244e7df3e08c20f37f723204b621f5c30eee7e
p200
sVCity
p201
V\u6d66\u4e1c\u65b0\u533a
p202
sVSnsFlag
p203
I1
sVDisplayName
p204
g43
sVUniFriend
p205
I0
sVMemberCount
p206
I0
sVOwnerUin
p207
I0
sVMemberList
p208
g41
sVAlias
p209
g43
sVPYQuanPin
p210
Vyannispanclassemojiemoji1f485span?
p211
sVSignature
p212
V\u4f60\u82e5\u76db\u5f00\uff0c\u8774\u8776\u81ea\u6765\u2026\u2026
p213
sVRemarkPYInitial
p214
g43
sVContactFlag
p215
I1
sVUin
p216
I0
sVNickName
p217
V\u71d5\u59ae\U0001f485\U0001f3fb
p218
sVAppAccountFlag
p219
I0
sVVerifyFlag
p220
I0
sVRemarkPYQuanPin
p221
g43
sVHeadImgUrl
p222
V/cgi-bin/mmwebwx-bin/webwxgeticon?seq=673715724&username=@9b792a7fda61d2b5272c56426f244e7df3e08c20f37f723204b621f5c30eee7e&skey=@crypt_49509d7f_51156ced537e0a1dd33d4945c83a3d97
p223
sVKeyWord
p224
g43
sVProvince
p225
V\u4e0a\u6d77
p226
sVPYInitial
p227
VYNSPANCLASSEMOJIEMOJI1F485SPAN?
p228
sVRemarkName
p229
g43
sVIsOwner
p230
I0
sVSex
p231
I2
sVStarFriend
p232
I0
sVHideInputBarFlag
p233
I0
sVChatRoomId
p234
I0
sVEncryChatRoomId
p235
g43
sVAttrStatus
p236
I103205
sVStatues
p237
I0
stp238
Rp239
I1
bag25
(g29
g30
(dp240
VUserName
p241
V@48d90d23f81bc4d06c51a8c35f6bc3db46b191445e00678c7ff6ebd56007e45f
p242
sVCity
p243
g43
sVSnsFlag
p244
I1
sVDisplayName
p245
g43
sVUniFriend
p246
I0
sVMemberCount
p247
I0
sVOwnerUin
p248
I0
sVMemberList
p249
g41
sVAlias
p250
g43
sVPYQuanPin
p251
VAkuaidiyouhuiquanbudingjigengxin
p252
sVSignature
p253
V\u963f\u8fea\u8fbe\u65af\u7ae5\u88c5  \u65ad\u7801\u7279\u4ef7
p254
sVRemarkPYInitial
p255
g43
sVContactFlag
p256
I3
sVUin
p257
I0
sVNickName
p258
VA\u5feb\u9012\u4f18\u60e0\u5238 \u4e0d\u5b9a\u671f\u66f4\u65b0
p259
sVAppAccountFlag
p260
I0
sVVerifyFlag
p261
I0
sVRemarkPYQuanPin
p262
g43
sVHeadImgUrl
p263
V/cgi-bin/mmwebwx-bin/webwxgeticon?seq=673716439&username=@48d90d23f81bc4d06c51a8c35f6bc3db46b191445e00678c7ff6ebd56007e45f&skey=@crypt_49509d7f_51156ced537e0a1dd33d4945c83a3d97
p264
sVKeyWord
p265
g43
sVProvince
p266
g43
sVPYInitial
p267
VAKDYHQBDJGX
p268
sVRemarkName
p269
g43
sVIsOwner
p270
I0
sVSex
p271
I1
sVStarFriend
p272
I0
sVHideInputBarFlag
p273
I0
sVChatRoomId
p274
I0
sVEncryChatRoomId
p275
g43
sVAttrStatus
p276
I135205
sVStatues
p277
I0
stp278
Rp279
I1
bag25
(g29
g30
(dp280
VUserName
p281
V@c96ee61e6e6650e461dfdaf5a2d36aa2
p282
sVCity
p283
V\u4e1c\u57ce
p284
sVSnsFlag
p285
I17
sVDisplayName
p286
g43
sVUniFriend
p287
I0
sVMemberCount
p288
I0
sVOwnerUin
p289
I0
sVMemberList
p290
g41
sVAlias
p291
g43
sVPYQuanPin
p292
Vpengcheng
p293
sVSignature
p294
V\u672a\u6765\u4e0d\u8fce\uff0c\u5f53\u65f6\u4e0d\u6742\uff0c\u8fc7\u5f80\u4e0d\u604b
p295
sVRemarkPYInitial
p296
g43
sVContactFlag
p297
I3
sVUin
p298
I0
sVNickName
p299
V\u9e4f\u7a0b
p300
sVAppAccountFlag
p301
I0
sVVerifyFlag
p302
I0
sVRemarkPYQuanPin
p303
g43
sVHeadImgUrl
p304
V/cgi-bin/mmwebwx-bin/webwxgeticon?seq=669180196&username=@c96ee61e6e6650e461dfdaf5a2d36aa2&skey=@crypt_49509d7f_51156ced537e0a1dd33d4945c83a3d97
p305
sVKeyWord
p306
Vwar
p307
sVProvince
p308
V\u5317\u4eac
p309
sVPYInitial
p310
VPC
p311
sVRemarkName
p312
g43
sVIsOwner
p313
I0
sVSex
p314
I1
sVStarFriend
p315
I0
sVHideInputBarFlag
p316
I0
sVChatRoomId
p317
I0
sVEncryChatRoomId
p318
g43
sVAttrStatus
p319
I33691111
sVStatues
p320
I0
stp321
Rp322
I1
bag25
(g29
g30
(dp323
VUserName
p324
V@bc33eb09e2208444dc7ac837523e743198969fde8ddd3d3860e0124d49363998
p325
sVCity
p326
V\u90af\u90f8
p327
sVSnsFlag
p328
I1
sVDisplayName
p329
g43
sVUniFriend
p330
I0
sVMemberCount
p331
I0
sVOwnerUin
p332
I0
sVMemberList
p333
g41
sVAlias
p334
g43
sVPYQuanPin
p335
Vniming
p336
sVSignature
p337
V<span class="emoji emoji1f63a"></span> <span class="emoji emoji1f63a"></span> <span class="emoji emoji1f63a"></span> <span class="emoji emoji1f63a"></span> <span class="emoji emoji1f63a"></span>
p338
sVRemarkPYInitial
p339
g43
sVContactFlag
p340
I3
sVUin
p341
I0
sVNickName
p342
V\u533f\u540d
p343
sVAppAccountFlag
p344
I0
sVVerifyFlag
p345
I0
sVRemarkPYQuanPin
p346
g43
sVHeadImgUrl
p347
V/cgi-bin/mmwebwx-bin/webwxgeticon?seq=673718011&username=@bc33eb09e2208444dc7ac837523e743198969fde8ddd3d3860e0124d49363998&skey=@crypt_49509d7f_51156ced537e0a1dd33d4945c83a3d97
p348
sVKeyWord
p349
g43
sVProvince
p350
V\u6cb3\u5317
p351
sVPYInitial
p352
VNM
p353
sVRemarkName
p354
g43
sVIsOwner
p355
I0
sVSex
p356
I1
sVStarFriend
p357
I0
sVHideInputBarFlag
p358
I0
sVChatRoomId
p359
I0
sVEncryChatRoomId
p360
g43
sVAttrStatus
p361
I33657149
sVStatues
p362
I0
stp363
Rp364
I1
bag25
(g29
g30
(dp365
VUserName
p366
V@d72cccca8e9eef1210f4462d7b165a81fed0df26687eef87d013b49aec25ddfa
p367
sVCity
p368
V\u5305\u5934
p369
sVSnsFlag
p370
I1
sVDisplayName
p371
g43
sVUniFriend
p372
I0
sVMemberCount
p373
I0
sVOwnerUin
p374
I0
sVMemberList
p375
g41
sVAlias
p376
g43
sVPYQuanPin
p377
Vxiaoqing
p378
sVSignature
p379
g43
sVRemarkPYInitial
p380
g43
sVContactFlag
p381
I3
sVUin
p382
I0
sVNickName
p383
V\u5c0f\u9752
p384
sVAppAccountFlag
p385
I0
sVVerifyFlag
p386
I0
sVRemarkPYQuanPin
p387
g43
sVHeadImgUrl
p388
V/cgi-bin/mmwebwx-bin/webwxgeticon?seq=673718930&username=@d72cccca8e9eef1210f4462d7b165a81fed0df26687eef87d013b49aec25ddfa&skey=@crypt_49509d7f_51156ced537e0a1dd33d4945c83a3d97
p389
sVKeyWord
p390
g43
sVProvince
p391
V\u5185\u8499\u53e4
p392
sVPYInitial
p393
VXQ
p394
sVRemarkName
p395
g43
sVIsOwner
p396
I0
sVSex
p397
I1
sVStarFriend
p398
I0
sVHideInputBarFlag
p399
I0
sVChatRoomId
p400
I0
sVEncryChatRoomId
p401
g43
sVAttrStatus
p402
I234109
sVStatues
p403
I0
stp404
Rp405
I1
bag25
(g29
g30
(dp406
VUserName
p407
V@fdddaef1b851e9e58868f13216b8007b01eafe9a56d977ea1d6dcbc1a9654f2f
p408
sVCity
p409
V\u53a6\u95e8
p410
sVSnsFlag
p411
I1
sVDisplayName
p412
g43
sVUniFriend
p413
I0
sVMemberCount
p414
I0
sVOwnerUin
p415
I0
sVMemberList
p416
g41
sVAlias
p417
g43
sVPYQuanPin
p418
Vfeisehuiyi
p419
sVSignature
p420
V\u505a\u4e2a\u6e29\u67d4\uff0c\u9738\u6c14\u7684\uff0c\u6dd1\u5973\U0001f643\U0001f643
p421
sVRemarkPYInitial
p422
g43
sVContactFlag
p423
I1
sVUin
p424
I0
sVNickName
p425
V\u83f2\u8272\u56de\u5fc6
p426
sVAppAccountFlag
p427
I0
sVVerifyFlag
p428
I0
sVRemarkPYQuanPin
p429
g43
sVHeadImgUrl
p430
V/cgi-bin/mmwebwx-bin/webwxgeticon?seq=673715277&username=@fdddaef1b851e9e58868f13216b8007b01eafe9a56d977ea1d6dcbc1a9654f2f&skey=@crypt_49509d7f_51156ced537e0a1dd33d4945c83a3d97
p431
sVKeyWord
p432
g43
sVProvince
p433
V\u798f\u5efa
p434
sVPYInitial
p435
VFSHY
p436
sVRemarkName
p437
g43
sVIsOwner
p438
I0
sVSex
p439
I2
sVStarFriend
p440
I0
sVHideInputBarFlag
p441
I0
sVChatRoomId
p442
I0
sVEncryChatRoomId
p443
g43
sVAttrStatus
p444
I102589
sVStatues
p445
I0
stp446
Rp447
I1
bag25
(g29
g30
(dp448
VUserName
p449
V@0efc67ad1779db0711ef80ef56fc8e00d87252ef4308295cf7ef278eed3a3241
p450
sVCity
p451
VOthers
p452
sVSnsFlag
p453
I1
sVDisplayName
p454
g43
sVUniFriend
p455
I0
sVMemberCount
p456
I0
sVOwnerUin
p457
I0
sVMemberList
p458
g41
sVAlias
p459
g43
sVPYQuanPin
p460
Vabbyhuanerspanclassemojiemoji1f48bspanspanclassemojiemoji1f6baspan
p461
sVSignature
p462
V\u8ba9\u8721\u70db\u4ee3\u66ff\u6240\u6709\u706f \u8ba9\u97f3\u4e50\u4ee3\u66ff\u8bdd\u8bed\u58f0 \u6b64\u65f6\u65e0\u58f0\u80dc\u6709\u58f0
p463
sVRemarkPYInitial
p464
g43
sVContactFlag
p465
I1
sVUin
p466
I0
sVNickName
p467
Vabby\u6b22\u513f\U0001f48b\U0001f6ba
p468
sVAppAccountFlag
p469
I0
sVVerifyFlag
p470
I0
sVRemarkPYQuanPin
p471
g43
sVHeadImgUrl
p472
V/cgi-bin/mmwebwx-bin/webwxgeticon?seq=673719319&username=@0efc67ad1779db0711ef80ef56fc8e00d87252ef4308295cf7ef278eed3a3241&skey=@crypt_49509d7f_51156ced537e0a1dd33d4945c83a3d97
p473
sVKeyWord
p474
g43
sVProvince
p475
VKuala Lumpur
p476
sVPYInitial
p477
VABBYHESPANCLASSEMOJIEMOJI1F48BSPANSPANCLASSEMOJIEMOJI1F6BASPAN
p478
sVRemarkName
p479
g43
sVIsOwner
p480
I0
sVSex
p481
I2
sVStarFriend
p482
I0
sVHideInputBarFlag
p483
I0
sVChatRoomId
p484
I0
sVEncryChatRoomId
p485
g43
sVAttrStatus
p486
I33656865
sVStatues
p487
I0
stp488
Rp489
I1
bag25
(g29
g30
(dp490
VUserName
p491
V@b8fe1ba58b434a3ca960a60ce413bbd07a278d99ab5cc8f8233971522e2c8784
p492
sVCity
p493
g43
sVSnsFlag
p494
I1
sVDisplayName
p495
g43
sVUniFriend
p496
I0
sVMemberCount
p497
I0
sVOwnerUin
p498
I0
sVMemberList
p499
g41
sVAlias
p500
g43
sVPYQuanPin
p501
VSimpler?
p502
sVSignature
p503
VHierarchy
p504
sVRemarkPYInitial
p505
g43
sVContactFlag
p506
I1
sVUin
p507
I0
sVNickName
p508
VSimpler\U0001f408
p509
sVAppAccountFlag
p510
I0
sVVerifyFlag
p511
I0
sVRemarkPYQuanPin
p512
g43
sVHeadImgUrl
p513
V/cgi-bin/mmwebwx-bin/webwxgeticon?seq=673719582&username=@b8fe1ba58b434a3ca960a60ce413bbd07a278d99ab5cc8f8233971522e2c8784&skey=@crypt_49509d7f_51156ced537e0a1dd33d4945c83a3d97
p514
sVKeyWord
p515
g43
sVProvince
p516
g43
sVPYInitial
p517
VSIMPLER?
p518
sVRemarkName
p519
g43
sVIsOwner
p520
I0
sVSex
p521
I2
sVStarFriend
p522
I0
sVHideInputBarFlag
p523
I0
sVChatRoomId
p524
I0
sVEncryChatRoomId
p525
g43
sVAttrStatus
p526
I234277
sVStatues
p527
I0
stp528
Rp529
I1
bag25
(g29
g30
(dp530
VUserName
p531
V@aba2073cdcdd7f797fd17d8ce8adf597475c2d79667ee436ff7bd7b30317be63
p532
sVCity
p533
V\u90af\u90f8
p534
sVSnsFlag
p535
I1
sVDisplayName
p536
g43
sVUniFriend
p537
I0
sVMemberCount
p538
I0
sVOwnerUin
p539
I0
sVMemberList
p540
g41
sVAlias
p541
g43
sVPYQuanPin
p542
Vningbeisenwu
p543
sVSignature
p544
V\u5b87\u5b87\u4e0d\u6536\u4e8c\u624b\u5783\u573e\u3002
p545
sVRemarkPYInitial
p546
g43
sVContactFlag
p547
I3
sVUin
p548
I0
sVNickName
p549
V\u67e0\u5317\u68ee\u5c4b\u3002
p550
sVAppAccountFlag
p551
I0
sVVerifyFlag
p552
I0
sVRemarkPYQuanPin
p553
g43
sVHeadImgUrl
p554
V/cgi-bin/mmwebwx-bin/webwxgeticon?seq=673721821&username=@aba2073cdcdd7f797fd17d8ce8adf597475c2d79667ee436ff7bd7b30317be63&skey=@crypt_49509d7f_51156ced537e0a1dd33d4945c83a3d97
p555
sVKeyWord
p556
g43
sVProvince
p557
V\u6cb3\u5317
p558
sVPYInitial
p559
VNBSW
p560
sVRemarkName
p561
g43
sVIsOwner
p562
I0
sVSex
p563
I2
sVStarFriend
p564
I0
sVHideInputBarFlag
p565
I0
sVChatRoomId
p566
I0
sVEncryChatRoomId
p567
g43
sVAttrStatus
p568
I102945
sVStatues
p569
I0
stp570
Rp571
I1
bag25
(g29
g30
(dp572
VUserName
p573
V@6e67e82f329522986539fbe6788d1f431cd786becd92f576d25a9a348aee37f8
p574
sVCity
p575
g43
sVSnsFlag
p576
I1
sVDisplayName
p577
g43
sVUniFriend
p578
I0
sVMemberCount
p579
I0
sVOwnerUin
p580
I0
sVMemberList
p581
g41
sVAlias
p582
g43
sVPYQuanPin
p583
Vqinghuida2019
p584
sVSignature
p585
V\u8bda\u5fc3\u6b63\u610f\uff0c\u505a\u5fc3\u5e95\u8ba4\u4e3a\u6b63\u786e\u7684\u4e8b
p586
sVRemarkPYInitial
p587
VCLAIRTINDER
p588
sVContactFlag
p589
I3
sVUin
p590
I0
sVNickName
p591
V\u8bf7\u56de\u7b542019
p592
sVAppAccountFlag
p593
I0
sVVerifyFlag
p594
I0
sVRemarkPYQuanPin
p595
VClairTinder
p596
sVHeadImgUrl
p597
V/cgi-bin/mmwebwx-bin/webwxgeticon?seq=673719286&username=@6e67e82f329522986539fbe6788d1f431cd786becd92f576d25a9a348aee37f8&skey=@crypt_49509d7f_51156ced537e0a1dd33d4945c83a3d97
p598
sVKeyWord
p599
g43
sVProvince
p600
g43
sVPYInitial
p601
VQHD2019
p602
sVRemarkName
p603
VClair Tinder
p604
sVIsOwner
p605
I0
sVSex
p606
I0
sVStarFriend
p607
I0
sVHideInputBarFlag
p608
I0
sVChatRoomId
p609
I0
sVEncryChatRoomId
p610
g43
sVAttrStatus
p611
I233509
sVStatues
p612
I0
stp613
Rp614
I1
bag25
(g29
g30
(dp615
VUserName
p616
V@ba23dced6835d9ad572cec5e35a4c562955ad3006d30cb3117e920ca99327c8b
p617
sVCity
p618
g43
sVSnsFlag
p619
I1
sVDisplayName
p620
g43
sVUniFriend
p621
I0
sVMemberCount
p622
I0
sVOwnerUin
p623
I0
sVMemberList
p624
g41
sVAlias
p625
g43
sVPYQuanPin
p626
Vbanjialvyou
p627
sVSignature
p628
g43
sVRemarkPYInitial
p629
g43
sVContactFlag
p630
I3
sVUin
p631
I0
sVNickName
p632
V\u534a\u4ef7\u65c5\u6e38
p633
sVAppAccountFlag
p634
I0
sVVerifyFlag
p635
I0
sVRemarkPYQuanPin
p636
g43
sVHeadImgUrl
p637
V/cgi-bin/mmwebwx-bin/webwxgeticon?seq=673722419&username=@ba23dced6835d9ad572cec5e35a4c562955ad3006d30cb3117e920ca99327c8b&skey=@crypt_49509d7f_51156ced537e0a1dd33d4945c83a3d97
p638
sVKeyWord
p639
g43
sVProvince
p640
g43
sVPYInitial
p641
VBJLY
p642
sVRemarkName
p643
g43
sVIsOwner
p644
I0
sVSex
p645
I0
sVStarFriend
p646
I0
sVHideInputBarFlag
p647
I0
sVChatRoomId
p648
I0
sVEncryChatRoomId
p649
g43
sVAttrStatus
p650
I135269
sVStatues
p651
I0
stp652
Rp653
I1
bag25
(g29
g30
(dp654
VUserName
p655
V@6257be8a936695269fc1286d361cc056
p656
sVCity
p657
V\u65e0\u9521
p658
sVSnsFlag
p659
I177
sVDisplayName
p660
g43
sVUniFriend
p661
I0
sVMemberCount
p662
I0
sVOwnerUin
p663
I0
sVMemberList
p664
g41
sVAlias
p665
g43
sVPYQuanPin
p666
VjietouebaZip
p667
sVSignature
p668
VStreet Bully\u521b\u59cb\u4eba\u3001\u72d7\u4e0d\u61c2\u521b\u59cb\u4eba
p669
sVRemarkPYInitial
p670
g43
sVContactFlag
p671
I1
sVUin
p672
I0
sVNickName
p673
V\u8857\u982d\u60e1\u9738\u3010Zip\u3011
p674
sVAppAccountFlag
p675
I0
sVVerifyFlag
p676
I0
sVRemarkPYQuanPin
p677
g43
sVHeadImgUrl
p678
V/cgi-bin/mmwebwx-bin/webwxgeticon?seq=673713460&username=@6257be8a936695269fc1286d361cc056&skey=@crypt_49509d7f_51156ced537e0a1dd33d4945c83a3d97
p679
sVKeyWord
p680
Vtr8
p681
sVProvince
p682
V\u6c5f\u82cf
p683
sVPYInitial
p684
VJTEBZIP
p685
sVRemarkName
p686
g43
sVIsOwner
p687
I0
sVSex
p688
I1
sVStarFriend
p689
I0
sVHideInputBarFlag
p690
I0
sVChatRoomId
p691
I0
sVEncryChatRoomId
p692
g43
sVAttrStatus
p693
I2147564455
sVStatues
p694
I0
stp695
Rp696
I1
bag25
(g29
g30
(dp697
VUserName
p698
V@2beb1368e53b660c52fb8c809a2e61b41e148e7a27f19acebf55a9b37c8342af
p699
sVCity
p700
V\u5e7f\u5dde
p701
sVSnsFlag
p702
I1
sVDisplayName
p703
g43
sVUniFriend
p704
I0
sVMemberCount
p705
I0
sVOwnerUin
p706
I0
sVMemberList
p707
g41
sVAlias
p708
g43
sVPYQuanPin
p709
VA0zhengshubanli0Azhaodaili
p710
sVSignature
p711
V\u8d28\u91cf\u4e0e\u8bda\u4fe1\u5e76\u5b58\uff01\u62db\u4ee3\u7406\uff01
p712
sVRemarkPYInitial
p713
g43
sVContactFlag
p714
I3
sVUin
p715
I0
sVNickName
p716
VA0\u8bc1\u4e66\u529e\u74060A(\u62db\u4ee3\u7406)
p717
sVAppAccountFlag
p718
I0
sVVerifyFlag
p719
I0
sVRemarkPYQuanPin
p720
g43
sVHeadImgUrl
p721
V/cgi-bin/mmwebwx-bin/webwxgeticon?seq=673722645&username=@2beb1368e53b660c52fb8c809a2e61b41e148e7a27f19acebf55a9b37c8342af&skey=@crypt_49509d7f_51156ced537e0a1dd33d4945c83a3d97
p722
sVKeyWord
p723
g43
sVProvince
p724
V\u5e7f\u4e1c
p725
sVPYInitial
p726
VA0ZSBL0AZDL
p727
sVRemarkName
p728
g43
sVIsOwner
p729
I0
sVSex
p730
I1
sVStarFriend
p731
I0
sVHideInputBarFlag
p732
I0
sVChatRoomId
p733
I0
sVEncryChatRoomId
p734
g43
sVAttrStatus
p735
I4965
sVStatues
p736
I0
stp737
Rp738
I1
bag25
(g29
g30
(dp739
VUserName
p740
V@419eaeafdc92966206e929b0826e320b58cd8bbffff0133e87059ea4258b2fdf
p741
sVCity
p742
g43
sVSnsFlag
p743
I1
sVDisplayName
p744
g43
sVUniFriend
p745
I0
sVMemberCount
p746
I0
sVOwnerUin
p747
I0
sVMemberList
p748
g41
sVAlias
p749
g43
sVPYQuanPin
p750
Vspanclassemojiemoji1f451spanHoiYispanclassemojiemoji1f451span
p751
sVSignature
p752
V\u8d8a\u52aa\u529b \u8d8a\u5e78\u904b <span class="emoji emoji2728"></span>
p753
sVRemarkPYInitial
p754
g43
sVContactFlag
p755
I3
sVUin
p756
I0
sVNickName
p757
V\U0001f451HoiYi\U0001f451
p758
sVAppAccountFlag
p759
I0
sVVerifyFlag
p760
I0
sVRemarkPYQuanPin
p761
g43
sVHeadImgUrl
p762
V/cgi-bin/mmwebwx-bin/webwxgeticon?seq=673722685&username=@419eaeafdc92966206e929b0826e320b58cd8bbffff0133e87059ea4258b2fdf&skey=@crypt_49509d7f_51156ced537e0a1dd33d4945c83a3d97
p763
sVKeyWord
p764
g43
sVProvince
p765
g43
sVPYInitial
p766
VSPANCLASSEMOJIEMOJI1F451SPANHOIYISPANCLASSEMOJIEMOJI1F451SPAN
p767
sVRemarkName
p768
g43
sVIsOwner
p769
I0
sVSex
p770
I0
sVStarFriend
p771
I0
sVHideInputBarFlag
p772
I0
sVChatRoomId
p773
I0
sVEncryChatRoomId
p774
g43
sVAttrStatus
p775
I103205
sVStatues
p776
I0
stp777
Rp778
I1
bag25
(g29
g30
(dp779
VUserName
p780
V@2717f6dd1e0d1a86878bdaa612a4117c18506b758ade967d9725f175893dc9ec
p781
sVCity
p782
g43
sVSnsFlag
p783
I0
sVDisplayName
p784
g43
sVUniFriend
p785
I0
sVMemberCount
p786
I0
sVOwnerUin
p787
I0
sVMemberList
p788
g41
sVAlias
p789
g43
sVPYQuanPin
p790
Vruhigruhig
p791
sVSignature
p792
g43
sVRemarkPYInitial
p793
g43
sVContactFlag
p794
I3
sVUin
p795
I0
sVNickName
p796
Vruhigruhig
p797
sVAppAccountFlag
p798
I0
sVVerifyFlag
p799
I0
sVRemarkPYQuanPin
p800
g43
sVHeadImgUrl
p801
V/cgi-bin/mmwebwx-bin/webwxgeticon?seq=673722781&username=@2717f6dd1e0d1a86878bdaa612a4117c18506b758ade967d9725f175893dc9ec&skey=@crypt_49509d7f_51156ced537e0a1dd33d4945c83a3d97
p802
sVKeyWord
p803
g43
sVProvince
p804
g43
sVPYInitial
p805
VRUHIGRUHIG
p806
sVRemarkName
p807
g43
sVIsOwner
p808
I0
sVSex
p809
I0
sVStarFriend
p810
I0
sVHideInputBarFlag
p811
I0
sVChatRoomId
p812
I0
sVEncryChatRoomId
p813
g43
sVAttrStatus
p814
I234277
sVStatues
p815
I0
stp816
Rp817
I1
bag25
(g29
g30
(dp818
VUserName
p819
V@e5b3aacd891deee19c4a8bb8b3a47fef01ecedbe36764f4e6038048f10e4fdf8
p820
sVCity
p821
V\u671d\u9633
p822
sVSnsFlag
p823
I1
sVDisplayName
p824
g43
sVUniFriend
p825
I0
sVMemberCount
p826
I0
sVOwnerUin
p827
I0
sVMemberList
p828
g41
sVAlias
p829
g43
sVPYQuanPin
p830
Vxiaomaoshugadian
p831
sVSignature
p832
V\u5907\u6ce8\u6765\u610f+\u54ea\u91cc\u770b\u5230\u5fae\u4fe1\u53f7\uff0c\u4e0d\u5907\u6ce8\u4e0d\u901a\u8fc7
p833
sVRemarkPYInitial
p834
g43
sVContactFlag
p835
I3
sVUin
p836
I0
sVNickName
p837
V\u5c0f\u732b\u4e66\u5496\u5e97
p838
sVAppAccountFlag
p839
I0
sVVerifyFlag
p840
I0
sVRemarkPYQuanPin
p841
g43
sVHeadImgUrl
p842
V/cgi-bin/mmwebwx-bin/webwxgeticon?seq=673723018&username=@e5b3aacd891deee19c4a8bb8b3a47fef01ecedbe36764f4e6038048f10e4fdf8&skey=@crypt_49509d7f_51156ced537e0a1dd33d4945c83a3d97
p843
sVKeyWord
p844
g43
sVProvince
p845
V\u5317\u4eac
p846
sVPYInitial
p847
VXMSGD
p848
sVRemarkName
p849
g43
sVIsOwner
p850
I0
sVSex
p851
I2
sVStarFriend
p852
I0
sVHideInputBarFlag
p853
I0
sVChatRoomId
p854
I0
sVEncryChatRoomId
p855
g43
sVAttrStatus
p856
I135717
sVStatues
p857
I0
stp858
Rp859
I1
batp860
Rp861
I1
bsS'chatroomList'
p862
g25
(g26
g27
(lp863
g25
(citchat.storage.templates
Chatroom
p864
g30
(dp865
VUserName
p866
V@@3940150eaab0edf4fc7a0fa240a6d0b3184815059fea3f4aeae9cc9b432b5039
p867
sVCity
p868
g43
sVDisplayName
p869
g43
sVUniFriend
p870
I0
sS'Self'
p871
g25
(g29
g30
(dp872
g32
g22
sg33
g34
sg35
g34
sg36
I0
sg37
I0
sg38
g25
(g26
g27
(lp873
tp874
Rp875
I1
bsg42
g43
sg44
g43
sg45
I200509586
sg46
I0
sg47
I0
sg48
g34
sg49
g34
sg50
g43
sg51
g43
sg52
I0
sg53
I0
sg54
I1
sg55
g34
sg56
I0
sg57
I0
sg58
I0
sg59
I0
sg60
g34
sg61
g43
sg62
I0
sg63
g64
sg65
g43
sg66
g67
sg68
I1
sg69
I0
sg70
I0
stp876
Rp877
I1
bsVMemberList
p878
g25
(g26
g27
(lp879
tp880
Rp881
I1
bsVPYQuanPin
p882
g43
sVRemarkPYInitial
p883
g43
sVSex
p884
I0
sVAppAccountFlag
p885
I0
sVVerifyFlag
p886
I0
sVProvince
p887
g43
sVKeyWord
p888
g43
sVRemarkName
p889
g43
sVPYInitial
p890
g43
sVIsOwner
p891
I0
sVChatRoomId
p892
I0
sVHideInputBarFlag
p893
I0
sVEncryChatRoomId
p894
g43
sVAttrStatus
p895
I0
sVSnsFlag
p896
I0
sVMemberCount
p897
I499
sVOwnerUin
p898
I0
sVAlias
p899
g43
sS'IsAdmin'
p900
NsVSignature
p901
g43
sVContactFlag
p902
I2
sVNickName
p903
VRedis\u6280\u672f\u4ea4\u6d41\u7fa4
p904
sVRemarkPYQuanPin
p905
g43
sVHeadImgUrl
p906
V/cgi-bin/mmwebwx-bin/webwxgetheadimg?seq=673723002&username=@@3940150eaab0edf4fc7a0fa240a6d0b3184815059fea3f4aeae9cc9b432b5039&skey=@crypt_49509d7f_51156ced537e0a1dd33d4945c83a3d97
p907
sVUin
p908
I0
sVStarFriend
p909
I0
sVStatues
p910
I1
stp911
Rp912
I1
bag25
(g864
g30
(dp913
VUserName
p914
V@@c74eba21e90b33bd2f095875aa44be728f1f394c30ef624cec630b984de4b028
p915
sVCity
p916
g43
sVDisplayName
p917
g43
sVUniFriend
p918
I0
sg871
g25
(g29
g30
(dp919
g32
g22
sg33
g34
sg35
g34
sg36
I0
sg37
I0
sg38
g25
(g26
g27
(lp920
tp921
Rp922
I1
bsg42
g43
sg44
g43
sg45
I200509586
sg46
I0
sg47
I0
sg48
g34
sg49
g34
sg50
g43
sg51
g43
sg52
I0
sg53
I0
sg54
I1
sg55
g34
sg56
I0
sg57
I0
sg58
I0
sg59
I0
sg60
g34
sg61
g43
sg62
I0
sg63
g64
sg65
g43
sg66
g67
sg68
I1
sg69
I0
sg70
I0
stp923
Rp924
I1
bsVMemberList
p925
g25
(g26
g27
(lp926
tp927
Rp928
I1
bsVPYQuanPin
p929
g43
sVRemarkPYInitial
p930
g43
sVSex
p931
I0
sVAppAccountFlag
p932
I0
sVVerifyFlag
p933
I0
sVProvince
p934
g43
sVKeyWord
p935
g43
sVRemarkName
p936
g43
sVPYInitial
p937
g43
sVIsOwner
p938
I0
sVChatRoomId
p939
I0
sVHideInputBarFlag
p940
I0
sVEncryChatRoomId
p941
g43
sVAttrStatus
p942
I0
sVSnsFlag
p943
I0
sVMemberCount
p944
I490
sVOwnerUin
p945
I0
sVAlias
p946
g43
sg900
NsVSignature
p947
g43
sVContactFlag
p948
I0
sVNickName
p949
VRedis\u6280\u672f\u4ea4\u6d41\u7fa42
p950
sVRemarkPYQuanPin
p951
g43
sVHeadImgUrl
p952
V/cgi-bin/mmwebwx-bin/webwxgetheadimg?seq=0&username=@@c74eba21e90b33bd2f095875aa44be728f1f394c30ef624cec630b984de4b028&skey=@crypt_49509d7f_51156ced537e0a1dd33d4945c83a3d97
p953
sVUin
p954
I0
sVStarFriend
p955
I0
sVStatues
p956
I1
stp957
Rp958
I1
batp959
Rp960
I1
bsS'nickName'
p961
g64
sS'mpList'
p962
g25
(g26
g27
(lp963
g25
(citchat.storage.templates
MassivePlatform
p964
g30
(dp965
VUserName
p966
V@eeca7a2ce0463ac94659d6d55d14a446
p967
sVCity
p968
V\u6df1\u5733
p969
sVSnsFlag
p970
I0
sVDisplayName
p971
g43
sVUniFriend
p972
I0
sVMemberCount
p973
I0
sVOwnerUin
p974
I0
sVMemberList
p975
g41
sVAlias
p976
g43
sVPYQuanPin
p977
Vfengchaozhinenggui
p978
sVSignature
p979
V\u5173\u6ce8\u4e30\u5de2\u670d\u52a1\u53f7\uff0c\u7b2c\u4e00\u65f6\u95f4\u63a5\u6536\u60a8\u7684\u5feb\u4ef6\u7269\u6d41\u63d0\u9192\uff01\u63d0\u4f9b24\u5c0f\u65f6\u81ea\u52a9\u5bc4\u5feb\u9012\u3001\u7535\u5546\u8d2d\u7269\u3001\u6682\u5b58\u7269\u54c1\u3001\u5a92\u4f53\u4e92\u52a8\u7b49\u4e00\u7ad9\u5f0f\u751f\u6d3b\u670d\u52a1\uff0c\u8ba9\u751f\u6d3b\u66f4\u7b80\u5355\uff01
p980
sVRemarkPYInitial
p981
g43
sVContactFlag
p982
I3
sVUin
p983
I0
sVNickName
p984
V\u4e30\u5de2\u667a\u80fd\u67dc
p985
sVAppAccountFlag
p986
I0
sVVerifyFlag
p987
I24
sVRemarkPYQuanPin
p988
g43
sVHeadImgUrl
p989
V/cgi-bin/mmwebwx-bin/webwxgeticon?seq=673711737&username=@eeca7a2ce0463ac94659d6d55d14a446&skey=@crypt_49509d7f_51156ced537e0a1dd33d4945c83a3d97
p990
sVKeyWord
p991
Vgh_
p992
sVProvince
p993
V\u5e7f\u4e1c
p994
sVPYInitial
p995
VFCZNG
p996
sVRemarkName
p997
g43
sVIsOwner
p998
I0
sVSex
p999
I0
sVStarFriend
p1000
I0
sVHideInputBarFlag
p1001
I0
sVChatRoomId
p1002
I0
sVEncryChatRoomId
p1003
g43
sVAttrStatus
p1004
I0
sVStatues
p1005
I0
stp1006
Rp1007
I1
bag25
(g964
g30
(dp1008
VUserName
p1009
V@f11f71353dc7397f4f422d20877e4e06
p1010
sVCity
p1011
V\u5e7f\u5dde
p1012
sVSnsFlag
p1013
I0
sVDisplayName
p1014
g43
sVUniFriend
p1015
I0
sVMemberCount
p1016
I0
sVOwnerUin
p1017
I0
sVMemberList
p1018
g41
sVAlias
p1019
g43
sVPYQuanPin
p1020
Vyikushaonv
p1021
sVSignature
p1022
V\u5173\u6ce8\u4e0d\u4e86\uff1f \u8bf7\u641c\u7d22\u5173\u6ce8\uff1a\u5947\u8da3\u62a5\u793e\u65b0\u53f7
p1023
sVRemarkPYInitial
p1024
g43
sVContactFlag
p1025
I3
sVUin
p1026
I0
sVNickName
p1027
V\u4e00\u5e93\u5c11\u5973
p1028
sVAppAccountFlag
p1029
I0
sVVerifyFlag
p1030
I8
sVRemarkPYQuanPin
p1031
g43
sVHeadImgUrl
p1032
V/cgi-bin/mmwebwx-bin/webwxgeticon?seq=673712037&username=@f11f71353dc7397f4f422d20877e4e06&skey=@crypt_49509d7f_51156ced537e0a1dd33d4945c83a3d97
p1033
sVKeyWord
p1034
Vgh_
p1035
sVProvince
p1036
V\u5e7f\u4e1c
p1037
sVPYInitial
p1038
VYKSN
p1039
sVRemarkName
p1040
g43
sVIsOwner
p1041
I0
sVSex
p1042
I0
sVStarFriend
p1043
I0
sVHideInputBarFlag
p1044
I0
sVChatRoomId
p1045
I0
sVEncryChatRoomId
p1046
g43
sVAttrStatus
p1047
I0
sVStatues
p1048
I0
stp1049
Rp1050
I1
bag25
(g964
g30
(dp1051
VUserName
p1052
V@cfd155517b8a3033e2db73d527b16882
p1053
sVCity
p1054
V\u6df1\u5733
p1055
sVSnsFlag
p1056
I0
sVDisplayName
p1057
g43
sVUniFriend
p1058
I0
sVMemberCount
p1059
I0
sVOwnerUin
p1060
I0
sVMemberList
p1061
g41
sVAlias
p1062
g43
sVPYQuanPin
p1063
Vqiyueyingku
p1064
sVSignature
p1065
V\u56e0\u4e3a\u7231\u7535\u5f71\uff0c\u6240\u4ee5\u4e0d\u5bc2\u5bde\u3002
p1066
sVRemarkPYInitial
p1067
g43
sVContactFlag
p1068
I3
sVUin
p1069
I0
sVNickName
p1070
V\u4e03\u6708\u5f71\u5e93
p1071
sVAppAccountFlag
p1072
I0
sVVerifyFlag
p1073
I24
sVRemarkPYQuanPin
p1074
g43
sVHeadImgUrl
p1075
V/cgi-bin/mmwebwx-bin/webwxgeticon?seq=673715022&username=@cfd155517b8a3033e2db73d527b16882&skey=@crypt_49509d7f_51156ced537e0a1dd33d4945c83a3d97
p1076
sVKeyWord
p1077
Vgh_
p1078
sVProvince
p1079
V\u5e7f\u4e1c
p1080
sVPYInitial
p1081
VQYYK
p1082
sVRemarkName
p1083
g43
sVIsOwner
p1084
I0
sVSex
p1085
I0
sVStarFriend
p1086
I0
sVHideInputBarFlag
p1087
I0
sVChatRoomId
p1088
I0
sVEncryChatRoomId
p1089
g43
sVAttrStatus
p1090
I0
sVStatues
p1091
I0
stp1092
Rp1093
I1
bag25
(g964
g30
(dp1094
VUserName
p1095
V@84d76ab3cd3672f01c8eb0c5e6c3ce6d
p1096
sVCity
p1097
V\u9752\u6d66
p1098
sVSnsFlag
p1099
I0
sVDisplayName
p1100
g43
sVUniFriend
p1101
I0
sVMemberCount
p1102
I0
sVOwnerUin
p1103
I0
sVMemberList
p1104
g41
sVAlias
p1105
g43
sVPYQuanPin
p1106
Vdebangkuaidi
p1107
sVSignature
p1108
V\u5173\u6ce8\u7acb\u4eab25\u5143\u5bc4\u4ef6\u4f18\u60e0\u5927\u793c\u5305\uff0c\u5b9e\u65f6\u83b7\u53d6\u8d27\u7269\u52a8\u6001\u3002
p1109
sVRemarkPYInitial
p1110
g43
sVContactFlag
p1111
I3
sVUin
p1112
I0
sVNickName
p1113
V\u5fb7\u90a6\u5feb\u9012
p1114
sVAppAccountFlag
p1115
I0
sVVerifyFlag
p1116
I24
sVRemarkPYQuanPin
p1117
g43
sVHeadImgUrl
p1118
V/cgi-bin/mmwebwx-bin/webwxgeticon?seq=673716437&username=@84d76ab3cd3672f01c8eb0c5e6c3ce6d&skey=@crypt_49509d7f_51156ced537e0a1dd33d4945c83a3d97
p1119
sVKeyWord
p1120
Vgh_
p1121
sVProvince
p1122
V\u4e0a\u6d77
p1123
sVPYInitial
p1124
VDBKD
p1125
sVRemarkName
p1126
g43
sVIsOwner
p1127
I0
sVSex
p1128
I0
sVStarFriend
p1129
I0
sVHideInputBarFlag
p1130
I0
sVChatRoomId
p1131
I0
sVEncryChatRoomId
p1132
g43
sVAttrStatus
p1133
I0
sVStatues
p1134
I0
stp1135
Rp1136
I1
bag25
(g964
g30
(dp1137
VUserName
p1138
V@4674374295eb1e34a7a3d943badea5f9
p1139
sVCity
p1140
V\u6df1\u5733
p1141
sVSnsFlag
p1142
I0
sVDisplayName
p1143
g43
sVUniFriend
p1144
I0
sVMemberCount
p1145
I0
sVOwnerUin
p1146
I0
sVMemberList
p1147
g41
sVAlias
p1148
g43
sVPYQuanPin
p1149
Vshunfengsuyun
p1150
sVSignature
p1151
V\u6700\u4fbf\u6377\u7684\u987a\u4e30\u901f\u8fd0\u81ea\u52a9\u670d\u52a1\u5e73\u53f0\u3002\u4e0b\u5355\u5bc4\u4ef6\uff0c \u53ca\u65f6\u8ffd\u8e2a\u5feb\u4ef6\u72b6\u6001\uff0c\u4e3b\u52a8\u63a8\u9001\u8def\u7531\u4fe1\u606f\uff0c\u540c\u65f6\u8ba2\u5355\u7ba1\u7406\u3001\u5730\u5740\u7c3f\u7ba1\u7406\u8ba9\u60a8\u653e\u5fc3\u3001\u8212\u5fc3\u3002\u6211\u4eec\u4e00\u76f4\u5728\u52aa\u529b\uff01
p1152
sVRemarkPYInitial
p1153
g43
sVContactFlag
p1154
I3
sVUin
p1155
I0
sVNickName
p1156
V\u987a\u4e30\u901f\u8fd0
p1157
sVAppAccountFlag
p1158
I0
sVVerifyFlag
p1159
I24
sVRemarkPYQuanPin
p1160
g43
sVHeadImgUrl
p1161
V/cgi-bin/mmwebwx-bin/webwxgeticon?seq=673719418&username=@4674374295eb1e34a7a3d943badea5f9&skey=@crypt_49509d7f_51156ced537e0a1dd33d4945c83a3d97
p1162
sVKeyWord
p1163
Vgh_
p1164
sVProvince
p1165
V\u5e7f\u4e1c
p1166
sVPYInitial
p1167
VSFSY
p1168
sVRemarkName
p1169
g43
sVIsOwner
p1170
I0
sVSex
p1171
I0
sVStarFriend
p1172
I0
sVHideInputBarFlag
p1173
I0
sVChatRoomId
p1174
I0
sVEncryChatRoomId
p1175
g43
sVAttrStatus
p1176
I0
sVStatues
p1177
I0
stp1178
Rp1179
I1
bag25
(g964
g30
(dp1180
VUserName
p1181
V@0a91f80a6d495ed638d5bc5a5a884b4c
p1182
sVCity
p1183
V\u6d4e\u5357
p1184
sVSnsFlag
p1185
I0
sVDisplayName
p1186
g43
sVUniFriend
p1187
I0
sVMemberCount
p1188
I0
sVOwnerUin
p1189
I0
sVMemberList
p1190
g41
sVAlias
p1191
g43
sVPYQuanPin
p1192
Vbaigehuidi
p1193
sVSignature
p1194
V\u767d\u9e3d\u60e0\u9012\u4e3a\u5feb\u9012\u7269\u6d41\u4e1a\u52a1\u7684\u7f51\u4e0a\u4e0b\u5355\u5e73\u53f0\u3002\u4e0e\u4e2d\u90ae\u3001\u987a\u4e30\u3001\u5fb7\u90a6\u3001\u5706\u901a\u3001\u5b85\u6025\u9001\u7b49\u4e00\u7ebf\u901f\u8fd0\u4f01\u4e1a\u5f62\u6210\u5168\u56fd\u5408\u4f5c\u9635\u8425\u3002\u7528\u6237\u53ef\u5728\u7ebf\u5bf9\u6bd4\u4e0b\u5355\uff0c\u4eab\u53d7\u5e73\u53f0\u8865\u8d34\u3002\u4e0b\u5355\u540e\u5ba2\u6237\u9759\u5f85\u5feb\u9012\u5458\u63fd\u4ef6\u3002
p1195
sVRemarkPYInitial
p1196
g43
sVContactFlag
p1197
I3
sVUin
p1198
I0
sVNickName
p1199
V\u767d\u9e3d\u60e0\u9012
p1200
sVAppAccountFlag
p1201
I0
sVVerifyFlag
p1202
I24
sVRemarkPYQuanPin
p1203
g43
sVHeadImgUrl
p1204
V/cgi-bin/mmwebwx-bin/webwxgeticon?seq=673719895&username=@0a91f80a6d495ed638d5bc5a5a884b4c&skey=@crypt_49509d7f_51156ced537e0a1dd33d4945c83a3d97
p1205
sVKeyWord
p1206
Vgh_
p1207
sVProvince
p1208
V\u5c71\u4e1c
p1209
sVPYInitial
p1210
VBGHD
p1211
sVRemarkName
p1212
g43
sVIsOwner
p1213
I0
sVSex
p1214
I0
sVStarFriend
p1215
I0
sVHideInputBarFlag
p1216
I0
sVChatRoomId
p1217
I0
sVEncryChatRoomId
p1218
g43
sVAttrStatus
p1219
I0
sVStatues
p1220
I0
stp1221
Rp1222
I1
batp1223
Rp1224
I1
bssS'loginInfo'
p1225
(dp1226
S'SyncKey'
p1227
(dp1228
VCount
p1229
I4
sVList
p1230
(lp1231
(dp1232
VVal
p1233
I673723017
sVKey
p1234
I1
sa(dp1235
VVal
p1236
I673723088
sVKey
p1237
I2
sa(dp1238
VVal
p1239
I673723018
sVKey
p1240
I3
sa(dp1241
VVal
p1242
I1563925875
sVKey
p1243
I1000
sassS'syncUrl'
p1244
S'https://webpush.wx2.qq.com/cgi-bin/mmwebwx-bin'
p1245
sS'skey'
p1246
V@crypt_49509d7f_51156ced537e0a1dd33d4945c83a3d97
p1247
sS'wxuin'
p1248
V200509586
p1249
sS'synckey'
p1250
S'1_673723017|2_673723088|3_673723018|1000_1563925875'
p1251
sS'url'
p1252
Vhttps://wx2.qq.com/cgi-bin/mmwebwx-bin
p1253
sS'pass_ticket'
p1254
VFYXQzYeJWztMTbIYMXUf4wmVNnui285%2FxbEi9Nwzm2M%3D
p1255
sS'wxsid'
p1256
Vuiev+AhPS7AkV1Cm
p1257
sS'InviteStartCount'
p1258
I40
sS'deviceid'
p1259
S'e451909364861764'
p1260
sS'fileUrl'
p1261
S'https://file.wx2.qq.com/cgi-bin/mmwebwx-bin'
p1262
sS'BaseRequest'
p1263
(dp1264
g45
g1249
sS'Skey'
p1265
g1247
sS'DeviceID'
p1266
g1255
sS'Sid'
p1267
g1257
ssS'User'
p1268
g25
(g29
g30
(dp1269
g32
g22
sg33
g34
sg35
g34
sg36
I0
sg38
g41
sg42
g43
sg44
g43
sg68
I1
sg46
I0
sg47
I0
sg48
g34
sg49
g34
sg50
g43
sg51
g43
sg52
I0
sg53
I0
sg54
I1
sg55
g34
sg56
I0
sg59
I0
sg57
I0
sg58
I0
sg37
I0
sg60
g34
sg61
g43
sg62
I0
sg63
g64
sg65
g43
sg66
g67
sg45
I200509586
sg69
I0
sg70
I0
stp1270
Rp1271
I1
bss.