(dp0
S'cookies'
p1
(dp2
S'wxloadtime'
p3
S'1560821256'
p4
sS'webwx_data_ticket'
p5
S'gSfUdw2fVxGRtyZkIZ7vbXlt'
p6
sS'wxuin'
p7
S'200509586'
p8
sS'login_frequency'
p9
S'2'
p10
sS'MM_WX_NOTIFY_STATE'
p11
S'1'
p12
sS'MM_WX_SOUND_STATE'
p13
g12
sS'webwx_auth_ticket'
p14
S'CIsBEIGR4/0FGoABoFWlA5/fz2vzSFMXyayI6tYIH4IXdR+mvQhXhNcfxgpudv/mV+faiZGE1WmBWkpvgPviqDOQXCC4VDG1/Aw3yGKZOlMKjcYhEsTwhwMzLQIg1hf5UpgZ9yoQ6Bro8LfPa+nOe335twOqMb99J0oBbqbc2dOMoSWirV2zLZ1+pGk='
p15
sS'last_wxuin'
p16
S'200509586'
p17
sS'webwxuvid'
p18
S'd67c82d1011316d7673811e3409b28781876bbba4c1b52acfab654de17b1e8998401369bfd8f88a4f7be1b8079c6640d'
p19
sS'wxpluginkey'
p20
S'1559633900_expired'
p21
sS'wxsid'
p22
S'MWT1pOWuuVsa56IQ'
p23
sS'mm_lang'
p24
S'zh_CN'
p25
ssS'version'
p26
S'1.3.10'
p27
sS'storage'
p28
(dp29
S'userName'
p30
V@165957f9385ac45a81aa4c76e870d8a159bde10c542ad79dc33bfeaa62befc2f
p31
sS'lastInputUserName'
p32
NsS'memberList'
p33
ccopy_reg
_reconstructor
p34
(citchat.storage.templates
ContactList
p35
c__builtin__
list
p36
(lp37
g34
(citchat.storage.templates
User
p38
c__builtin__
dict
p39
(dp40
S'UserName'
p41
g31
sS'City'
p42
S''
p43
sS'DisplayName'
p44
g43
sS'UniFriend'
p45
I0
sS'OwnerUin'
p46
I0
sS'MemberList'
p47
g34
(g35
g36
(lp48
tp49
Rp50
I1
bsS'PYQuanPin'
p51
V
p52
sS'RemarkPYInitial'
p53
g52
sS'Uin'
p54
I200509586
sS'AppAccountFlag'
p55
I0
sS'VerifyFlag'
p56
I0
sS'Province'
p57
g43
sS'KeyWord'
p58
g43
sS'RemarkName'
p59
g52
sS'PYInitial'
p60
g52
sS'ChatRoomId'
p61
I0
sS'HideInputBarFlag'
p62
I0
sVHeadImgFlag
p63
I1
sS'EncryChatRoomId'
p64
g43
sS'AttrStatus'
p65
I0
sS'SnsFlag'
p66
I0
sS'MemberCount'
p67
I0
sVWebWxPluginSwitch
p68
I0
sS'Alias'
p69
g43
sS'Signature'
p70
g52
sS'ContactFlag'
p71
I0
sS'NickName'
p72
V\u673a\u5668\u4eba\u5c0f\u80d6
p73
sS'RemarkPYQuanPin'
p74
g52
sS'HeadImgUrl'
p75
V/cgi-bin/mmwebwx-bin/webwxgeticon?seq=885867742&username=@165957f9385ac45a81aa4c76e870d8a159bde10c542ad79dc33bfeaa62befc2f&skey=@crypt_49509d7f_4d2d51811592a335e15f07a0715abaee
p76
sS'Sex'
p77
I1
sS'StarFriend'
p78
I0
sS'Statues'
p79
I0
stp80
Rp81
I1
bag34
(g38
g39
(dp82
VUserName
p83
V@b2770e930c5cb049ef16b4c6ebbd677a
p84
sVCity
p85
g52
sVSnsFlag
p86
I17
sVDisplayName
p87
g52
sVUniFriend
p88
I0
sVMemberCount
p89
I0
sVOwnerUin
p90
I0
sVMemberList
p91
g50
sVAlias
p92
g52
sVPYQuanPin
p93
VCXY
p94
sVSignature
p95
V\u7b49\u98ce\u4e5f\u7b49\u4f60\u3002
p96
sVRemarkPYInitial
p97
VXYKTX
p98
sVContactFlag
p99
I1
sVUin
p100
I0
sVNickName
p101
V-C_XY-
p102
sVAppAccountFlag
p103
I0
sVVerifyFlag
p104
I0
sVRemarkPYQuanPin
p105
Vxinyongkataoxian
p106
sVHeadImgUrl
p107
V/cgi-bin/mmwebwx-bin/webwxgeticon?seq=673710066&username=@b2770e930c5cb049ef16b4c6ebbd677a&skey=@crypt_49509d7f_4d2d51811592a335e15f07a0715abaee
p108
sVKeyWord
p109
Vwux
p110
sVProvince
p111
g52
sVPYInitial
p112
VCXY
p113
sVRemarkName
p114
V\u4fe1\u7528\u5361\u5957\u73b0
p115
sVIsOwner
p116
I0
sVSex
p117
I2
sVStarFriend
p118
I0
sVHideInputBarFlag
p119
I0
sVChatRoomId
p120
I0
sVEncryChatRoomId
p121
g52
sVAttrStatus
p122
I111719
sVStatues
p123
I0
stp124
Rp125
I1
bag34
(g38
g39
(dp126
VUserName
p127
V@25b98aaeab12194e037efc62273af9bb8ff6d62a4bd03f56cda7115c07ee365d
p128
sVCity
p129
g52
sVSnsFlag
p130
I1
sVDisplayName
p131
g52
sVUniFriend
p132
I0
sVMemberCount
p133
I0
sVOwnerUin
p134
I0
sVMemberList
p135
g50
sVAlias
p136
g52
sVPYQuanPin
p137
VMolly
p138
sVSignature
p139
V\u5c3d\u4eba\u4e8b\u542c\u5929\u610f\uff01
p140
sVRemarkPYInitial
p141
g52
sVContactFlag
p142
I1
sVUin
p143
I0
sVNickName
p144
VMolly
p145
sVAppAccountFlag
p146
I0
sVVerifyFlag
p147
I0
sVRemarkPYQuanPin
p148
g52
sVHeadImgUrl
p149
V/cgi-bin/mmwebwx-bin/webwxgeticon?seq=673715616&username=@25b98aaeab12194e037efc62273af9bb8ff6d62a4bd03f56cda7115c07ee365d&skey=@crypt_49509d7f_4d2d51811592a335e15f07a0715abaee
p150
sVKeyWord
p151
g52
sVProvince
p152
g52
sVPYInitial
p153
VMOLLY
p154
sVRemarkName
p155
g52
sVIsOwner
p156
I0
sVSex
p157
I2
sVStarFriend
p158
I0
sVHideInputBarFlag
p159
I0
sVChatRoomId
p160
I0
sVEncryChatRoomId
p161
g52
sVAttrStatus
p162
I234083
sVStatues
p163
I0
stp164
Rp165
I1
bag34
(g38
g39
(dp166
VUserName
p167
V@c9234d840a11679f734e82b01598365525fced6975147fb4490308b37b0c3d3c
p168
sVCity
p169
g52
sVSnsFlag
p170
I1
sVDisplayName
p171
g52
sVUniFriend
p172
I0
sVMemberCount
p173
I0
sVOwnerUin
p174
I0
sVMemberList
p175
g50
sVAlias
p176
g52
sVPYQuanPin
p177
Vchuanguoliushui
p178
sVSignature
p179
V\u53ea\u4e3a\u4e00\u4eba\u7559
p180
sVRemarkPYInitial
p181
g52
sVContactFlag
p182
I1
sVUin
p183
I0
sVNickName
p184
V\u7a7f\u8fc7\u6d41\u6c34
p185
sVAppAccountFlag
p186
I0
sVVerifyFlag
p187
I0
sVRemarkPYQuanPin
p188
g52
sVHeadImgUrl
p189
V/cgi-bin/mmwebwx-bin/webwxgeticon?seq=673714836&username=@c9234d840a11679f734e82b01598365525fced6975147fb4490308b37b0c3d3c&skey=@crypt_49509d7f_4d2d51811592a335e15f07a0715abaee
p190
sVKeyWord
p191
g52
sVProvince
p192
VKowloon City
p193
sVPYInitial
p194
VCGLS
p195
sVRemarkName
p196
g52
sVIsOwner
p197
I0
sVSex
p198
I1
sVStarFriend
p199
I0
sVHideInputBarFlag
p200
I0
sVChatRoomId
p201
I0
sVEncryChatRoomId
p202
g52
sVAttrStatus
p203
I33690405
sVStatues
p204
I0
stp205
Rp206
I1
bag34
(g38
g39
(dp207
VUserName
p208
V@8093ad75536a939078dadedaa3e93f7a9f8fc6c794db0f4cc78081e90c6001f6
p209
sVCity
p210
V\u6d66\u4e1c\u65b0\u533a
p211
sVSnsFlag
p212
I1
sVDisplayName
p213
g52
sVUniFriend
p214
I0
sVMemberCount
p215
I0
sVOwnerUin
p216
I0
sVMemberList
p217
g50
sVAlias
p218
g52
sVPYQuanPin
p219
Vyannispanclassemojiemoji1f485span?
p220
sVSignature
p221
V\u4f60\u82e5\u76db\u5f00\uff0c\u8774\u8776\u81ea\u6765\u2026\u2026
p222
sVRemarkPYInitial
p223
g52
sVContactFlag
p224
I1
sVUin
p225
I0
sVNickName
p226
V\u71d5\u59ae\U0001f485\U0001f3fb
p227
sVAppAccountFlag
p228
I0
sVVerifyFlag
p229
I0
sVRemarkPYQuanPin
p230
g52
sVHeadImgUrl
p231
V/cgi-bin/mmwebwx-bin/webwxgeticon?seq=673715724&username=@8093ad75536a939078dadedaa3e93f7a9f8fc6c794db0f4cc78081e90c6001f6&skey=@crypt_49509d7f_4d2d51811592a335e15f07a0715abaee
p232
sVKeyWord
p233
g52
sVProvince
p234
V\u4e0a\u6d77
p235
sVPYInitial
p236
VYNSPANCLASSEMOJIEMOJI1F485SPAN?
p237
sVRemarkName
p238
g52
sVIsOwner
p239
I0
sVSex
p240
I2
sVStarFriend
p241
I0
sVHideInputBarFlag
p242
I0
sVChatRoomId
p243
I0
sVEncryChatRoomId
p244
g52
sVAttrStatus
p245
I103205
sVStatues
p246
I0
stp247
Rp248
I1
bag34
(g38
g39
(dp249
VUserName
p250
V@577d1b053de9bb230e2106d903c59581ed601c33d1879a485efa728159d39ec3
p251
sVCity
p252
g52
sVSnsFlag
p253
I1
sVDisplayName
p254
g52
sVUniFriend
p255
I0
sVMemberCount
p256
I0
sVOwnerUin
p257
I0
sVMemberList
p258
g50
sVAlias
p259
g52
sVPYQuanPin
p260
Vmeiniang
p261
sVSignature
p262
g52
sVRemarkPYInitial
p263
g52
sVContactFlag
p264
I3
sVUin
p265
I0
sVNickName
p266
V\u5a9a\u5a18
p267
sVAppAccountFlag
p268
I0
sVVerifyFlag
p269
I0
sVRemarkPYQuanPin
p270
g52
sVHeadImgUrl
p271
V/cgi-bin/mmwebwx-bin/webwxgeticon?seq=673716400&username=@577d1b053de9bb230e2106d903c59581ed601c33d1879a485efa728159d39ec3&skey=@crypt_49509d7f_4d2d51811592a335e15f07a0715abaee
p272
sVKeyWord
p273
g52
sVProvince
p274
g52
sVPYInitial
p275
VMN
p276
sVRemarkName
p277
g52
sVIsOwner
p278
I0
sVSex
p279
I1
sVStarFriend
p280
I0
sVHideInputBarFlag
p281
I0
sVChatRoomId
p282
I0
sVEncryChatRoomId
p283
g52
sVAttrStatus
p284
I234081
sVStatues
p285
I0
stp286
Rp287
I1
bag34
(g38
g39
(dp288
VUserName
p289
V@8776c930d6932cdb455b6aa1fdb64a88f7bb1c9d45742d3f55dc12448996482a
p290
sVCity
p291
g52
sVSnsFlag
p292
I1
sVDisplayName
p293
g52
sVUniFriend
p294
I0
sVMemberCount
p295
I0
sVOwnerUin
p296
I0
sVMemberList
p297
g50
sVAlias
p298
g52
sVPYQuanPin
p299
VAkuaidiyouhuiquanbudingjigengxin
p300
sVSignature
p301
V\u963f\u8fea\u8fbe\u65af\u7ae5\u88c5  \u65ad\u7801\u7279\u4ef7
p302
sVRemarkPYInitial
p303
g52
sVContactFlag
p304
I3
sVUin
p305
I0
sVNickName
p306
VA\u5feb\u9012\u4f18\u60e0\u5238 \u4e0d\u5b9a\u671f\u66f4\u65b0
p307
sVAppAccountFlag
p308
I0
sVVerifyFlag
p309
I0
sVRemarkPYQuanPin
p310
g52
sVHeadImgUrl
p311
V/cgi-bin/mmwebwx-bin/webwxgeticon?seq=673716439&username=@8776c930d6932cdb455b6aa1fdb64a88f7bb1c9d45742d3f55dc12448996482a&skey=@crypt_49509d7f_4d2d51811592a335e15f07a0715abaee
p312
sVKeyWord
p313
g52
sVProvince
p314
g52
sVPYInitial
p315
VAKDYHQBDJGX
p316
sVRemarkName
p317
g52
sVIsOwner
p318
I0
sVSex
p319
I1
sVStarFriend
p320
I0
sVHideInputBarFlag
p321
I0
sVChatRoomId
p322
I0
sVEncryChatRoomId
p323
g52
sVAttrStatus
p324
I135205
sVStatues
p325
I0
stp326
Rp327
I1
bag34
(g38
g39
(dp328
VUserName
p329
V@932c5491ff3b71057eea2660b2389418
p330
sVCity
p331
V\u4e1c\u57ce
p332
sVSnsFlag
p333
I17
sVDisplayName
p334
g52
sVUniFriend
p335
I0
sVMemberCount
p336
I0
sVOwnerUin
p337
I0
sVMemberList
p338
g50
sVAlias
p339
g52
sVPYQuanPin
p340
Vpengcheng
p341
sVSignature
p342
V\u672a\u6765\u4e0d\u8fce\uff0c\u5f53\u65f6\u4e0d\u6742\uff0c\u8fc7\u5f80\u4e0d\u604b
p343
sVRemarkPYInitial
p344
g52
sVContactFlag
p345
I3
sVUin
p346
I0
sVNickName
p347
V\u9e4f\u7a0b
p348
sVAppAccountFlag
p349
I0
sVVerifyFlag
p350
I0
sVRemarkPYQuanPin
p351
g52
sVHeadImgUrl
p352
V/cgi-bin/mmwebwx-bin/webwxgeticon?seq=669180196&username=@932c5491ff3b71057eea2660b2389418&skey=@crypt_49509d7f_4d2d51811592a335e15f07a0715abaee
p353
sVKeyWord
p354
Vwar
p355
sVProvince
p356
V\u5317\u4eac
p357
sVPYInitial
p358
VPC
p359
sVRemarkName
p360
g52
sVIsOwner
p361
I0
sVSex
p362
I1
sVStarFriend
p363
I0
sVHideInputBarFlag
p364
I0
sVChatRoomId
p365
I0
sVEncryChatRoomId
p366
g52
sVAttrStatus
p367
I33691111
sVStatues
p368
I0
stp369
Rp370
I1
bag34
(g38
g39
(dp371
VUserName
p372
V@a5799de9b9b6a637f7660ddac642c9c6c463ba77e4064ae6a25b59a1b88f2f7d
p373
sVCity
p374
V\u90af\u90f8
p375
sVSnsFlag
p376
I1
sVDisplayName
p377
g52
sVUniFriend
p378
I0
sVMemberCount
p379
I0
sVOwnerUin
p380
I0
sVMemberList
p381
g50
sVAlias
p382
g52
sVPYQuanPin
p383
Vniming
p384
sVSignature
p385
V<span class="emoji emoji1f63a"></span> <span class="emoji emoji1f63a"></span> <span class="emoji emoji1f63a"></span> <span class="emoji emoji1f63a"></span> <span class="emoji emoji1f63a"></span>
p386
sVRemarkPYInitial
p387
g52
sVContactFlag
p388
I3
sVUin
p389
I0
sVNickName
p390
V\u533f\u540d
p391
sVAppAccountFlag
p392
I0
sVVerifyFlag
p393
I0
sVRemarkPYQuanPin
p394
g52
sVHeadImgUrl
p395
V/cgi-bin/mmwebwx-bin/webwxgeticon?seq=673718011&username=@a5799de9b9b6a637f7660ddac642c9c6c463ba77e4064ae6a25b59a1b88f2f7d&skey=@crypt_49509d7f_4d2d51811592a335e15f07a0715abaee
p396
sVKeyWord
p397
g52
sVProvince
p398
V\u6cb3\u5317
p399
sVPYInitial
p400
VNM
p401
sVRemarkName
p402
g52
sVIsOwner
p403
I0
sVSex
p404
I1
sVStarFriend
p405
I0
sVHideInputBarFlag
p406
I0
sVChatRoomId
p407
I0
sVEncryChatRoomId
p408
g52
sVAttrStatus
p409
I33657149
sVStatues
p410
I0
stp411
Rp412
I1
bag34
(g38
g39
(dp413
VUserName
p414
V@55236f1d0e3e490b90927cefa1b4da72
p415
sVCity
p416
V\u65e0\u9521
p417
sVSnsFlag
p418
I177
sVDisplayName
p419
g52
sVUniFriend
p420
I0
sVMemberCount
p421
I0
sVOwnerUin
p422
I0
sVMemberList
p423
g50
sVAlias
p424
g52
sVPYQuanPin
p425
VjietouebaZip
p426
sVSignature
p427
VStreet Bully\u521b\u59cb\u4eba\u3001\u72d7\u4e0d\u61c2\u521b\u59cb\u4eba\uff0c\u72d7\u884c\u4e3a\u5b66\u3001\u5fc3\u7406\u5b66\u7814\u7a76\u8005
p428
sVRemarkPYInitial
p429
g52
sVContactFlag
p430
I1
sVUin
p431
I0
sVNickName
p432
V\u8857\u982d\u60e1\u9738\u3010Zip\u3011
p433
sVAppAccountFlag
p434
I0
sVVerifyFlag
p435
I0
sVRemarkPYQuanPin
p436
g52
sVHeadImgUrl
p437
V/cgi-bin/mmwebwx-bin/webwxgeticon?seq=673713460&username=@55236f1d0e3e490b90927cefa1b4da72&skey=@crypt_49509d7f_4d2d51811592a335e15f07a0715abaee
p438
sVKeyWord
p439
Vtr8
p440
sVProvince
p441
V\u6c5f\u82cf
p442
sVPYInitial
p443
VJTEBZIP
p444
sVRemarkName
p445
g52
sVIsOwner
p446
I0
sVSex
p447
I1
sVStarFriend
p448
I0
sVHideInputBarFlag
p449
I0
sVChatRoomId
p450
I0
sVEncryChatRoomId
p451
g52
sVAttrStatus
p452
I2147564455
sVStatues
p453
I0
stp454
Rp455
I1
bag34
(g38
g39
(dp456
VUserName
p457
V@d8026c22c618bec92876f6449de7c3b065923ce91c5504dcd35f605afe5d95cc
p458
sVCity
p459
V\u5305\u5934
p460
sVSnsFlag
p461
I1
sVDisplayName
p462
g52
sVUniFriend
p463
I0
sVMemberCount
p464
I0
sVOwnerUin
p465
I0
sVMemberList
p466
g50
sVAlias
p467
g52
sVPYQuanPin
p468
Vxiaoqing
p469
sVSignature
p470
g52
sVRemarkPYInitial
p471
g52
sVContactFlag
p472
I3
sVUin
p473
I0
sVNickName
p474
V\u5c0f\u9752
p475
sVAppAccountFlag
p476
I0
sVVerifyFlag
p477
I0
sVRemarkPYQuanPin
p478
g52
sVHeadImgUrl
p479
V/cgi-bin/mmwebwx-bin/webwxgeticon?seq=673718930&username=@d8026c22c618bec92876f6449de7c3b065923ce91c5504dcd35f605afe5d95cc&skey=@crypt_49509d7f_4d2d51811592a335e15f07a0715abaee
p480
sVKeyWord
p481
g52
sVProvince
p482
V\u5185\u8499\u53e4
p483
sVPYInitial
p484
VXQ
p485
sVRemarkName
p486
g52
sVIsOwner
p487
I0
sVSex
p488
I1
sVStarFriend
p489
I0
sVHideInputBarFlag
p490
I0
sVChatRoomId
p491
I0
sVEncryChatRoomId
p492
g52
sVAttrStatus
p493
I234109
sVStatues
p494
I0
stp495
Rp496
I1
bag34
(g38
g39
(dp497
VUserName
p498
V@f17573f2995f976aec80ca6f8e3b48fe770498c240b3950fcc9240d179c86adf
p499
sVCity
p500
g52
sVSnsFlag
p501
I1
sVDisplayName
p502
g52
sVUniFriend
p503
I0
sVMemberCount
p504
I0
sVOwnerUin
p505
I0
sVMemberList
p506
g50
sVAlias
p507
g52
sVPYQuanPin
p508
Vqinghuida2019
p509
sVSignature
p510
V\u8bda\u5fc3\u6b63\u610f\uff0c\u505a\u5fc3\u5e95\u8ba4\u4e3a\u6b63\u786e\u7684\u4e8b
p511
sVRemarkPYInitial
p512
VCLAIRTINDER
p513
sVContactFlag
p514
I3
sVUin
p515
I0
sVNickName
p516
V\u8bf7\u56de\u7b542019
p517
sVAppAccountFlag
p518
I0
sVVerifyFlag
p519
I0
sVRemarkPYQuanPin
p520
VClairTinder
p521
sVHeadImgUrl
p522
V/cgi-bin/mmwebwx-bin/webwxgeticon?seq=673719286&username=@f17573f2995f976aec80ca6f8e3b48fe770498c240b3950fcc9240d179c86adf&skey=@crypt_49509d7f_4d2d51811592a335e15f07a0715abaee
p523
sVKeyWord
p524
g52
sVProvince
p525
g52
sVPYInitial
p526
VQHD2019
p527
sVRemarkName
p528
VClair Tinder
p529
sVIsOwner
p530
I0
sVSex
p531
I0
sVStarFriend
p532
I0
sVHideInputBarFlag
p533
I0
sVChatRoomId
p534
I0
sVEncryChatRoomId
p535
g52
sVAttrStatus
p536
I233509
sVStatues
p537
I0
stp538
Rp539
I1
bag34
(g38
g39
(dp540
VUserName
p541
V@67700ccdbeabb0ea177603b8496a0830c5f4cd6dc6d78a299f60dafc036f9ac1
p542
sVCity
p543
V\u90af\u90f8
p544
sVSnsFlag
p545
I1
sVDisplayName
p546
g52
sVUniFriend
p547
I0
sVMemberCount
p548
I0
sVOwnerUin
p549
I0
sVMemberList
p550
g50
sVAlias
p551
g52
sVPYQuanPin
p552
Vyuyuchaojikeaispanclassemojiemoji1f495span
p553
sVSignature
p554
V\u5b87\u5b87\u4e0d\u6536\u4e8c\u624b\u5783\u573e\u3002
p555
sVRemarkPYInitial
p556
g52
sVContactFlag
p557
I3
sVUin
p558
I0
sVNickName
p559
V\u5b87\u5b87\u7092\u9e21\u53ef\u7231\U0001f495
p560
sVAppAccountFlag
p561
I0
sVVerifyFlag
p562
I0
sVRemarkPYQuanPin
p563
g52
sVHeadImgUrl
p564
V/cgi-bin/mmwebwx-bin/webwxgeticon?seq=673719601&username=@67700ccdbeabb0ea177603b8496a0830c5f4cd6dc6d78a299f60dafc036f9ac1&skey=@crypt_49509d7f_4d2d51811592a335e15f07a0715abaee
p565
sVKeyWord
p566
g52
sVProvince
p567
V\u6cb3\u5317
p568
sVPYInitial
p569
VYYCJKASPANCLASSEMOJIEMOJI1F495SPAN
p570
sVRemarkName
p571
g52
sVIsOwner
p572
I0
sVSex
p573
I2
sVStarFriend
p574
I0
sVHideInputBarFlag
p575
I0
sVChatRoomId
p576
I0
sVEncryChatRoomId
p577
g52
sVAttrStatus
p578
I102949
sVStatues
p579
I0
stp580
Rp581
I1
bag34
(g38
g39
(dp582
VUserName
p583
V@f164d6ba98e09511b2cf43a137ceb94fcb222769579a9bf9dd57faaa8f63f48e
p584
sVCity
p585
V\u53a6\u95e8
p586
sVSnsFlag
p587
I1
sVDisplayName
p588
g52
sVUniFriend
p589
I0
sVMemberCount
p590
I0
sVOwnerUin
p591
I0
sVMemberList
p592
g50
sVAlias
p593
g52
sVPYQuanPin
p594
Vfeisehuiyi
p595
sVSignature
p596
V\u505a\u4e2a\u6e29\u67d4\uff0c\u9738\u6c14\u7684\uff0c\u6dd1\u5973\U0001f643\U0001f643
p597
sVRemarkPYInitial
p598
g52
sVContactFlag
p599
I1
sVUin
p600
I0
sVNickName
p601
V\u83f2\u8272\u56de\u5fc6
p602
sVAppAccountFlag
p603
I0
sVVerifyFlag
p604
I0
sVRemarkPYQuanPin
p605
g52
sVHeadImgUrl
p606
V/cgi-bin/mmwebwx-bin/webwxgeticon?seq=673715277&username=@f164d6ba98e09511b2cf43a137ceb94fcb222769579a9bf9dd57faaa8f63f48e&skey=@crypt_49509d7f_4d2d51811592a335e15f07a0715abaee
p607
sVKeyWord
p608
g52
sVProvince
p609
V\u798f\u5efa
p610
sVPYInitial
p611
VFSHY
p612
sVRemarkName
p613
g52
sVIsOwner
p614
I0
sVSex
p615
I2
sVStarFriend
p616
I0
sVHideInputBarFlag
p617
I0
sVChatRoomId
p618
I0
sVEncryChatRoomId
p619
g52
sVAttrStatus
p620
I102589
sVStatues
p621
I0
stp622
Rp623
I1
bag34
(g38
g39
(dp624
VUserName
p625
V@79c24a61e4614942516024be8c318ed88fe69f8b84e11ed6546709bc95c31e88
p626
sVCity
p627
g52
sVSnsFlag
p628
I1
sVDisplayName
p629
g52
sVUniFriend
p630
I0
sVMemberCount
p631
I0
sVOwnerUin
p632
I0
sVMemberList
p633
g50
sVAlias
p634
g52
sVPYQuanPin
p635
VSimpler?
p636
sVSignature
p637
VHierarchy
p638
sVRemarkPYInitial
p639
g52
sVContactFlag
p640
I1
sVUin
p641
I0
sVNickName
p642
VSimpler\U0001f408
p643
sVAppAccountFlag
p644
I0
sVVerifyFlag
p645
I0
sVRemarkPYQuanPin
p646
g52
sVHeadImgUrl
p647
V/cgi-bin/mmwebwx-bin/webwxgeticon?seq=673719582&username=@79c24a61e4614942516024be8c318ed88fe69f8b84e11ed6546709bc95c31e88&skey=@crypt_49509d7f_4d2d51811592a335e15f07a0715abaee
p648
sVKeyWord
p649
g52
sVProvince
p650
g52
sVPYInitial
p651
VSIMPLER?
p652
sVRemarkName
p653
g52
sVIsOwner
p654
I0
sVSex
p655
I2
sVStarFriend
p656
I0
sVHideInputBarFlag
p657
I0
sVChatRoomId
p658
I0
sVEncryChatRoomId
p659
g52
sVAttrStatus
p660
I234277
sVStatues
p661
I0
stp662
Rp663
I1
bag34
(g38
g39
(dp664
VUserName
p665
V@ca36dd0d42e0eeca53c84c1c2844b3f8d74bee25dc97b8fa5d5e631e87c07cdf
p666
sVCity
p667
VOthers
p668
sVSnsFlag
p669
I1
sVDisplayName
p670
g52
sVUniFriend
p671
I0
sVMemberCount
p672
I0
sVOwnerUin
p673
I0
sVMemberList
p674
g50
sVAlias
p675
g52
sVPYQuanPin
p676
Vabbyhuanerspanclassemojiemoji1f48bspanspanclassemojiemoji1f6baspan
p677
sVSignature
p678
V\u8ba9\u8721\u70db\u4ee3\u66ff\u6240\u6709\u706f \u8ba9\u97f3\u4e50\u4ee3\u66ff\u8bdd\u8bed\u58f0 \u6b64\u65f6\u65e0\u58f0\u80dc\u6709\u58f0
p679
sVRemarkPYInitial
p680
g52
sVContactFlag
p681
I1
sVUin
p682
I0
sVNickName
p683
Vabby\u6b22\u513f\U0001f48b\U0001f6ba
p684
sVAppAccountFlag
p685
I0
sVVerifyFlag
p686
I0
sVRemarkPYQuanPin
p687
g52
sVHeadImgUrl
p688
V/cgi-bin/mmwebwx-bin/webwxgeticon?seq=673719319&username=@ca36dd0d42e0eeca53c84c1c2844b3f8d74bee25dc97b8fa5d5e631e87c07cdf&skey=@crypt_49509d7f_4d2d51811592a335e15f07a0715abaee
p689
sVKeyWord
p690
g52
sVProvince
p691
VKuala Lumpur
p692
sVPYInitial
p693
VABBYHESPANCLASSEMOJIEMOJI1F48BSPANSPANCLASSEMOJIEMOJI1F6BASPAN
p694
sVRemarkName
p695
g52
sVIsOwner
p696
I0
sVSex
p697
I2
sVStarFriend
p698
I0
sVHideInputBarFlag
p699
I0
sVChatRoomId
p700
I0
sVEncryChatRoomId
p701
g52
sVAttrStatus
p702
I33656865
sVStatues
p703
I0
stp704
Rp705
I1
batp706
Rp707
I1
bsS'chatroomList'
p708
g34
(g35
g36
(lp709
g34
(citchat.storage.templates
Chatroom
p710
g39
(dp711
VUserName
p712
V@@9756a0f0ea8428c930a3015378321489ae34499d368df9857acdbafc414c49c1
p713
sVCity
p714
g52
sVDisplayName
p715
g52
sVUniFriend
p716
I0
sS'Self'
p717
g34
(g38
g39
(dp718
g41
g31
sg42
g43
sg44
g43
sg45
I0
sg46
I0
sg47
g34
(g35
g36
(lp719
tp720
Rp721
I1
bsg51
g52
sg53
g52
sg54
I200509586
sg55
I0
sg56
I0
sg57
g43
sg58
g43
sg59
g52
sg60
g52
sg61
I0
sg62
I0
sg63
I1
sg64
g43
sg65
I0
sg66
I0
sg67
I0
sg68
I0
sg69
g43
sg70
g52
sg71
I0
sg72
g73
sg74
g52
sg75
g76
sg77
I1
sg78
I0
sg79
I0
stp722
Rp723
I1
bsVMemberList
p724
g34
(g35
g36
(lp725
tp726
Rp727
I1
bsVPYQuanPin
p728
g52
sVRemarkPYInitial
p729
g52
sVSex
p730
I0
sVAppAccountFlag
p731
I0
sVVerifyFlag
p732
I0
sVProvince
p733
g52
sVKeyWord
p734
g52
sVRemarkName
p735
g52
sVPYInitial
p736
g52
sVIsOwner
p737
I0
sVChatRoomId
p738
I0
sVHideInputBarFlag
p739
I0
sVEncryChatRoomId
p740
g52
sVAttrStatus
p741
I0
sVSnsFlag
p742
I0
sVMemberCount
p743
I499
sVOwnerUin
p744
I0
sVAlias
p745
g52
sS'IsAdmin'
p746
NsVSignature
p747
g52
sVContactFlag
p748
I2
sVNickName
p749
VRedis\u6280\u672f\u4ea4\u6d41\u7fa4
p750
sVRemarkPYQuanPin
p751
g52
sVHeadImgUrl
p752
V/cgi-bin/mmwebwx-bin/webwxgetheadimg?seq=673720974&username=@@9756a0f0ea8428c930a3015378321489ae34499d368df9857acdbafc414c49c1&skey=@crypt_49509d7f_4d2d51811592a335e15f07a0715abaee
p753
sVUin
p754
I0
sVStarFriend
p755
I0
sVStatues
p756
I1
stp757
Rp758
I1
bag34
(g710
g39
(dp759
VUserName
p760
V@@287a41f613969d741ec8e1edcf3cef6471a3054f3da749ade5bf3fdab3dc66b8
p761
sVCity
p762
g52
sVDisplayName
p763
g52
sVUniFriend
p764
I0
sg717
g34
(g38
g39
(dp765
g41
g31
sg42
g43
sg44
g43
sg45
I0
sg46
I0
sg47
g34
(g35
g36
(lp766
tp767
Rp768
I1
bsg51
g52
sg53
g52
sg54
I200509586
sg55
I0
sg56
I0
sg57
g43
sg58
g43
sg59
g52
sg60
g52
sg61
I0
sg62
I0
sg63
I1
sg64
g43
sg65
I0
sg66
I0
sg67
I0
sg68
I0
sg69
g43
sg70
g52
sg71
I0
sg72
g73
sg74
g52
sg75
g76
sg77
I1
sg78
I0
sg79
I0
stp769
Rp770
I1
bsVMemberList
p771
g34
(g35
g36
(lp772
tp773
Rp774
I1
bsVPYQuanPin
p775
g52
sVRemarkPYInitial
p776
g52
sVSex
p777
I0
sVAppAccountFlag
p778
I0
sVVerifyFlag
p779
I0
sVProvince
p780
g52
sVKeyWord
p781
g52
sVRemarkName
p782
g52
sVPYInitial
p783
g52
sVIsOwner
p784
I0
sVChatRoomId
p785
I0
sVHideInputBarFlag
p786
I0
sVEncryChatRoomId
p787
g52
sVAttrStatus
p788
I0
sVSnsFlag
p789
I0
sVMemberCount
p790
I480
sVOwnerUin
p791
I0
sVAlias
p792
g52
sg746
NsVSignature
p793
g52
sVContactFlag
p794
I0
sVNickName
p795
VRedis\u6280\u672f\u4ea4\u6d41\u7fa42
p796
sVRemarkPYQuanPin
p797
g52
sVHeadImgUrl
p798
V/cgi-bin/mmwebwx-bin/webwxgetheadimg?seq=0&username=@@287a41f613969d741ec8e1edcf3cef6471a3054f3da749ade5bf3fdab3dc66b8&skey=@crypt_49509d7f_4d2d51811592a335e15f07a0715abaee
p799
sVUin
p800
I0
sVStarFriend
p801
I0
sVStatues
p802
I1
stp803
Rp804
I1
batp805
Rp806
I1
bsS'nickName'
p807
g73
sS'mpList'
p808
g34
(g35
g36
(lp809
g34
(citchat.storage.templates
MassivePlatform
p810
g39
(dp811
VUserName
p812
V@68cef14cc4b01885faf87c0aaff4c471
p813
sVCity
p814
V\u6df1\u5733
p815
sVSnsFlag
p816
I0
sVDisplayName
p817
g52
sVUniFriend
p818
I0
sVMemberCount
p819
I0
sVOwnerUin
p820
I0
sVMemberList
p821
g50
sVAlias
p822
g52
sVPYQuanPin
p823
Vfengchaozhinenggui
p824
sVSignature
p825
V\u5173\u6ce8\u4e30\u5de2\u670d\u52a1\u53f7\uff0c\u7b2c\u4e00\u65f6\u95f4\u63a5\u6536\u60a8\u7684\u5feb\u4ef6\u7269\u6d41\u63d0\u9192\uff01\u63d0\u4f9b24\u5c0f\u65f6\u81ea\u52a9\u5bc4\u5feb\u9012\u3001\u7535\u5546\u8d2d\u7269\u3001\u6682\u5b58\u7269\u54c1\u3001\u5a92\u4f53\u4e92\u52a8\u7b49\u4e00\u7ad9\u5f0f\u751f\u6d3b\u670d\u52a1\uff0c\u8ba9\u751f\u6d3b\u66f4\u7b80\u5355\uff01
p826
sVRemarkPYInitial
p827
g52
sVContactFlag
p828
I3
sVUin
p829
I0
sVNickName
p830
V\u4e30\u5de2\u667a\u80fd\u67dc
p831
sVAppAccountFlag
p832
I0
sVVerifyFlag
p833
I24
sVRemarkPYQuanPin
p834
g52
sVHeadImgUrl
p835
V/cgi-bin/mmwebwx-bin/webwxgeticon?seq=673711737&username=@68cef14cc4b01885faf87c0aaff4c471&skey=@crypt_49509d7f_4d2d51811592a335e15f07a0715abaee
p836
sVKeyWord
p837
Vgh_
p838
sVProvince
p839
V\u5e7f\u4e1c
p840
sVPYInitial
p841
VFCZNG
p842
sVRemarkName
p843
g52
sVIsOwner
p844
I0
sVSex
p845
I0
sVStarFriend
p846
I0
sVHideInputBarFlag
p847
I0
sVChatRoomId
p848
I0
sVEncryChatRoomId
p849
g52
sVAttrStatus
p850
I0
sVStatues
p851
I0
stp852
Rp853
I1
bag34
(g810
g39
(dp854
VUserName
p855
V@5cbfad968e241d07e1656d3091850855
p856
sVCity
p857
V\u5e7f\u5dde
p858
sVSnsFlag
p859
I0
sVDisplayName
p860
g52
sVUniFriend
p861
I0
sVMemberCount
p862
I0
sVOwnerUin
p863
I0
sVMemberList
p864
g50
sVAlias
p865
g52
sVPYQuanPin
p866
Vyikushaonv
p867
sVSignature
p868
V\u5173\u6ce8\u4e0d\u4e86\uff1f \u8bf7\u641c\u7d22\u5173\u6ce8\uff1a\u5947\u8da3\u62a5\u793e\u65b0\u53f7
p869
sVRemarkPYInitial
p870
g52
sVContactFlag
p871
I3
sVUin
p872
I0
sVNickName
p873
V\u4e00\u5e93\u5c11\u5973
p874
sVAppAccountFlag
p875
I0
sVVerifyFlag
p876
I8
sVRemarkPYQuanPin
p877
g52
sVHeadImgUrl
p878
V/cgi-bin/mmwebwx-bin/webwxgeticon?seq=673712037&username=@5cbfad968e241d07e1656d3091850855&skey=@crypt_49509d7f_4d2d51811592a335e15f07a0715abaee
p879
sVKeyWord
p880
Vgh_
p881
sVProvince
p882
V\u5e7f\u4e1c
p883
sVPYInitial
p884
VYKSN
p885
sVRemarkName
p886
g52
sVIsOwner
p887
I0
sVSex
p888
I0
sVStarFriend
p889
I0
sVHideInputBarFlag
p890
I0
sVChatRoomId
p891
I0
sVEncryChatRoomId
p892
g52
sVAttrStatus
p893
I0
sVStatues
p894
I0
stp895
Rp896
I1
bag34
(g810
g39
(dp897
VUserName
p898
V@a32a1562c02f2374c04b6a26e3633fa4
p899
sVCity
p900
V\u6df1\u5733
p901
sVSnsFlag
p902
I0
sVDisplayName
p903
g52
sVUniFriend
p904
I0
sVMemberCount
p905
I0
sVOwnerUin
p906
I0
sVMemberList
p907
g50
sVAlias
p908
g52
sVPYQuanPin
p909
Vqiyueyingku
p910
sVSignature
p911
V\u56e0\u4e3a\u7231\u7535\u5f71\uff0c\u6240\u4ee5\u4e0d\u5bc2\u5bde\u3002
p912
sVRemarkPYInitial
p913
g52
sVContactFlag
p914
I3
sVUin
p915
I0
sVNickName
p916
V\u4e03\u6708\u5f71\u5e93
p917
sVAppAccountFlag
p918
I0
sVVerifyFlag
p919
I24
sVRemarkPYQuanPin
p920
g52
sVHeadImgUrl
p921
V/cgi-bin/mmwebwx-bin/webwxgeticon?seq=673715022&username=@a32a1562c02f2374c04b6a26e3633fa4&skey=@crypt_49509d7f_4d2d51811592a335e15f07a0715abaee
p922
sVKeyWord
p923
Vgh_
p924
sVProvince
p925
V\u5e7f\u4e1c
p926
sVPYInitial
p927
VQYYK
p928
sVRemarkName
p929
g52
sVIsOwner
p930
I0
sVSex
p931
I0
sVStarFriend
p932
I0
sVHideInputBarFlag
p933
I0
sVChatRoomId
p934
I0
sVEncryChatRoomId
p935
g52
sVAttrStatus
p936
I0
sVStatues
p937
I0
stp938
Rp939
I1
bag34
(g810
g39
(dp940
VUserName
p941
V@f6f9f904f9284e0531f5b52d217cde53
p942
sVCity
p943
V\u9752\u6d66
p944
sVSnsFlag
p945
I0
sVDisplayName
p946
g52
sVUniFriend
p947
I0
sVMemberCount
p948
I0
sVOwnerUin
p949
I0
sVMemberList
p950
g50
sVAlias
p951
g52
sVPYQuanPin
p952
Vdebangkuaidi
p953
sVSignature
p954
V\u5173\u6ce8\u7acb\u4eab2\u52305\u5143\u4f18\u60e0\u5238\uff0c\u5b9e\u65f6\u83b7\u53d6\u8d27\u7269\u52a8\u6001
p955
sVRemarkPYInitial
p956
g52
sVContactFlag
p957
I3
sVUin
p958
I0
sVNickName
p959
V\u5fb7\u90a6\u5feb\u9012
p960
sVAppAccountFlag
p961
I0
sVVerifyFlag
p962
I24
sVRemarkPYQuanPin
p963
g52
sVHeadImgUrl
p964
V/cgi-bin/mmwebwx-bin/webwxgeticon?seq=673716437&username=@f6f9f904f9284e0531f5b52d217cde53&skey=@crypt_49509d7f_4d2d51811592a335e15f07a0715abaee
p965
sVKeyWord
p966
Vgh_
p967
sVProvince
p968
V\u4e0a\u6d77
p969
sVPYInitial
p970
VDBKD
p971
sVRemarkName
p972
g52
sVIsOwner
p973
I0
sVSex
p974
I0
sVStarFriend
p975
I0
sVHideInputBarFlag
p976
I0
sVChatRoomId
p977
I0
sVEncryChatRoomId
p978
g52
sVAttrStatus
p979
I0
sVStatues
p980
I0
stp981
Rp982
I1
bag34
(g810
g39
(dp983
VUserName
p984
V@5e6a3c2647ff54972231a1debddeb0ad
p985
sVCity
p986
V\u6df1\u5733
p987
sVSnsFlag
p988
I0
sVDisplayName
p989
g52
sVUniFriend
p990
I0
sVMemberCount
p991
I0
sVOwnerUin
p992
I0
sVMemberList
p993
g50
sVAlias
p994
g52
sVPYQuanPin
p995
Vshunfengsuyun
p996
sVSignature
p997
V\u6700\u4fbf\u6377\u7684\u987a\u4e30\u901f\u8fd0\u81ea\u52a9\u670d\u52a1\u5e73\u53f0\u3002\u4e0b\u5355\u5bc4\u4ef6\uff0c \u53ca\u65f6\u8ffd\u8e2a\u5feb\u4ef6\u72b6\u6001\uff0c\u4e3b\u52a8\u63a8\u9001\u8def\u7531\u4fe1\u606f\uff0c\u540c\u65f6\u8ba2\u5355\u7ba1\u7406\u3001\u5730\u5740\u7c3f\u7ba1\u7406\u8ba9\u60a8\u653e\u5fc3\u3001\u8212\u5fc3\u3002\u6211\u4eec\u4e00\u76f4\u5728\u52aa\u529b\uff01
p998
sVRemarkPYInitial
p999
g52
sVContactFlag
p1000
I3
sVUin
p1001
I0
sVNickName
p1002
V\u987a\u4e30\u901f\u8fd0
p1003
sVAppAccountFlag
p1004
I0
sVVerifyFlag
p1005
I24
sVRemarkPYQuanPin
p1006
g52
sVHeadImgUrl
p1007
V/cgi-bin/mmwebwx-bin/webwxgeticon?seq=673719418&username=@5e6a3c2647ff54972231a1debddeb0ad&skey=@crypt_49509d7f_4d2d51811592a335e15f07a0715abaee
p1008
sVKeyWord
p1009
Vgh_
p1010
sVProvince
p1011
V\u5e7f\u4e1c
p1012
sVPYInitial
p1013
VSFSY
p1014
sVRemarkName
p1015
g52
sVIsOwner
p1016
I0
sVSex
p1017
I0
sVStarFriend
p1018
I0
sVHideInputBarFlag
p1019
I0
sVChatRoomId
p1020
I0
sVEncryChatRoomId
p1021
g52
sVAttrStatus
p1022
I0
sVStatues
p1023
I0
stp1024
Rp1025
I1
bag34
(g810
g39
(dp1026
VUserName
p1027
V@0e1dd8c7dfd30389dcaddc72d22c6233
p1028
sVCity
p1029
V\u6d4e\u5357
p1030
sVSnsFlag
p1031
I0
sVDisplayName
p1032
g52
sVUniFriend
p1033
I0
sVMemberCount
p1034
I0
sVOwnerUin
p1035
I0
sVMemberList
p1036
g50
sVAlias
p1037
g52
sVPYQuanPin
p1038
Vbaigehuidi
p1039
sVSignature
p1040
V\u767d\u9e3d\u60e0\u9012\u4e3a\u5feb\u9012\u7269\u6d41\u4e1a\u52a1\u7684\u7f51\u4e0a\u4e0b\u5355\u5e73\u53f0\u3002\u4e0e\u4e2d\u90ae\u3001\u987a\u4e30\u3001\u5fb7\u90a6\u3001\u5706\u901a\u3001\u5b85\u6025\u9001\u7b49\u4e00\u7ebf\u901f\u8fd0\u4f01\u4e1a\u5f62\u6210\u5168\u56fd\u5408\u4f5c\u9635\u8425\u3002\u7528\u6237\u53ef\u5728\u7ebf\u5bf9\u6bd4\u4e0b\u5355\uff0c\u4eab\u53d7\u5e73\u53f0\u8865\u8d34\u3002\u4e0b\u5355\u540e\u5ba2\u6237\u9759\u5f85\u5feb\u9012\u5458\u63fd\u4ef6\u3002
p1041
sVRemarkPYInitial
p1042
g52
sVContactFlag
p1043
I3
sVUin
p1044
I0
sVNickName
p1045
V\u767d\u9e3d\u60e0\u9012
p1046
sVAppAccountFlag
p1047
I0
sVVerifyFlag
p1048
I24
sVRemarkPYQuanPin
p1049
g52
sVHeadImgUrl
p1050
V/cgi-bin/mmwebwx-bin/webwxgeticon?seq=673719895&username=@0e1dd8c7dfd30389dcaddc72d22c6233&skey=@crypt_49509d7f_4d2d51811592a335e15f07a0715abaee
p1051
sVKeyWord
p1052
Vgh_
p1053
sVProvince
p1054
V\u5c71\u4e1c
p1055
sVPYInitial
p1056
VBGHD
p1057
sVRemarkName
p1058
g52
sVIsOwner
p1059
I0
sVSex
p1060
I0
sVStarFriend
p1061
I0
sVHideInputBarFlag
p1062
I0
sVChatRoomId
p1063
I0
sVEncryChatRoomId
p1064
g52
sVAttrStatus
p1065
I0
sVStatues
p1066
I0
stp1067
Rp1068
I1
batp1069
Rp1070
I1
bssS'loginInfo'
p1071
(dp1072
S'SyncKey'
p1073
(dp1074
VCount
p1075
I4
sVList
p1076
(lp1077
(dp1078
VVal
p1079
I673720907
sVKey
p1080
I1
sa(dp1081
VVal
p1082
I673720988
sVKey
p1083
I2
sa(dp1084
VVal
p1085
I673720955
sVKey
p1086
I3
sa(dp1087
VVal
p1088
I1560819600
sVKey
p1089
I1000
sassS'syncUrl'
p1090
S'https://webpush.wx2.qq.com/cgi-bin/mmwebwx-bin'
p1091
sS'skey'
p1092
V@crypt_49509d7f_4d2d51811592a335e15f07a0715abaee
p1093
sS'wxuin'
p1094
V200509586
p1095
sS'synckey'
p1096
S'1_673720907|2_673720988|3_673720955|1000_1560819600'
p1097
sS'url'
p1098
Vhttps://wx2.qq.com/cgi-bin/mmwebwx-bin
p1099
sS'pass_ticket'
p1100
VFdtEomx2ejhauIRl55F4n4hhUdnNRr3ueVL%2FTHCjMCc%3D
p1101
sS'deviceid'
p1102
S'e278715061603601'
p1103
sS'wxsid'
p1104
VMWT1pOWuuVsa56IQ
p1105
sS'InviteStartCount'
p1106
I40
sS'fileUrl'
p1107
S'https://file.wx2.qq.com/cgi-bin/mmwebwx-bin'
p1108
sS'BaseRequest'
p1109
(dp1110
g54
g1095
sS'Skey'
p1111
g1093
sS'DeviceID'
p1112
g1101
sS'Sid'
p1113
g1105
ssS'User'
p1114
g34
(g38
g39
(dp1115
g41
g31
sg42
g43
sg44
g43
sg45
I0
sg47
g50
sg51
g52
sg53
g52
sg77
I1
sg55
I0
sg56
I0
sg57
g43
sg58
g43
sg59
g52
sg60
g52
sg61
I0
sg62
I0
sg63
I1
sg64
g43
sg65
I0
sg68
I0
sg66
I0
sg67
I0
sg46
I0
sg69
g43
sg70
g52
sg71
I0
sg72
g73
sg74
g52
sg75
g76
sg54
I200509586
sg78
I0
sg79
I0
stp1116
Rp1117
I1
bss.