(dp0
S'cookies'
p1
(dp2
S'wxloadtime'
p3
S'1568872924'
p4
sS'webwx_data_ticket'
p5
S'gScmhHQqxxGUNjeTyX+8H6Ok'
p6
sS'wxuin'
p7
S'200509586'
p8
sS'login_frequency'
p9
S'2'
p10
sS'MM_WX_NOTIFY_STATE'
p11
S'1'
p12
sS'MM_WX_SOUND_STATE'
p13
g12
sS'webwx_auth_ticket'
p14
S'CIsBENqOx7gGGoAB9FPX/63u0gec2g4qop6Q/hyUKB2qlYLxh1QhYG5FOLITjEcddai2GrjBFvduoPlNIXWRXRz7XspFvBUMq1580nM6Wbl04k3NTVBBuvxbaxJnER4iWNrayDfH4f5YpbF46IECFyKVL2T1SHPFYLLbTrgXYJ1IAwQ+jPWIrn7GY7g='
p15
sS'last_wxuin'
p16
S'200509586'
p17
sS'webwxuvid'
p18
S'ef16bd48961c4320b665ac296596e4e69e4cd8e37ab5bc5a5e670c7371d270e94edea3796545176d5792e690a9bdbc8a'
p19
sS'wxpluginkey'
p20
S'1567867829'
p21
sS'wxsid'
p22
S'34VzfbrSI7vvt65s'
p23
sS'mm_lang'
p24
S'zh_CN'
p25
ssS'version'
p26
S'1.3.10'
p27
sS'storage'
p28
(dp29
S'userName'
p30
V@d13f70c03d2a70e7ee6f82784783502038dc549df666ffad5376e461ea9c48d9
p31
sS'lastInputUserName'
p32
NsS'memberList'
p33
ccopy_reg
_reconstructor
p34
(citchat.storage.templates
ContactList
p35
c__builtin__
list
p36
(lp37
g34
(citchat.storage.templates
User
p38
c__builtin__
dict
p39
(dp40
S'UserName'
p41
g31
sS'City'
p42
S''
p43
sS'DisplayName'
p44
g43
sS'UniFriend'
p45
I0
sS'OwnerUin'
p46
I0
sS'MemberList'
p47
g34
(g35
g36
(lp48
tp49
Rp50
I1
bsS'PYQuanPin'
p51
V
p52
sS'RemarkPYInitial'
p53
g52
sS'Uin'
p54
I200509586
sS'AppAccountFlag'
p55
I0
sS'VerifyFlag'
p56
I0
sS'Province'
p57
g43
sS'KeyWord'
p58
g43
sS'RemarkName'
p59
g52
sS'PYInitial'
p60
g52
sS'ChatRoomId'
p61
I0
sS'HideInputBarFlag'
p62
I0
sVHeadImgFlag
p63
I1
sS'EncryChatRoomId'
p64
g43
sS'AttrStatus'
p65
I0
sS'SnsFlag'
p66
I0
sS'MemberCount'
p67
I0
sVWebWxPluginSwitch
p68
I0
sS'Alias'
p69
g43
sS'Signature'
p70
g52
sS'ContactFlag'
p71
I0
sS'NickName'
p72
V\u673a\u5668\u4eba\u5c0f\u80d6
p73
sS'RemarkPYQuanPin'
p74
g52
sS'HeadImgUrl'
p75
V/cgi-bin/mmwebwx-bin/webwxgeticon?seq=774827487&username=@d13f70c03d2a70e7ee6f82784783502038dc549df666ffad5376e461ea9c48d9&skey=@crypt_49509d7f_b2acd22354321f48e89dbb364688dfb4
p76
sS'Sex'
p77
I1
sS'StarFriend'
p78
I0
sS'Statues'
p79
I0
stp80
Rp81
I1
bag34
(g38
g39
(dp82
VUserName
p83
V@e1c77e0fc3de32692461be87f9123d13
p84
sVCity
p85
V\u4e1c\u57ce
p86
sVSnsFlag
p87
I17
sVDisplayName
p88
g52
sVUniFriend
p89
I0
sVMemberCount
p90
I0
sVOwnerUin
p91
I0
sVMemberList
p92
g50
sVAlias
p93
g52
sVPYQuanPin
p94
Vpengcheng
p95
sVSignature
p96
V\u672a\u6765\u4e0d\u8fce\uff0c\u5f53\u65f6\u4e0d\u6742\uff0c\u8fc7\u5f80\u4e0d\u604b
p97
sVRemarkPYInitial
p98
g52
sVContactFlag
p99
I3
sVUin
p100
I0
sVNickName
p101
V\u9e4f\u7a0b
p102
sVAppAccountFlag
p103
I0
sVVerifyFlag
p104
I0
sVRemarkPYQuanPin
p105
g52
sVHeadImgUrl
p106
V/cgi-bin/mmwebwx-bin/webwxgeticon?seq=669180196&username=@e1c77e0fc3de32692461be87f9123d13&skey=@crypt_49509d7f_b2acd22354321f48e89dbb364688dfb4
p107
sVKeyWord
p108
Vwar
p109
sVProvince
p110
V\u5317\u4eac
p111
sVPYInitial
p112
VPC
p113
sVRemarkName
p114
g52
sVIsOwner
p115
I0
sVSex
p116
I1
sVStarFriend
p117
I0
sVHideInputBarFlag
p118
I0
sVChatRoomId
p119
I0
sVEncryChatRoomId
p120
g52
sVAttrStatus
p121
I33691111
sVStatues
p122
I0
stp123
Rp124
I1
bag34
(g38
g39
(dp125
VUserName
p126
V@1cb781e01d563eb667336ff1fe5cdff7
p127
sVCity
p128
g52
sVSnsFlag
p129
I17
sVDisplayName
p130
g52
sVUniFriend
p131
I0
sVMemberCount
p132
I0
sVOwnerUin
p133
I0
sVMemberList
p134
g50
sVAlias
p135
g52
sVPYQuanPin
p136
VCXY
p137
sVSignature
p138
V\u7b49\u98ce\u4e5f\u7b49\u4f60\u3002
p139
sVRemarkPYInitial
p140
VXYKTX
p141
sVContactFlag
p142
I1
sVUin
p143
I0
sVNickName
p144
V-C_XY-
p145
sVAppAccountFlag
p146
I0
sVVerifyFlag
p147
I0
sVRemarkPYQuanPin
p148
Vxinyongkataoxian
p149
sVHeadImgUrl
p150
V/cgi-bin/mmwebwx-bin/webwxgeticon?seq=673710066&username=@1cb781e01d563eb667336ff1fe5cdff7&skey=@crypt_49509d7f_b2acd22354321f48e89dbb364688dfb4
p151
sVKeyWord
p152
Vwux
p153
sVProvince
p154
g52
sVPYInitial
p155
VCXY
p156
sVRemarkName
p157
V\u4fe1\u7528\u5361\u5957\u73b0
p158
sVIsOwner
p159
I0
sVSex
p160
I2
sVStarFriend
p161
I0
sVHideInputBarFlag
p162
I0
sVChatRoomId
p163
I0
sVEncryChatRoomId
p164
g52
sVAttrStatus
p165
I111719
sVStatues
p166
I0
stp167
Rp168
I1
bag34
(g38
g39
(dp169
VUserName
p170
V@be4f54fe2dbd8dd08f9df7faef3c0098098aacc34b7aaee63f4e72f47f83e183
p171
sVCity
p172
g52
sVSnsFlag
p173
I1
sVDisplayName
p174
g52
sVUniFriend
p175
I0
sVMemberCount
p176
I0
sVOwnerUin
p177
I0
sVMemberList
p178
g50
sVAlias
p179
g52
sVPYQuanPin
p180
Vchuanguoliushui
p181
sVSignature
p182
V\u53ea\u4e3a\u4e00\u4eba\u7559
p183
sVRemarkPYInitial
p184
g52
sVContactFlag
p185
I1
sVUin
p186
I0
sVNickName
p187
V\u7a7f\u8fc7\u6d41\u6c34
p188
sVAppAccountFlag
p189
I0
sVVerifyFlag
p190
I0
sVRemarkPYQuanPin
p191
g52
sVHeadImgUrl
p192
V/cgi-bin/mmwebwx-bin/webwxgeticon?seq=673714836&username=@be4f54fe2dbd8dd08f9df7faef3c0098098aacc34b7aaee63f4e72f47f83e183&skey=@crypt_49509d7f_b2acd22354321f48e89dbb364688dfb4
p193
sVKeyWord
p194
g52
sVProvince
p195
VKowloon City
p196
sVPYInitial
p197
VCGLS
p198
sVRemarkName
p199
g52
sVIsOwner
p200
I0
sVSex
p201
I1
sVStarFriend
p202
I0
sVHideInputBarFlag
p203
I0
sVChatRoomId
p204
I0
sVEncryChatRoomId
p205
g52
sVAttrStatus
p206
I33690405
sVStatues
p207
I0
stp208
Rp209
I1
bag34
(g38
g39
(dp210
VUserName
p211
V@8ed697e0f7ee0ae01a92b38d08474a7e104ea1cfa4ac68189757d86a3ad156e8
p212
sVCity
p213
g52
sVSnsFlag
p214
I1
sVDisplayName
p215
g52
sVUniFriend
p216
I0
sVMemberCount
p217
I0
sVOwnerUin
p218
I0
sVMemberList
p219
g50
sVAlias
p220
g52
sVPYQuanPin
p221
VAkuaidiyouhuiquanbudingjigengxin
p222
sVSignature
p223
V\u963f\u8fea\u8fbe\u65af\u7ae5\u88c5  \u65ad\u7801\u7279\u4ef7
p224
sVRemarkPYInitial
p225
g52
sVContactFlag
p226
I3
sVUin
p227
I0
sVNickName
p228
VA\u5feb\u9012\u4f18\u60e0\u5238 \u4e0d\u5b9a\u671f\u66f4\u65b0
p229
sVAppAccountFlag
p230
I0
sVVerifyFlag
p231
I0
sVRemarkPYQuanPin
p232
g52
sVHeadImgUrl
p233
V/cgi-bin/mmwebwx-bin/webwxgeticon?seq=673716439&username=@8ed697e0f7ee0ae01a92b38d08474a7e104ea1cfa4ac68189757d86a3ad156e8&skey=@crypt_49509d7f_b2acd22354321f48e89dbb364688dfb4
p234
sVKeyWord
p235
g52
sVProvince
p236
g52
sVPYInitial
p237
VAKDYHQBDJGX
p238
sVRemarkName
p239
g52
sVIsOwner
p240
I0
sVSex
p241
I1
sVStarFriend
p242
I0
sVHideInputBarFlag
p243
I0
sVChatRoomId
p244
I0
sVEncryChatRoomId
p245
g52
sVAttrStatus
p246
I135205
sVStatues
p247
I0
stp248
Rp249
I1
bag34
(g38
g39
(dp250
VUserName
p251
V@a3ecb222c6572a1541745aea04e65bdae0713d38067f2e56ab24024c5cd86d23
p252
sVCity
p253
g52
sVSnsFlag
p254
I1
sVDisplayName
p255
g52
sVUniFriend
p256
I0
sVMemberCount
p257
I0
sVOwnerUin
p258
I0
sVMemberList
p259
g50
sVAlias
p260
g52
sVPYQuanPin
p261
Vbanjialvyou
p262
sVSignature
p263
g52
sVRemarkPYInitial
p264
g52
sVContactFlag
p265
I3
sVUin
p266
I0
sVNickName
p267
V\u534a\u4ef7\u65c5\u6e38
p268
sVAppAccountFlag
p269
I0
sVVerifyFlag
p270
I0
sVRemarkPYQuanPin
p271
g52
sVHeadImgUrl
p272
V/cgi-bin/mmwebwx-bin/webwxgeticon?seq=673722419&username=@a3ecb222c6572a1541745aea04e65bdae0713d38067f2e56ab24024c5cd86d23&skey=@crypt_49509d7f_b2acd22354321f48e89dbb364688dfb4
p273
sVKeyWord
p274
g52
sVProvince
p275
g52
sVPYInitial
p276
VBJLY
p277
sVRemarkName
p278
g52
sVIsOwner
p279
I0
sVSex
p280
I0
sVStarFriend
p281
I0
sVHideInputBarFlag
p282
I0
sVChatRoomId
p283
I0
sVEncryChatRoomId
p284
g52
sVAttrStatus
p285
I135269
sVStatues
p286
I0
stp287
Rp288
I1
bag34
(g38
g39
(dp289
VUserName
p290
V@4e7fe42fca42b1ebc63a5342d082c50b8b15de0de9b2dac598ac22bf00a996e0
p291
sVCity
p292
V\u671d\u9633
p293
sVSnsFlag
p294
I1
sVDisplayName
p295
g52
sVUniFriend
p296
I0
sVMemberCount
p297
I0
sVOwnerUin
p298
I0
sVMemberList
p299
g50
sVAlias
p300
g52
sVPYQuanPin
p301
Vxiaomaoshugadian
p302
sVSignature
p303
V\u5907\u6ce8\u6765\u610f+\u54ea\u91cc\u770b\u5230\u5fae\u4fe1\u53f7\uff0c\u4e0d\u5907\u6ce8\u4e0d\u901a\u8fc7
p304
sVRemarkPYInitial
p305
g52
sVContactFlag
p306
I3
sVUin
p307
I0
sVNickName
p308
V\u5c0f\u732b\u4e66\u5496\u5e97
p309
sVAppAccountFlag
p310
I0
sVVerifyFlag
p311
I0
sVRemarkPYQuanPin
p312
g52
sVHeadImgUrl
p313
V/cgi-bin/mmwebwx-bin/webwxgeticon?seq=673723018&username=@4e7fe42fca42b1ebc63a5342d082c50b8b15de0de9b2dac598ac22bf00a996e0&skey=@crypt_49509d7f_b2acd22354321f48e89dbb364688dfb4
p314
sVKeyWord
p315
g52
sVProvince
p316
V\u5317\u4eac
p317
sVPYInitial
p318
VXMSGD
p319
sVRemarkName
p320
g52
sVIsOwner
p321
I0
sVSex
p322
I2
sVStarFriend
p323
I0
sVHideInputBarFlag
p324
I0
sVChatRoomId
p325
I0
sVEncryChatRoomId
p326
g52
sVAttrStatus
p327
I4645
sVStatues
p328
I0
stp329
Rp330
I1
bag34
(g38
g39
(dp331
VUserName
p332
V@8b7eb6b62ac760ed9c63d38a57ec7249f89c083a1e3dc2e7f5ac3d096dfc6f62
p333
sVCity
p334
g52
sVSnsFlag
p335
I1
sVDisplayName
p336
g52
sVUniFriend
p337
I0
sVMemberCount
p338
I0
sVOwnerUin
p339
I0
sVMemberList
p340
g50
sVAlias
p341
g52
sVPYQuanPin
p342
VSimpler?
p343
sVSignature
p344
VHierarchy
p345
sVRemarkPYInitial
p346
g52
sVContactFlag
p347
I1
sVUin
p348
I0
sVNickName
p349
VSimpler\U0001f408
p350
sVAppAccountFlag
p351
I0
sVVerifyFlag
p352
I0
sVRemarkPYQuanPin
p353
g52
sVHeadImgUrl
p354
V/cgi-bin/mmwebwx-bin/webwxgeticon?seq=673719582&username=@8b7eb6b62ac760ed9c63d38a57ec7249f89c083a1e3dc2e7f5ac3d096dfc6f62&skey=@crypt_49509d7f_b2acd22354321f48e89dbb364688dfb4
p355
sVKeyWord
p356
g52
sVProvince
p357
g52
sVPYInitial
p358
VSIMPLER?
p359
sVRemarkName
p360
g52
sVIsOwner
p361
I0
sVSex
p362
I2
sVStarFriend
p363
I0
sVHideInputBarFlag
p364
I0
sVChatRoomId
p365
I0
sVEncryChatRoomId
p366
g52
sVAttrStatus
p367
I234277
sVStatues
p368
I0
stp369
Rp370
I1
bag34
(g38
g39
(dp371
VUserName
p372
V@ae328d8f66b176b91bd7991a07c0066800ad922943324aa67f8769c6aa99ae9c
p373
sVCity
p374
g52
sVSnsFlag
p375
I1
sVDisplayName
p376
g52
sVUniFriend
p377
I0
sVMemberCount
p378
I0
sVOwnerUin
p379
I0
sVMemberList
p380
g50
sVAlias
p381
g52
sVPYQuanPin
p382
VMolly
p383
sVSignature
p384
V\u5c3d\u4eba\u4e8b\u542c\u5929\u610f\uff01
p385
sVRemarkPYInitial
p386
g52
sVContactFlag
p387
I1
sVUin
p388
I0
sVNickName
p389
VMolly
p390
sVAppAccountFlag
p391
I0
sVVerifyFlag
p392
I0
sVRemarkPYQuanPin
p393
g52
sVHeadImgUrl
p394
V/cgi-bin/mmwebwx-bin/webwxgeticon?seq=673715616&username=@ae328d8f66b176b91bd7991a07c0066800ad922943324aa67f8769c6aa99ae9c&skey=@crypt_49509d7f_b2acd22354321f48e89dbb364688dfb4
p395
sVKeyWord
p396
g52
sVProvince
p397
g52
sVPYInitial
p398
VMOLLY
p399
sVRemarkName
p400
g52
sVIsOwner
p401
I0
sVSex
p402
I2
sVStarFriend
p403
I0
sVHideInputBarFlag
p404
I0
sVChatRoomId
p405
I0
sVEncryChatRoomId
p406
g52
sVAttrStatus
p407
I234083
sVStatues
p408
I0
stp409
Rp410
I1
bag34
(g38
g39
(dp411
VUserName
p412
V@65d246b1cd06db214cd3169bd2c90f88f44913c33e6a73ff232853b6fb52458c
p413
sVCity
p414
V\u5305\u5934
p415
sVSnsFlag
p416
I1
sVDisplayName
p417
g52
sVUniFriend
p418
I0
sVMemberCount
p419
I0
sVOwnerUin
p420
I0
sVMemberList
p421
g50
sVAlias
p422
g52
sVPYQuanPin
p423
Vxiaoqing
p424
sVSignature
p425
g52
sVRemarkPYInitial
p426
g52
sVContactFlag
p427
I1
sVUin
p428
I0
sVNickName
p429
V\u5c0f\u9752
p430
sVAppAccountFlag
p431
I0
sVVerifyFlag
p432
I0
sVRemarkPYQuanPin
p433
g52
sVHeadImgUrl
p434
V/cgi-bin/mmwebwx-bin/webwxgeticon?seq=673718930&username=@65d246b1cd06db214cd3169bd2c90f88f44913c33e6a73ff232853b6fb52458c&skey=@crypt_49509d7f_b2acd22354321f48e89dbb364688dfb4
p435
sVKeyWord
p436
g52
sVProvince
p437
V\u5185\u8499\u53e4
p438
sVPYInitial
p439
VXQ
p440
sVRemarkName
p441
g52
sVIsOwner
p442
I0
sVSex
p443
I1
sVStarFriend
p444
I0
sVHideInputBarFlag
p445
I0
sVChatRoomId
p446
I0
sVEncryChatRoomId
p447
g52
sVAttrStatus
p448
I234109
sVStatues
p449
I0
stp450
Rp451
I1
bag34
(g38
g39
(dp452
VUserName
p453
V@ea3d2f19fffe0ca7a5e238505330965a16a302d1f95ebfcbc0ce97fe3054fbb0
p454
sVCity
p455
V\u6d66\u4e1c\u65b0\u533a
p456
sVSnsFlag
p457
I1
sVDisplayName
p458
g52
sVUniFriend
p459
I0
sVMemberCount
p460
I0
sVOwnerUin
p461
I0
sVMemberList
p462
g50
sVAlias
p463
g52
sVPYQuanPin
p464
Vyannispanclassemojiemoji1f485span?
p465
sVSignature
p466
V\u4f60\u82e5\u76db\u5f00\uff0c\u8774\u8776\u81ea\u6765\u2026\u2026
p467
sVRemarkPYInitial
p468
g52
sVContactFlag
p469
I1
sVUin
p470
I0
sVNickName
p471
V\u71d5\u59ae\U0001f485\U0001f3fb
p472
sVAppAccountFlag
p473
I0
sVVerifyFlag
p474
I0
sVRemarkPYQuanPin
p475
g52
sVHeadImgUrl
p476
V/cgi-bin/mmwebwx-bin/webwxgeticon?seq=673715724&username=@ea3d2f19fffe0ca7a5e238505330965a16a302d1f95ebfcbc0ce97fe3054fbb0&skey=@crypt_49509d7f_b2acd22354321f48e89dbb364688dfb4
p477
sVKeyWord
p478
g52
sVProvince
p479
V\u4e0a\u6d77
p480
sVPYInitial
p481
VYNSPANCLASSEMOJIEMOJI1F485SPAN?
p482
sVRemarkName
p483
g52
sVIsOwner
p484
I0
sVSex
p485
I2
sVStarFriend
p486
I0
sVHideInputBarFlag
p487
I0
sVChatRoomId
p488
I0
sVEncryChatRoomId
p489
g52
sVAttrStatus
p490
I103205
sVStatues
p491
I0
stp492
Rp493
I1
bag34
(g38
g39
(dp494
VUserName
p495
V@b65d317e12c1d95653900f3413c27552d0e2c0496522a0b98e6cac27d9a206ed
p496
sVCity
p497
V\u90af\u90f8
p498
sVSnsFlag
p499
I1
sVDisplayName
p500
g52
sVUniFriend
p501
I0
sVMemberCount
p502
I0
sVOwnerUin
p503
I0
sVMemberList
p504
g50
sVAlias
p505
g52
sVPYQuanPin
p506
Vniming
p507
sVSignature
p508
V<span class="emoji emoji1f63a"></span> <span class="emoji emoji1f63a"></span> <span class="emoji emoji1f63a"></span> <span class="emoji emoji1f63a"></span> <span class="emoji emoji1f63a"></span>
p509
sVRemarkPYInitial
p510
g52
sVContactFlag
p511
I1
sVUin
p512
I0
sVNickName
p513
V\u533f\u540d
p514
sVAppAccountFlag
p515
I0
sVVerifyFlag
p516
I0
sVRemarkPYQuanPin
p517
g52
sVHeadImgUrl
p518
V/cgi-bin/mmwebwx-bin/webwxgeticon?seq=673718011&username=@b65d317e12c1d95653900f3413c27552d0e2c0496522a0b98e6cac27d9a206ed&skey=@crypt_49509d7f_b2acd22354321f48e89dbb364688dfb4
p519
sVKeyWord
p520
g52
sVProvince
p521
V\u6cb3\u5317
p522
sVPYInitial
p523
VNM
p524
sVRemarkName
p525
g52
sVIsOwner
p526
I0
sVSex
p527
I1
sVStarFriend
p528
I0
sVHideInputBarFlag
p529
I0
sVChatRoomId
p530
I0
sVEncryChatRoomId
p531
g52
sVAttrStatus
p532
I33657021
sVStatues
p533
I0
stp534
Rp535
I1
bag34
(g38
g39
(dp536
VUserName
p537
V@501942785d822cc890ce5f6eaf2e131214c4046b29d99e9f99302b86e365a1a5
p538
sVCity
p539
V\u90af\u90f8
p540
sVSnsFlag
p541
I1
sVDisplayName
p542
g52
sVUniFriend
p543
I0
sVMemberCount
p544
I0
sVOwnerUin
p545
I0
sVMemberList
p546
g50
sVAlias
p547
g52
sVPYQuanPin
p548
Vningbeisenwu
p549
sVSignature
p550
V\u5b87\u5b87\u4e0d\u6536\u4e8c\u624b\u5783\u573e\u3002
p551
sVRemarkPYInitial
p552
g52
sVContactFlag
p553
I1
sVUin
p554
I0
sVNickName
p555
V\u67e0\u5317\u68ee\u5c4b\u3002
p556
sVAppAccountFlag
p557
I0
sVVerifyFlag
p558
I0
sVRemarkPYQuanPin
p559
g52
sVHeadImgUrl
p560
V/cgi-bin/mmwebwx-bin/webwxgeticon?seq=673721821&username=@501942785d822cc890ce5f6eaf2e131214c4046b29d99e9f99302b86e365a1a5&skey=@crypt_49509d7f_b2acd22354321f48e89dbb364688dfb4
p561
sVKeyWord
p562
g52
sVProvince
p563
V\u6cb3\u5317
p564
sVPYInitial
p565
VNBSW
p566
sVRemarkName
p567
g52
sVIsOwner
p568
I0
sVSex
p569
I2
sVStarFriend
p570
I0
sVHideInputBarFlag
p571
I0
sVChatRoomId
p572
I0
sVEncryChatRoomId
p573
g52
sVAttrStatus
p574
I102945
sVStatues
p575
I0
stp576
Rp577
I1
bag34
(g38
g39
(dp578
VUserName
p579
V@0f6c824013b87d8fd6cd198fd050262f8ac5339af3563ba575056350d9b24ee8
p580
sVCity
p581
g52
sVSnsFlag
p582
I1
sVDisplayName
p583
g52
sVUniFriend
p584
I0
sVMemberCount
p585
I0
sVOwnerUin
p586
I0
sVMemberList
p587
g50
sVAlias
p588
g52
sVPYQuanPin
p589
Vqinghuida2019
p590
sVSignature
p591
V\u8bda\u5fc3\u6b63\u610f\uff0c\u505a\u5fc3\u5e95\u8ba4\u4e3a\u6b63\u786e\u7684\u4e8b
p592
sVRemarkPYInitial
p593
VCLAIRTINDER
p594
sVContactFlag
p595
I1
sVUin
p596
I0
sVNickName
p597
V\u8bf7\u56de\u7b542019
p598
sVAppAccountFlag
p599
I0
sVVerifyFlag
p600
I0
sVRemarkPYQuanPin
p601
VClairTinder
p602
sVHeadImgUrl
p603
V/cgi-bin/mmwebwx-bin/webwxgeticon?seq=673719286&username=@0f6c824013b87d8fd6cd198fd050262f8ac5339af3563ba575056350d9b24ee8&skey=@crypt_49509d7f_b2acd22354321f48e89dbb364688dfb4
p604
sVKeyWord
p605
g52
sVProvince
p606
g52
sVPYInitial
p607
VQHD2019
p608
sVRemarkName
p609
VClair Tinder
p610
sVIsOwner
p611
I0
sVSex
p612
I0
sVStarFriend
p613
I0
sVHideInputBarFlag
p614
I0
sVChatRoomId
p615
I0
sVEncryChatRoomId
p616
g52
sVAttrStatus
p617
I233509
sVStatues
p618
I0
stp619
Rp620
I1
bag34
(g38
g39
(dp621
VUserName
p622
V@7c605ecd7e4e6795af3764ff7789b74f7bf1df72e5c8a00ddacfd6c82a27c546
p623
sVCity
p624
V\u53a6\u95e8
p625
sVSnsFlag
p626
I1
sVDisplayName
p627
g52
sVUniFriend
p628
I0
sVMemberCount
p629
I0
sVOwnerUin
p630
I0
sVMemberList
p631
g50
sVAlias
p632
g52
sVPYQuanPin
p633
Vfeisehuiyi
p634
sVSignature
p635
V\u505a\u4e2a\u6e29\u67d4\uff0c\u9738\u6c14\u7684\uff0c\u6dd1\u5973\U0001f643\U0001f643
p636
sVRemarkPYInitial
p637
g52
sVContactFlag
p638
I1
sVUin
p639
I0
sVNickName
p640
V\u83f2\u8272\u56de\u5fc6
p641
sVAppAccountFlag
p642
I0
sVVerifyFlag
p643
I0
sVRemarkPYQuanPin
p644
g52
sVHeadImgUrl
p645
V/cgi-bin/mmwebwx-bin/webwxgeticon?seq=673715277&username=@7c605ecd7e4e6795af3764ff7789b74f7bf1df72e5c8a00ddacfd6c82a27c546&skey=@crypt_49509d7f_b2acd22354321f48e89dbb364688dfb4
p646
sVKeyWord
p647
g52
sVProvince
p648
V\u798f\u5efa
p649
sVPYInitial
p650
VFSHY
p651
sVRemarkName
p652
g52
sVIsOwner
p653
I0
sVSex
p654
I2
sVStarFriend
p655
I0
sVHideInputBarFlag
p656
I0
sVChatRoomId
p657
I0
sVEncryChatRoomId
p658
g52
sVAttrStatus
p659
I102589
sVStatues
p660
I0
stp661
Rp662
I1
bag34
(g38
g39
(dp663
VUserName
p664
V@19eeff0cb594edf554c5c5b49e3160a7
p665
sVCity
p666
V\u65e0\u9521
p667
sVSnsFlag
p668
I177
sVDisplayName
p669
g52
sVUniFriend
p670
I0
sVMemberCount
p671
I0
sVOwnerUin
p672
I0
sVMemberList
p673
g50
sVAlias
p674
g52
sVPYQuanPin
p675
VjietouebaZip
p676
sVSignature
p677
VStreet Bully &amp; \u72d7\u4e0d\u61c2\u521b\u59cb\u4eba
p678
sVRemarkPYInitial
p679
g52
sVContactFlag
p680
I1
sVUin
p681
I0
sVNickName
p682
V\u8857\u982d\u60e1\u9738\u3010Zip\u3011
p683
sVAppAccountFlag
p684
I0
sVVerifyFlag
p685
I0
sVRemarkPYQuanPin
p686
g52
sVHeadImgUrl
p687
V/cgi-bin/mmwebwx-bin/webwxgeticon?seq=673713460&username=@19eeff0cb594edf554c5c5b49e3160a7&skey=@crypt_49509d7f_b2acd22354321f48e89dbb364688dfb4
p688
sVKeyWord
p689
Vtr8
p690
sVProvince
p691
V\u6c5f\u82cf
p692
sVPYInitial
p693
VJTEBZIP
p694
sVRemarkName
p695
g52
sVIsOwner
p696
I0
sVSex
p697
I1
sVStarFriend
p698
I0
sVHideInputBarFlag
p699
I0
sVChatRoomId
p700
I0
sVEncryChatRoomId
p701
g52
sVAttrStatus
p702
I2147564455
sVStatues
p703
I0
stp704
Rp705
I1
bag34
(g38
g39
(dp706
VUserName
p707
V@7f6b2c58c4a935aaa798a8e742029ccad42dc7cbc9e6d2b27feab10fcd8535ba
p708
sVCity
p709
V\u5e7f\u5dde
p710
sVSnsFlag
p711
I1
sVDisplayName
p712
g52
sVUniFriend
p713
I0
sVMemberCount
p714
I0
sVOwnerUin
p715
I0
sVMemberList
p716
g50
sVAlias
p717
g52
sVPYQuanPin
p718
VAzhengshubanlizhaodaili
p719
sVSignature
p720
V\u8d28\u91cf\u4e0e\u8bda\u4fe1\u5e76\u5b58\uff01\u62db\u4ee3\u7406\uff01
p721
sVRemarkPYInitial
p722
g52
sVContactFlag
p723
I3
sVUin
p724
I0
sVNickName
p725
VA\u8bc1\u4e66\u529e\u7406(\u62db\u4ee3\u7406)
p726
sVAppAccountFlag
p727
I0
sVVerifyFlag
p728
I0
sVRemarkPYQuanPin
p729
g52
sVHeadImgUrl
p730
V/cgi-bin/mmwebwx-bin/webwxgeticon?seq=673725399&username=@7f6b2c58c4a935aaa798a8e742029ccad42dc7cbc9e6d2b27feab10fcd8535ba&skey=@crypt_49509d7f_b2acd22354321f48e89dbb364688dfb4
p731
sVKeyWord
p732
g52
sVProvince
p733
V\u5e7f\u4e1c
p734
sVPYInitial
p735
VAZSBLZDL
p736
sVRemarkName
p737
g52
sVIsOwner
p738
I0
sVSex
p739
I1
sVStarFriend
p740
I0
sVHideInputBarFlag
p741
I0
sVChatRoomId
p742
I0
sVEncryChatRoomId
p743
g52
sVAttrStatus
p744
I5053
sVStatues
p745
I0
stp746
Rp747
I1
bag34
(g38
g39
(dp748
VUserName
p749
V@ac5fd2187523967b080efd145598d3c4d293a14f93044510b9a8138ab2fc9cb2
p750
sVCity
p751
VOthers
p752
sVSnsFlag
p753
I1
sVDisplayName
p754
g52
sVUniFriend
p755
I0
sVMemberCount
p756
I0
sVOwnerUin
p757
I0
sVMemberList
p758
g50
sVAlias
p759
g52
sVPYQuanPin
p760
VEmilyC
p761
sVSignature
p762
V\u65f6\u95f4\u8bc1\u660e\u4e00\u5207
p763
sVRemarkPYInitial
p764
g52
sVContactFlag
p765
I1
sVUin
p766
I0
sVNickName
p767
VEmilyC
p768
sVAppAccountFlag
p769
I0
sVVerifyFlag
p770
I0
sVRemarkPYQuanPin
p771
g52
sVHeadImgUrl
p772
V/cgi-bin/mmwebwx-bin/webwxgeticon?seq=673719319&username=@ac5fd2187523967b080efd145598d3c4d293a14f93044510b9a8138ab2fc9cb2&skey=@crypt_49509d7f_b2acd22354321f48e89dbb364688dfb4
p773
sVKeyWord
p774
g52
sVProvince
p775
VKuala Lumpur
p776
sVPYInitial
p777
VEMILYC
p778
sVRemarkName
p779
g52
sVIsOwner
p780
I0
sVSex
p781
I2
sVStarFriend
p782
I0
sVHideInputBarFlag
p783
I0
sVChatRoomId
p784
I0
sVEncryChatRoomId
p785
g52
sVAttrStatus
p786
I33656865
sVStatues
p787
I0
stp788
Rp789
I1
bag34
(g38
g39
(dp790
VUserName
p791
V@0da1d1c263f0ab0ab9f7164b8fe174cea6359093c4ae3df7d1ca6148004419a4
p792
sVCity
p793
g52
sVSnsFlag
p794
I1
sVDisplayName
p795
g52
sVUniFriend
p796
I0
sVMemberCount
p797
I0
sVOwnerUin
p798
I0
sVMemberList
p799
g50
sVAlias
p800
g52
sVPYQuanPin
p801
Vspanclassemojiemoji1f451spanHoiYispanclassemojiemoji1f451span
p802
sVSignature
p803
V\u4eba\u751f\u5efa\u8bae\uff1aKeep it real<span class="emoji emoji2764"></span>\ufe0f\u2003\u2003\u2003\u2003\u2003\u2003\u2003\u2003 \u2003\u05b4\u05b4\u000a\u05b4
p804
sVRemarkPYInitial
p805
g52
sVContactFlag
p806
I1
sVUin
p807
I0
sVNickName
p808
V\U0001f451HoiYi\U0001f451
p809
sVAppAccountFlag
p810
I0
sVVerifyFlag
p811
I0
sVRemarkPYQuanPin
p812
g52
sVHeadImgUrl
p813
V/cgi-bin/mmwebwx-bin/webwxgeticon?seq=673722685&username=@0da1d1c263f0ab0ab9f7164b8fe174cea6359093c4ae3df7d1ca6148004419a4&skey=@crypt_49509d7f_b2acd22354321f48e89dbb364688dfb4
p814
sVKeyWord
p815
g52
sVProvince
p816
g52
sVPYInitial
p817
VSPANCLASSEMOJIEMOJI1F451SPANHOIYISPANCLASSEMOJIEMOJI1F451SPAN
p818
sVRemarkName
p819
g52
sVIsOwner
p820
I0
sVSex
p821
I0
sVStarFriend
p822
I0
sVHideInputBarFlag
p823
I0
sVChatRoomId
p824
I0
sVEncryChatRoomId
p825
g52
sVAttrStatus
p826
I105253
sVStatues
p827
I0
stp828
Rp829
I1
bag34
(g38
g39
(dp830
VUserName
p831
V@1ef89664b2c7f89b3c84781e34130b1172e3eada407a33d5d3ad259b8bc99024
p832
sVCity
p833
g52
sVSnsFlag
p834
I1
sVDisplayName
p835
g52
sVUniFriend
p836
I0
sVMemberCount
p837
I0
sVOwnerUin
p838
I0
sVMemberList
p839
g50
sVAlias
p840
g52
sVPYQuanPin
p841
Vruhigruhig
p842
sVSignature
p843
g52
sVRemarkPYInitial
p844
g52
sVContactFlag
p845
I3
sVUin
p846
I0
sVNickName
p847
Vruhigruhig
p848
sVAppAccountFlag
p849
I0
sVVerifyFlag
p850
I0
sVRemarkPYQuanPin
p851
g52
sVHeadImgUrl
p852
V/cgi-bin/mmwebwx-bin/webwxgeticon?seq=673722781&username=@1ef89664b2c7f89b3c84781e34130b1172e3eada407a33d5d3ad259b8bc99024&skey=@crypt_49509d7f_b2acd22354321f48e89dbb364688dfb4
p853
sVKeyWord
p854
g52
sVProvince
p855
g52
sVPYInitial
p856
VRUHIGRUHIG
p857
sVRemarkName
p858
g52
sVIsOwner
p859
I0
sVSex
p860
I0
sVStarFriend
p861
I0
sVHideInputBarFlag
p862
I0
sVChatRoomId
p863
I0
sVEncryChatRoomId
p864
g52
sVAttrStatus
p865
I234277
sVStatues
p866
I0
stp867
Rp868
I1
bag34
(g38
g39
(dp869
VUserName
p870
V@f895a0b1e307af4f6a9c97687738667564276fa9b322df4e92a0c9924c3acedc
p871
sVCity
p872
g52
sVSnsFlag
p873
I1
sVDisplayName
p874
g52
sVUniFriend
p875
I0
sVMemberCount
p876
I0
sVOwnerUin
p877
I0
sVMemberList
p878
g50
sVAlias
p879
g52
sVPYQuanPin
p880
VBellashanspanclassemojiemoji1f48bspan
p881
sVSignature
p882
VYou're the world to me, and dreaming on\U0001f942
p883
sVRemarkPYInitial
p884
g52
sVContactFlag
p885
I1
sVUin
p886
I0
sVNickName
p887
VBella\u73ca\U0001f48b
p888
sVAppAccountFlag
p889
I0
sVVerifyFlag
p890
I0
sVRemarkPYQuanPin
p891
g52
sVHeadImgUrl
p892
V/cgi-bin/mmwebwx-bin/webwxgeticon?seq=673725758&username=@f895a0b1e307af4f6a9c97687738667564276fa9b322df4e92a0c9924c3acedc&skey=@crypt_49509d7f_b2acd22354321f48e89dbb364688dfb4
p893
sVKeyWord
p894
g52
sVProvince
p895
VTuen Mun
p896
sVPYInitial
p897
VBELLASSPANCLASSEMOJIEMOJI1F48BSPAN
p898
sVRemarkName
p899
g52
sVIsOwner
p900
I0
sVSex
p901
I2
sVStarFriend
p902
I0
sVHideInputBarFlag
p903
I0
sVChatRoomId
p904
I0
sVEncryChatRoomId
p905
g52
sVAttrStatus
p906
I233509
sVStatues
p907
I0
stp908
Rp909
I1
bag34
(g38
g39
(dp910
VUserName
p911
V@2557dff57e26859c747cf1852006cac5c2c1d9ad8fb9cfeb0a60b4749d46e1ac
p912
sVCity
p913
V\u6d77\u6dc0
p914
sVSnsFlag
p915
I1
sVDisplayName
p916
g52
sVUniFriend
p917
I0
sVMemberCount
p918
I0
sVOwnerUin
p919
I0
sVMemberList
p920
g50
sVAlias
p921
g52
sVPYQuanPin
p922
Vdiermeng
p923
sVSignature
p924
V\u9189\u5367\u6c99\u573a\u541b\u83ab\u7b11
p925
sVRemarkPYInitial
p926
g52
sVContactFlag
p927
I1
sVUin
p928
I0
sVNickName
p929
V\u7b2c\u4e8c\u68a6
p930
sVAppAccountFlag
p931
I0
sVVerifyFlag
p932
I0
sVRemarkPYQuanPin
p933
g52
sVHeadImgUrl
p934
V/cgi-bin/mmwebwx-bin/webwxgeticon?seq=673725344&username=@2557dff57e26859c747cf1852006cac5c2c1d9ad8fb9cfeb0a60b4749d46e1ac&skey=@crypt_49509d7f_b2acd22354321f48e89dbb364688dfb4
p935
sVKeyWord
p936
g52
sVProvince
p937
V\u5317\u4eac
p938
sVPYInitial
p939
VDEM
p940
sVRemarkName
p941
g52
sVIsOwner
p942
I0
sVSex
p943
I2
sVStarFriend
p944
I0
sVHideInputBarFlag
p945
I0
sVChatRoomId
p946
I0
sVEncryChatRoomId
p947
g52
sVAttrStatus
p948
I236323
sVStatues
p949
I0
stp950
Rp951
I1
bag34
(g38
g39
(dp952
VUserName
p953
V@cf77db1caae10e61c5b2aa6c3f91f35a
p954
sVCity
p955
g52
sVSnsFlag
p956
I49
sVDisplayName
p957
g52
sVUniFriend
p958
I0
sVMemberCount
p959
I0
sVOwnerUin
p960
I0
sVMemberList
p961
g50
sVAlias
p962
g52
sVPYQuanPin
p963
VEvaWu
p964
sVSignature
p965
V\u83ab\u4ee5\u7269\u559c \u83ab\u4ee5\u5df1\u60b2
p966
sVRemarkPYInitial
p967
g52
sVContactFlag
p968
I1
sVUin
p969
I0
sVNickName
p970
VEva Wu
p971
sVAppAccountFlag
p972
I0
sVVerifyFlag
p973
I0
sVRemarkPYQuanPin
p974
g52
sVHeadImgUrl
p975
V/cgi-bin/mmwebwx-bin/webwxgeticon?seq=673726226&username=@cf77db1caae10e61c5b2aa6c3f91f35a&skey=@crypt_49509d7f_b2acd22354321f48e89dbb364688dfb4
p976
sVKeyWord
p977
Va27
p978
sVProvince
p979
VCentral and Western
p980
sVPYInitial
p981
VEVAWU
p982
sVRemarkName
p983
g52
sVIsOwner
p984
I0
sVSex
p985
I2
sVStarFriend
p986
I0
sVHideInputBarFlag
p987
I0
sVChatRoomId
p988
I0
sVEncryChatRoomId
p989
g52
sVAttrStatus
p990
I100349
sVStatues
p991
I0
stp992
Rp993
I1
batp994
Rp995
I1
bsS'chatroomList'
p996
g34
(g35
g36
(lp997
g34
(citchat.storage.templates
Chatroom
p998
g39
(dp999
VUserName
p1000
V@@df96d2d5432618815fad5f449fb5d98a643a894da42b519cf7fbc9c3bd7c04d6
p1001
sVCity
p1002
g52
sVDisplayName
p1003
g52
sVUniFriend
p1004
I0
sS'Self'
p1005
g34
(g38
g39
(dp1006
g41
g31
sg42
g43
sg44
g43
sg45
I0
sg46
I0
sg47
g34
(g35
g36
(lp1007
tp1008
Rp1009
I1
bsg51
g52
sg53
g52
sg54
I200509586
sg55
I0
sg56
I0
sg57
g43
sg58
g43
sg59
g52
sg60
g52
sg61
I0
sg62
I0
sg63
I1
sg64
g43
sg65
I0
sg66
I0
sg67
I0
sg68
I0
sg69
g43
sg70
g52
sg71
I0
sg72
g73
sg74
g52
sg75
g76
sg77
I1
sg78
I0
sg79
I0
stp1010
Rp1011
I1
bsVMemberList
p1012
g34
(g35
g36
(lp1013
tp1014
Rp1015
I1
bsVPYQuanPin
p1016
g52
sVRemarkPYInitial
p1017
g52
sVSex
p1018
I0
sVAppAccountFlag
p1019
I0
sVVerifyFlag
p1020
I0
sVProvince
p1021
g52
sVKeyWord
p1022
g52
sVRemarkName
p1023
g52
sVPYInitial
p1024
g52
sVIsOwner
p1025
I0
sVChatRoomId
p1026
I0
sVHideInputBarFlag
p1027
I0
sVEncryChatRoomId
p1028
g52
sVAttrStatus
p1029
I0
sVSnsFlag
p1030
I0
sVMemberCount
p1031
I499
sVOwnerUin
p1032
I0
sVAlias
p1033
g52
sS'IsAdmin'
p1034
NsVSignature
p1035
g52
sVContactFlag
p1036
I2
sVNickName
p1037
VRedis\u6280\u672f\u4ea4\u6d41\u7fa4
p1038
sVRemarkPYQuanPin
p1039
g52
sVHeadImgUrl
p1040
V/cgi-bin/mmwebwx-bin/webwxgetheadimg?seq=673726283&username=@@df96d2d5432618815fad5f449fb5d98a643a894da42b519cf7fbc9c3bd7c04d6&skey=@crypt_49509d7f_b2acd22354321f48e89dbb364688dfb4
p1041
sVUin
p1042
I0
sVStarFriend
p1043
I0
sVStatues
p1044
I1
stp1045
Rp1046
I1
bag34
(g998
g39
(dp1047
VUserName
p1048
V@@9a4bdc54769ba33c9d2eea4b019e0064c5fe551df3e4fa1ead40c59d3c596040
p1049
sVCity
p1050
g52
sVDisplayName
p1051
g52
sVUniFriend
p1052
I0
sg1005
g34
(g38
g39
(dp1053
g41
g31
sg42
g43
sg44
g43
sg45
I0
sg46
I0
sg47
g34
(g35
g36
(lp1054
tp1055
Rp1056
I1
bsg51
g52
sg53
g52
sg54
I200509586
sg55
I0
sg56
I0
sg57
g43
sg58
g43
sg59
g52
sg60
g52
sg61
I0
sg62
I0
sg63
I1
sg64
g43
sg65
I0
sg66
I0
sg67
I0
sg68
I0
sg69
g43
sg70
g52
sg71
I0
sg72
g73
sg74
g52
sg75
g76
sg77
I1
sg78
I0
sg79
I0
stp1057
Rp1058
I1
bsVMemberList
p1059
g34
(g35
g36
(lp1060
tp1061
Rp1062
I1
bsVPYQuanPin
p1063
g52
sVRemarkPYInitial
p1064
g52
sVSex
p1065
I0
sVAppAccountFlag
p1066
I0
sVVerifyFlag
p1067
I0
sVProvince
p1068
g52
sVKeyWord
p1069
g52
sVRemarkName
p1070
g52
sVPYInitial
p1071
g52
sVIsOwner
p1072
I0
sVChatRoomId
p1073
I0
sVHideInputBarFlag
p1074
I0
sVEncryChatRoomId
p1075
g52
sVAttrStatus
p1076
I0
sVSnsFlag
p1077
I0
sVMemberCount
p1078
I498
sVOwnerUin
p1079
I0
sVAlias
p1080
g52
sg1034
NsVSignature
p1081
g52
sVContactFlag
p1082
I0
sVNickName
p1083
VRedis\u6280\u672f\u4ea4\u6d41\u7fa42
p1084
sVRemarkPYQuanPin
p1085
g52
sVHeadImgUrl
p1086
V/cgi-bin/mmwebwx-bin/webwxgetheadimg?seq=0&username=@@9a4bdc54769ba33c9d2eea4b019e0064c5fe551df3e4fa1ead40c59d3c596040&skey=@crypt_49509d7f_b2acd22354321f48e89dbb364688dfb4
p1087
sVUin
p1088
I0
sVStarFriend
p1089
I0
sVStatues
p1090
I1
stp1091
Rp1092
I1
batp1093
Rp1094
I1
bsS'nickName'
p1095
g73
sS'mpList'
p1096
g34
(g35
g36
(lp1097
g34
(citchat.storage.templates
MassivePlatform
p1098
g39
(dp1099
VUserName
p1100
V@91be88701b59d74c83989aef4f00a97a
p1101
sVCity
p1102
V\u5e7f\u5dde
p1103
sVSnsFlag
p1104
I0
sVDisplayName
p1105
g52
sVUniFriend
p1106
I0
sVMemberCount
p1107
I0
sVOwnerUin
p1108
I0
sVMemberList
p1109
g50
sVAlias
p1110
g52
sVPYQuanPin
p1111
Vyikushaonv
p1112
sVSignature
p1113
V\u5173\u6ce8\u4e0d\u4e86\uff1f \u8bf7\u641c\u7d22\u5173\u6ce8\uff1a\u5947\u8da3\u62a5\u793e\u65b0\u53f7
p1114
sVRemarkPYInitial
p1115
g52
sVContactFlag
p1116
I3
sVUin
p1117
I0
sVNickName
p1118
V\u4e00\u5e93\u5c11\u5973
p1119
sVAppAccountFlag
p1120
I0
sVVerifyFlag
p1121
I8
sVRemarkPYQuanPin
p1122
g52
sVHeadImgUrl
p1123
V/cgi-bin/mmwebwx-bin/webwxgeticon?seq=673712037&username=@91be88701b59d74c83989aef4f00a97a&skey=@crypt_49509d7f_b2acd22354321f48e89dbb364688dfb4
p1124
sVKeyWord
p1125
Vgh_
p1126
sVProvince
p1127
V\u5e7f\u4e1c
p1128
sVPYInitial
p1129
VYKSN
p1130
sVRemarkName
p1131
g52
sVIsOwner
p1132
I0
sVSex
p1133
I0
sVStarFriend
p1134
I0
sVHideInputBarFlag
p1135
I0
sVChatRoomId
p1136
I0
sVEncryChatRoomId
p1137
g52
sVAttrStatus
p1138
I0
sVStatues
p1139
I0
stp1140
Rp1141
I1
bag34
(g1098
g39
(dp1142
VUserName
p1143
V@7a9426d0c2c2a94589dc0034b5578aca
p1144
sVCity
p1145
V\u6df1\u5733
p1146
sVSnsFlag
p1147
I0
sVDisplayName
p1148
g52
sVUniFriend
p1149
I0
sVMemberCount
p1150
I0
sVOwnerUin
p1151
I0
sVMemberList
p1152
g50
sVAlias
p1153
g52
sVPYQuanPin
p1154
Vqiyueyingku
p1155
sVSignature
p1156
V\u56e0\u4e3a\u7231\u7535\u5f71\uff0c\u6240\u4ee5\u4e0d\u5bc2\u5bde\u3002
p1157
sVRemarkPYInitial
p1158
g52
sVContactFlag
p1159
I3
sVUin
p1160
I0
sVNickName
p1161
V\u4e03\u6708\u5f71\u5e93
p1162
sVAppAccountFlag
p1163
I0
sVVerifyFlag
p1164
I24
sVRemarkPYQuanPin
p1165
g52
sVHeadImgUrl
p1166
V/cgi-bin/mmwebwx-bin/webwxgeticon?seq=673715022&username=@7a9426d0c2c2a94589dc0034b5578aca&skey=@crypt_49509d7f_b2acd22354321f48e89dbb364688dfb4
p1167
sVKeyWord
p1168
Vgh_
p1169
sVProvince
p1170
V\u5e7f\u4e1c
p1171
sVPYInitial
p1172
VQYYK
p1173
sVRemarkName
p1174
g52
sVIsOwner
p1175
I0
sVSex
p1176
I0
sVStarFriend
p1177
I0
sVHideInputBarFlag
p1178
I0
sVChatRoomId
p1179
I0
sVEncryChatRoomId
p1180
g52
sVAttrStatus
p1181
I0
sVStatues
p1182
I0
stp1183
Rp1184
I1
bag34
(g1098
g39
(dp1185
VUserName
p1186
V@b76e11b727733805b5e129a1a6d364cb
p1187
sVCity
p1188
V\u9752\u6d66
p1189
sVSnsFlag
p1190
I0
sVDisplayName
p1191
g52
sVUniFriend
p1192
I0
sVMemberCount
p1193
I0
sVOwnerUin
p1194
I0
sVMemberList
p1195
g50
sVAlias
p1196
g52
sVPYQuanPin
p1197
Vdebangkuaidi
p1198
sVSignature
p1199
V\u5173\u6ce8\u7acb\u4eab25\u5143\u5bc4\u4ef6\u4f18\u60e0\u5927\u793c\u5305\uff0c\u5b9e\u65f6\u83b7\u53d6\u8d27\u7269\u52a8\u6001\u3002
p1200
sVRemarkPYInitial
p1201
g52
sVContactFlag
p1202
I3
sVUin
p1203
I0
sVNickName
p1204
V\u5fb7\u90a6\u5feb\u9012
p1205
sVAppAccountFlag
p1206
I0
sVVerifyFlag
p1207
I24
sVRemarkPYQuanPin
p1208
g52
sVHeadImgUrl
p1209
V/cgi-bin/mmwebwx-bin/webwxgeticon?seq=673716437&username=@b76e11b727733805b5e129a1a6d364cb&skey=@crypt_49509d7f_b2acd22354321f48e89dbb364688dfb4
p1210
sVKeyWord
p1211
Vgh_
p1212
sVProvince
p1213
V\u4e0a\u6d77
p1214
sVPYInitial
p1215
VDBKD
p1216
sVRemarkName
p1217
g52
sVIsOwner
p1218
I0
sVSex
p1219
I0
sVStarFriend
p1220
I0
sVHideInputBarFlag
p1221
I0
sVChatRoomId
p1222
I0
sVEncryChatRoomId
p1223
g52
sVAttrStatus
p1224
I0
sVStatues
p1225
I0
stp1226
Rp1227
I1
bag34
(g1098
g39
(dp1228
VUserName
p1229
V@40976880d72108f37aa60c2ecc331a87
p1230
sVCity
p1231
V\u6df1\u5733
p1232
sVSnsFlag
p1233
I0
sVDisplayName
p1234
g52
sVUniFriend
p1235
I0
sVMemberCount
p1236
I0
sVOwnerUin
p1237
I0
sVMemberList
p1238
g50
sVAlias
p1239
g52
sVPYQuanPin
p1240
Vshunfengsuyun
p1241
sVSignature
p1242
V\u5feb\u4ef6\u4fe1\u606f\u5b9e\u65f6\u6536\uff0c\u4f1a\u5458\u6743\u76ca\u7b49\u4f60\u62ff\u3002\u987a\u4e30\u901f\u8fd0\u51fa\u54c1\uff0c\u4e00\u6b3e\u63d0\u4f9b\u5728\u7ebf\u5bc4\u4ef6\u3001\u4e00\u5c0f\u65f6\u4e0a\u95e8\u3001\u5feb\u9012\u5355\u53f7\u67e5\u8be2\u3001\u7f51\u70b9\u67e5\u8be2\u3001\u8fd0\u8d39\u67e5\u8be2\u7b49\u76f8\u5173\u670d\u52a1\u7684\u5feb\u9012\u7269\u6d41\u516c\u4f17\u53f7\u3002\u67e5\u5feb\u9012\u3001\u5bc4\u5feb\u9012\u7528\u987a\u4e30\uff0c\u4e0d\u6b62\u662f\u5feb\u3002
p1243
sVRemarkPYInitial
p1244
g52
sVContactFlag
p1245
I3
sVUin
p1246
I0
sVNickName
p1247
V\u987a\u4e30\u901f\u8fd0
p1248
sVAppAccountFlag
p1249
I0
sVVerifyFlag
p1250
I24
sVRemarkPYQuanPin
p1251
g52
sVHeadImgUrl
p1252
V/cgi-bin/mmwebwx-bin/webwxgeticon?seq=673719418&username=@40976880d72108f37aa60c2ecc331a87&skey=@crypt_49509d7f_b2acd22354321f48e89dbb364688dfb4
p1253
sVKeyWord
p1254
Vgh_
p1255
sVProvince
p1256
V\u5e7f\u4e1c
p1257
sVPYInitial
p1258
VSFSY
p1259
sVRemarkName
p1260
g52
sVIsOwner
p1261
I0
sVSex
p1262
I0
sVStarFriend
p1263
I0
sVHideInputBarFlag
p1264
I0
sVChatRoomId
p1265
I0
sVEncryChatRoomId
p1266
g52
sVAttrStatus
p1267
I0
sVStatues
p1268
I0
stp1269
Rp1270
I1
bag34
(g1098
g39
(dp1271
VUserName
p1272
V@cb3fd1e75afc79dfb9f542e3b882a73b
p1273
sVCity
p1274
V\u6d4e\u5357
p1275
sVSnsFlag
p1276
I0
sVDisplayName
p1277
g52
sVUniFriend
p1278
I0
sVMemberCount
p1279
I0
sVOwnerUin
p1280
I0
sVMemberList
p1281
g50
sVAlias
p1282
g52
sVPYQuanPin
p1283
Vbaigehuidi
p1284
sVSignature
p1285
V\u767d\u9e3d\u60e0\u9012\u4e3a\u5feb\u9012\u7269\u6d41\u4e1a\u52a1\u7684\u7f51\u4e0a\u4e0b\u5355\u5e73\u53f0\u3002\u4e0e\u4e2d\u90ae\u3001\u987a\u4e30\u3001\u5fb7\u90a6\u3001\u5706\u901a\u3001\u5b85\u6025\u9001\u7b49\u4e00\u7ebf\u901f\u8fd0\u4f01\u4e1a\u5f62\u6210\u5168\u56fd\u5408\u4f5c\u9635\u8425\u3002\u7528\u6237\u53ef\u5728\u7ebf\u5bf9\u6bd4\u4e0b\u5355\uff0c\u4eab\u53d7\u5e73\u53f0\u8865\u8d34\u3002\u4e0b\u5355\u540e\u5ba2\u6237\u9759\u5f85\u5feb\u9012\u5458\u63fd\u4ef6\u3002
p1286
sVRemarkPYInitial
p1287
g52
sVContactFlag
p1288
I3
sVUin
p1289
I0
sVNickName
p1290
V\u767d\u9e3d\u60e0\u9012
p1291
sVAppAccountFlag
p1292
I0
sVVerifyFlag
p1293
I24
sVRemarkPYQuanPin
p1294
g52
sVHeadImgUrl
p1295
V/cgi-bin/mmwebwx-bin/webwxgeticon?seq=673719895&username=@cb3fd1e75afc79dfb9f542e3b882a73b&skey=@crypt_49509d7f_b2acd22354321f48e89dbb364688dfb4
p1296
sVKeyWord
p1297
Vgh_
p1298
sVProvince
p1299
V\u5c71\u4e1c
p1300
sVPYInitial
p1301
VBGHD
p1302
sVRemarkName
p1303
g52
sVIsOwner
p1304
I0
sVSex
p1305
I0
sVStarFriend
p1306
I0
sVHideInputBarFlag
p1307
I0
sVChatRoomId
p1308
I0
sVEncryChatRoomId
p1309
g52
sVAttrStatus
p1310
I0
sVStatues
p1311
I0
stp1312
Rp1313
I1
batp1314
Rp1315
I1
bssS'loginInfo'
p1316
(dp1317
S'SyncKey'
p1318
(dp1319
VCount
p1320
I4
sVList
p1321
(lp1322
(dp1323
VVal
p1324
I673726265
sVKey
p1325
I1
sa(dp1326
VVal
p1327
I673726282
sVKey
p1328
I2
sa(dp1329
VVal
p1330
I673726234
sVKey
p1331
I3
sa(dp1332
VVal
p1333
I1568869321
sVKey
p1334
I1000
sassS'syncUrl'
p1335
S'https://webpush.wx2.qq.com/cgi-bin/mmwebwx-bin'
p1336
sS'skey'
p1337
V@crypt_49509d7f_b2acd22354321f48e89dbb364688dfb4
p1338
sS'wxuin'
p1339
V200509586
p1340
sS'synckey'
p1341
S'1_673726265|2_673726282|3_673726234|1000_1568869321'
p1342
sS'url'
p1343
Vhttps://wx2.qq.com/cgi-bin/mmwebwx-bin
p1344
sS'pass_ticket'
p1345
V5TMsuPETc0LanJqeg5re%2FLM8cGZyEHn2DOz8nlC3gLQ%3D
p1346
sS'wxsid'
p1347
V34VzfbrSI7vvt65s
p1348
sS'BaseRequest'
p1349
(dp1350
g54
g1340
sS'Skey'
p1351
g1338
sS'DeviceID'
p1352
g1346
sS'Sid'
p1353
g1348
ssS'User'
p1354
g34
(g38
g39
(dp1355
g41
g31
sg42
g43
sg44
g43
sg45
I0
sg47
g50
sg51
g52
sg53
g52
sg77
I1
sg55
I0
sg56
I0
sg57
g43
sg58
g43
sg59
g52
sg60
g52
sg61
I0
sg62
I0
sg63
I1
sg64
g43
sg65
I0
sg68
I0
sg66
I0
sg67
I0
sg46
I0
sg69
g43
sg70
g52
sg71
I0
sg72
g73
sg74
g52
sg75
g76
sg54
I200509586
sg78
I0
sg79
I0
stp1356
Rp1357
I1
bsS'fileUrl'
p1358
S'https://file.wx2.qq.com/cgi-bin/mmwebwx-bin'
p1359
sS'InviteStartCount'
p1360
I40
sS'deviceid'
p1361
S'e002358610369255'
p1362
ss.