(dp0
S'cookies'
p1
(dp2
S'wxloadtime'
p3
S'1567518377'
p4
sS'webwx_data_ticket'
p5
S'gSd/IywRxw5BucZARTavLzpv'
p6
sS'wxuin'
p7
S'200509586'
p8
sS'login_frequency'
p9
S'2'
p10
sS'MM_WX_NOTIFY_STATE'
p11
S'1'
p12
sS'MM_WX_SOUND_STATE'
p13
g12
sS'webwx_auth_ticket'
p14
S'CIsBELGR37MPGoABbboHLPLuerJozglxd7gZ7RyUKB2qlYLxh1QhYG5FOLJPDL3nHjgFdoRkPOPBJuREeyGpoCOQK0ptqv5jkAboEckVq+lZ8bY9kugIiqjmIXOr5m2jonLI3j9F8nmq773Wz4wT15WvgUsxrMRQeuGiNbgXYJ1IAwQ+jPWIrn7GY7g='
p15
sS'last_wxuin'
p16
S'200509586'
p17
sS'webwxuvid'
p18
S'ef16bd48961c4320b665ac296596e4e6eb6a05de906f2bce9dd22846416c173663f21bd7bf9ad4c6c171e3c2a4059808'
p19
sS'wxpluginkey'
p20
S'1567156508'
p21
sS'wxsid'
p22
S'VmuYn4L48af4yLf2'
p23
sS'mm_lang'
p24
S'zh_CN'
p25
ssS'version'
p26
S'1.3.10'
p27
sS'storage'
p28
(dp29
S'userName'
p30
V@c69a785ccd7759e8e915539867d2343325cb63b5b3f98675bbb7f2f7dd5e4ab1
p31
sS'lastInputUserName'
p32
NsS'memberList'
p33
ccopy_reg
_reconstructor
p34
(citchat.storage.templates
ContactList
p35
c__builtin__
list
p36
(lp37
g34
(citchat.storage.templates
User
p38
c__builtin__
dict
p39
(dp40
S'UserName'
p41
g31
sS'City'
p42
S''
p43
sS'DisplayName'
p44
g43
sS'UniFriend'
p45
I0
sS'OwnerUin'
p46
I0
sS'MemberList'
p47
g34
(g35
g36
(lp48
tp49
Rp50
I1
bsS'PYQuanPin'
p51
V
p52
sS'RemarkPYInitial'
p53
g52
sS'Uin'
p54
I200509586
sS'AppAccountFlag'
p55
I0
sS'VerifyFlag'
p56
I0
sS'Province'
p57
g43
sS'KeyWord'
p58
g43
sS'RemarkName'
p59
g52
sS'PYInitial'
p60
g52
sS'ChatRoomId'
p61
I0
sS'HideInputBarFlag'
p62
I0
sVHeadImgFlag
p63
I1
sS'EncryChatRoomId'
p64
g43
sS'AttrStatus'
p65
I0
sS'SnsFlag'
p66
I0
sS'MemberCount'
p67
I0
sVWebWxPluginSwitch
p68
I0
sS'Alias'
p69
g43
sS'Signature'
p70
g52
sS'ContactFlag'
p71
I0
sS'NickName'
p72
V\u673a\u5668\u4eba\u5c0f\u80d6
p73
sS'RemarkPYQuanPin'
p74
g52
sS'HeadImgUrl'
p75
V/cgi-bin/mmwebwx-bin/webwxgeticon?seq=1944273344&username=@c69a785ccd7759e8e915539867d2343325cb63b5b3f98675bbb7f2f7dd5e4ab1&skey=@crypt_49509d7f_38ecf55b6ee39ea9bbaaf507392bcc3d
p76
sS'Sex'
p77
I1
sS'StarFriend'
p78
I0
sS'Statues'
p79
I0
stp80
Rp81
I1
bag34
(g38
g39
(dp82
VUserName
p83
V@444cea7bdf92f7ff3304d6af059fbb0e
p84
sVCity
p85
g52
sVSnsFlag
p86
I17
sVDisplayName
p87
g52
sVUniFriend
p88
I0
sVMemberCount
p89
I0
sVOwnerUin
p90
I0
sVMemberList
p91
g50
sVAlias
p92
g52
sVPYQuanPin
p93
VCXY
p94
sVSignature
p95
V\u7b49\u98ce\u4e5f\u7b49\u4f60\u3002
p96
sVRemarkPYInitial
p97
VXYKTX
p98
sVContactFlag
p99
I1
sVUin
p100
I0
sVNickName
p101
V-C_XY-
p102
sVAppAccountFlag
p103
I0
sVVerifyFlag
p104
I0
sVRemarkPYQuanPin
p105
Vxinyongkataoxian
p106
sVHeadImgUrl
p107
V/cgi-bin/mmwebwx-bin/webwxgeticon?seq=673710066&username=@444cea7bdf92f7ff3304d6af059fbb0e&skey=@crypt_49509d7f_38ecf55b6ee39ea9bbaaf507392bcc3d
p108
sVKeyWord
p109
Vwux
p110
sVProvince
p111
g52
sVPYInitial
p112
VCXY
p113
sVRemarkName
p114
V\u4fe1\u7528\u5361\u5957\u73b0
p115
sVIsOwner
p116
I0
sVSex
p117
I2
sVStarFriend
p118
I0
sVHideInputBarFlag
p119
I0
sVChatRoomId
p120
I0
sVEncryChatRoomId
p121
g52
sVAttrStatus
p122
I111719
sVStatues
p123
I0
stp124
Rp125
I1
bag34
(g38
g39
(dp126
VUserName
p127
V@dd695fd7669d8fb27e277eea20611bac79baf85f2f8fb4240516532c33c72c9e
p128
sVCity
p129
g52
sVSnsFlag
p130
I1
sVDisplayName
p131
g52
sVUniFriend
p132
I0
sVMemberCount
p133
I0
sVOwnerUin
p134
I0
sVMemberList
p135
g50
sVAlias
p136
g52
sVPYQuanPin
p137
Vchuanguoliushui
p138
sVSignature
p139
V\u53ea\u4e3a\u4e00\u4eba\u7559
p140
sVRemarkPYInitial
p141
g52
sVContactFlag
p142
I1
sVUin
p143
I0
sVNickName
p144
V\u7a7f\u8fc7\u6d41\u6c34
p145
sVAppAccountFlag
p146
I0
sVVerifyFlag
p147
I0
sVRemarkPYQuanPin
p148
g52
sVHeadImgUrl
p149
V/cgi-bin/mmwebwx-bin/webwxgeticon?seq=673714836&username=@dd695fd7669d8fb27e277eea20611bac79baf85f2f8fb4240516532c33c72c9e&skey=@crypt_49509d7f_38ecf55b6ee39ea9bbaaf507392bcc3d
p150
sVKeyWord
p151
g52
sVProvince
p152
VKowloon City
p153
sVPYInitial
p154
VCGLS
p155
sVRemarkName
p156
g52
sVIsOwner
p157
I0
sVSex
p158
I1
sVStarFriend
p159
I0
sVHideInputBarFlag
p160
I0
sVChatRoomId
p161
I0
sVEncryChatRoomId
p162
g52
sVAttrStatus
p163
I33690405
sVStatues
p164
I0
stp165
Rp166
I1
bag34
(g38
g39
(dp167
VUserName
p168
V@39ff6f9eacfefcbea6a9c117c32f99ae069948f922fa94252ef6436d26cd8261
p169
sVCity
p170
g52
sVSnsFlag
p171
I1
sVDisplayName
p172
g52
sVUniFriend
p173
I0
sVMemberCount
p174
I0
sVOwnerUin
p175
I0
sVMemberList
p176
g50
sVAlias
p177
g52
sVPYQuanPin
p178
VAkuaidiyouhuiquanbudingjigengxin
p179
sVSignature
p180
V\u963f\u8fea\u8fbe\u65af\u7ae5\u88c5  \u65ad\u7801\u7279\u4ef7
p181
sVRemarkPYInitial
p182
g52
sVContactFlag
p183
I3
sVUin
p184
I0
sVNickName
p185
VA\u5feb\u9012\u4f18\u60e0\u5238 \u4e0d\u5b9a\u671f\u66f4\u65b0
p186
sVAppAccountFlag
p187
I0
sVVerifyFlag
p188
I0
sVRemarkPYQuanPin
p189
g52
sVHeadImgUrl
p190
V/cgi-bin/mmwebwx-bin/webwxgeticon?seq=673716439&username=@39ff6f9eacfefcbea6a9c117c32f99ae069948f922fa94252ef6436d26cd8261&skey=@crypt_49509d7f_38ecf55b6ee39ea9bbaaf507392bcc3d
p191
sVKeyWord
p192
g52
sVProvince
p193
g52
sVPYInitial
p194
VAKDYHQBDJGX
p195
sVRemarkName
p196
g52
sVIsOwner
p197
I0
sVSex
p198
I1
sVStarFriend
p199
I0
sVHideInputBarFlag
p200
I0
sVChatRoomId
p201
I0
sVEncryChatRoomId
p202
g52
sVAttrStatus
p203
I135205
sVStatues
p204
I0
stp205
Rp206
I1
bag34
(g38
g39
(dp207
VUserName
p208
V@c5915b5aed0e1f3c4680925b059d2433233bda2767850862a79a0e494141aa60
p209
sVCity
p210
g52
sVSnsFlag
p211
I1
sVDisplayName
p212
g52
sVUniFriend
p213
I0
sVMemberCount
p214
I0
sVOwnerUin
p215
I0
sVMemberList
p216
g50
sVAlias
p217
g52
sVPYQuanPin
p218
Vbanjialvyou
p219
sVSignature
p220
g52
sVRemarkPYInitial
p221
g52
sVContactFlag
p222
I3
sVUin
p223
I0
sVNickName
p224
V\u534a\u4ef7\u65c5\u6e38
p225
sVAppAccountFlag
p226
I0
sVVerifyFlag
p227
I0
sVRemarkPYQuanPin
p228
g52
sVHeadImgUrl
p229
V/cgi-bin/mmwebwx-bin/webwxgeticon?seq=673722419&username=@c5915b5aed0e1f3c4680925b059d2433233bda2767850862a79a0e494141aa60&skey=@crypt_49509d7f_38ecf55b6ee39ea9bbaaf507392bcc3d
p230
sVKeyWord
p231
g52
sVProvince
p232
g52
sVPYInitial
p233
VBJLY
p234
sVRemarkName
p235
g52
sVIsOwner
p236
I0
sVSex
p237
I0
sVStarFriend
p238
I0
sVHideInputBarFlag
p239
I0
sVChatRoomId
p240
I0
sVEncryChatRoomId
p241
g52
sVAttrStatus
p242
I135269
sVStatues
p243
I0
stp244
Rp245
I1
bag34
(g38
g39
(dp246
VUserName
p247
V@bde3c996aff7c997b84a9ca0707270027dbd907321336ced8c77b79c8524040a
p248
sVCity
p249
V\u671d\u9633
p250
sVSnsFlag
p251
I1
sVDisplayName
p252
g52
sVUniFriend
p253
I0
sVMemberCount
p254
I0
sVOwnerUin
p255
I0
sVMemberList
p256
g50
sVAlias
p257
g52
sVPYQuanPin
p258
Vxiaomaoshugadian
p259
sVSignature
p260
V\u5907\u6ce8\u6765\u610f+\u54ea\u91cc\u770b\u5230\u5fae\u4fe1\u53f7\uff0c\u4e0d\u5907\u6ce8\u4e0d\u901a\u8fc7
p261
sVRemarkPYInitial
p262
g52
sVContactFlag
p263
I3
sVUin
p264
I0
sVNickName
p265
V\u5c0f\u732b\u4e66\u5496\u5e97
p266
sVAppAccountFlag
p267
I0
sVVerifyFlag
p268
I0
sVRemarkPYQuanPin
p269
g52
sVHeadImgUrl
p270
V/cgi-bin/mmwebwx-bin/webwxgeticon?seq=673723018&username=@bde3c996aff7c997b84a9ca0707270027dbd907321336ced8c77b79c8524040a&skey=@crypt_49509d7f_38ecf55b6ee39ea9bbaaf507392bcc3d
p271
sVKeyWord
p272
g52
sVProvince
p273
V\u5317\u4eac
p274
sVPYInitial
p275
VXMSGD
p276
sVRemarkName
p277
g52
sVIsOwner
p278
I0
sVSex
p279
I2
sVStarFriend
p280
I0
sVHideInputBarFlag
p281
I0
sVChatRoomId
p282
I0
sVEncryChatRoomId
p283
g52
sVAttrStatus
p284
I4645
sVStatues
p285
I0
stp286
Rp287
I1
bag34
(g38
g39
(dp288
VUserName
p289
V@9c345b67b31ed730ce53257bac992281fab252b8adbc4c35e342f1f6d0104293
p290
sVCity
p291
VOthers
p292
sVSnsFlag
p293
I1
sVDisplayName
p294
g52
sVUniFriend
p295
I0
sVMemberCount
p296
I0
sVOwnerUin
p297
I0
sVMemberList
p298
g50
sVAlias
p299
g52
sVPYQuanPin
p300
Vabbyhuanerspanclassemojiemoji1f48bspanspanclassemojiemoji1f6baspan
p301
sVSignature
p302
V\u8ba9\u8721\u70db\u4ee3\u66ff\u6240\u6709\u706f \u8ba9\u97f3\u4e50\u4ee3\u66ff\u8bdd\u8bed\u58f0 \u6b64\u65f6\u65e0\u58f0\u80dc\u6709\u58f0
p303
sVRemarkPYInitial
p304
g52
sVContactFlag
p305
I1
sVUin
p306
I0
sVNickName
p307
Vabby\u6b22\u513f\U0001f48b\U0001f6ba
p308
sVAppAccountFlag
p309
I0
sVVerifyFlag
p310
I0
sVRemarkPYQuanPin
p311
g52
sVHeadImgUrl
p312
V/cgi-bin/mmwebwx-bin/webwxgeticon?seq=673719319&username=@9c345b67b31ed730ce53257bac992281fab252b8adbc4c35e342f1f6d0104293&skey=@crypt_49509d7f_38ecf55b6ee39ea9bbaaf507392bcc3d
p313
sVKeyWord
p314
g52
sVProvince
p315
VKuala Lumpur
p316
sVPYInitial
p317
VABBYHESPANCLASSEMOJIEMOJI1F48BSPANSPANCLASSEMOJIEMOJI1F6BASPAN
p318
sVRemarkName
p319
g52
sVIsOwner
p320
I0
sVSex
p321
I2
sVStarFriend
p322
I0
sVHideInputBarFlag
p323
I0
sVChatRoomId
p324
I0
sVEncryChatRoomId
p325
g52
sVAttrStatus
p326
I33656865
sVStatues
p327
I0
stp328
Rp329
I1
bag34
(g38
g39
(dp330
VUserName
p331
V@de513b5c75e175da3e5b6b6cfe8032909e1e301f34db04ff9552db98f5dd052e
p332
sVCity
p333
g52
sVSnsFlag
p334
I1
sVDisplayName
p335
g52
sVUniFriend
p336
I0
sVMemberCount
p337
I0
sVOwnerUin
p338
I0
sVMemberList
p339
g50
sVAlias
p340
g52
sVPYQuanPin
p341
Vspanclassemojiemoji1f451spanHoiYispanclassemojiemoji1f451span
p342
sVSignature
p343
V\u4eba\u751f\u5efa\u8bae\uff1aKeep it real<span class="emoji emoji2764"></span>\ufe0f\u2003\u2003\u2003\u2003\u2003\u2003\u2003\u2003 \u2003\u05b4\u05b4\u000a\u05b4
p344
sVRemarkPYInitial
p345
g52
sVContactFlag
p346
I1
sVUin
p347
I0
sVNickName
p348
V\U0001f451HoiYi\U0001f451
p349
sVAppAccountFlag
p350
I0
sVVerifyFlag
p351
I0
sVRemarkPYQuanPin
p352
g52
sVHeadImgUrl
p353
V/cgi-bin/mmwebwx-bin/webwxgeticon?seq=673722685&username=@de513b5c75e175da3e5b6b6cfe8032909e1e301f34db04ff9552db98f5dd052e&skey=@crypt_49509d7f_38ecf55b6ee39ea9bbaaf507392bcc3d
p354
sVKeyWord
p355
g52
sVProvince
p356
g52
sVPYInitial
p357
VSPANCLASSEMOJIEMOJI1F451SPANHOIYISPANCLASSEMOJIEMOJI1F451SPAN
p358
sVRemarkName
p359
g52
sVIsOwner
p360
I0
sVSex
p361
I0
sVStarFriend
p362
I0
sVHideInputBarFlag
p363
I0
sVChatRoomId
p364
I0
sVEncryChatRoomId
p365
g52
sVAttrStatus
p366
I105253
sVStatues
p367
I0
stp368
Rp369
I1
bag34
(g38
g39
(dp370
VUserName
p371
V@88b1117745d50e82b0c1b84c7fb689846b3135efdab1aeab98b2a92fe7591bd3
p372
sVCity
p373
g52
sVSnsFlag
p374
I1
sVDisplayName
p375
g52
sVUniFriend
p376
I0
sVMemberCount
p377
I0
sVOwnerUin
p378
I0
sVMemberList
p379
g50
sVAlias
p380
g52
sVPYQuanPin
p381
Vruhigruhig
p382
sVSignature
p383
g52
sVRemarkPYInitial
p384
g52
sVContactFlag
p385
I3
sVUin
p386
I0
sVNickName
p387
Vruhigruhig
p388
sVAppAccountFlag
p389
I0
sVVerifyFlag
p390
I0
sVRemarkPYQuanPin
p391
g52
sVHeadImgUrl
p392
V/cgi-bin/mmwebwx-bin/webwxgeticon?seq=673722781&username=@88b1117745d50e82b0c1b84c7fb689846b3135efdab1aeab98b2a92fe7591bd3&skey=@crypt_49509d7f_38ecf55b6ee39ea9bbaaf507392bcc3d
p393
sVKeyWord
p394
g52
sVProvince
p395
g52
sVPYInitial
p396
VRUHIGRUHIG
p397
sVRemarkName
p398
g52
sVIsOwner
p399
I0
sVSex
p400
I0
sVStarFriend
p401
I0
sVHideInputBarFlag
p402
I0
sVChatRoomId
p403
I0
sVEncryChatRoomId
p404
g52
sVAttrStatus
p405
I234277
sVStatues
p406
I0
stp407
Rp408
I1
bag34
(g38
g39
(dp409
VUserName
p410
V@9d38cb161f6806112bd9a692710b5f8c
p411
sVCity
p412
V\u4e1c\u57ce
p413
sVSnsFlag
p414
I17
sVDisplayName
p415
g52
sVUniFriend
p416
I0
sVMemberCount
p417
I0
sVOwnerUin
p418
I0
sVMemberList
p419
g50
sVAlias
p420
g52
sVPYQuanPin
p421
Vpengcheng
p422
sVSignature
p423
V\u672a\u6765\u4e0d\u8fce\uff0c\u5f53\u65f6\u4e0d\u6742\uff0c\u8fc7\u5f80\u4e0d\u604b
p424
sVRemarkPYInitial
p425
g52
sVContactFlag
p426
I3
sVUin
p427
I0
sVNickName
p428
V\u9e4f\u7a0b
p429
sVAppAccountFlag
p430
I0
sVVerifyFlag
p431
I0
sVRemarkPYQuanPin
p432
g52
sVHeadImgUrl
p433
V/cgi-bin/mmwebwx-bin/webwxgeticon?seq=669180196&username=@9d38cb161f6806112bd9a692710b5f8c&skey=@crypt_49509d7f_38ecf55b6ee39ea9bbaaf507392bcc3d
p434
sVKeyWord
p435
Vwar
p436
sVProvince
p437
V\u5317\u4eac
p438
sVPYInitial
p439
VPC
p440
sVRemarkName
p441
g52
sVIsOwner
p442
I0
sVSex
p443
I1
sVStarFriend
p444
I0
sVHideInputBarFlag
p445
I0
sVChatRoomId
p446
I0
sVEncryChatRoomId
p447
g52
sVAttrStatus
p448
I33691111
sVStatues
p449
I0
stp450
Rp451
I1
bag34
(g38
g39
(dp452
VUserName
p453
V@cf25ce857f4e0b719bf787fe6faead156f73149b631e01e9928236a1f28c68ce
p454
sVCity
p455
g52
sVSnsFlag
p456
I1
sVDisplayName
p457
g52
sVUniFriend
p458
I0
sVMemberCount
p459
I0
sVOwnerUin
p460
I0
sVMemberList
p461
g50
sVAlias
p462
g52
sVPYQuanPin
p463
VSimpler?
p464
sVSignature
p465
VHierarchy
p466
sVRemarkPYInitial
p467
g52
sVContactFlag
p468
I1
sVUin
p469
I0
sVNickName
p470
VSimpler\U0001f408
p471
sVAppAccountFlag
p472
I0
sVVerifyFlag
p473
I0
sVRemarkPYQuanPin
p474
g52
sVHeadImgUrl
p475
V/cgi-bin/mmwebwx-bin/webwxgeticon?seq=673719582&username=@cf25ce857f4e0b719bf787fe6faead156f73149b631e01e9928236a1f28c68ce&skey=@crypt_49509d7f_38ecf55b6ee39ea9bbaaf507392bcc3d
p476
sVKeyWord
p477
g52
sVProvince
p478
g52
sVPYInitial
p479
VSIMPLER?
p480
sVRemarkName
p481
g52
sVIsOwner
p482
I0
sVSex
p483
I2
sVStarFriend
p484
I0
sVHideInputBarFlag
p485
I0
sVChatRoomId
p486
I0
sVEncryChatRoomId
p487
g52
sVAttrStatus
p488
I234277
sVStatues
p489
I0
stp490
Rp491
I1
bag34
(g38
g39
(dp492
VUserName
p493
V@c4894d7efa40100010e2906aa63ed687922ab067bbd615dacedaa4bed0198ce2
p494
sVCity
p495
g52
sVSnsFlag
p496
I1
sVDisplayName
p497
g52
sVUniFriend
p498
I0
sVMemberCount
p499
I0
sVOwnerUin
p500
I0
sVMemberList
p501
g50
sVAlias
p502
g52
sVPYQuanPin
p503
VMolly
p504
sVSignature
p505
V\u5c3d\u4eba\u4e8b\u542c\u5929\u610f\uff01
p506
sVRemarkPYInitial
p507
g52
sVContactFlag
p508
I1
sVUin
p509
I0
sVNickName
p510
VMolly
p511
sVAppAccountFlag
p512
I0
sVVerifyFlag
p513
I0
sVRemarkPYQuanPin
p514
g52
sVHeadImgUrl
p515
V/cgi-bin/mmwebwx-bin/webwxgeticon?seq=673715616&username=@c4894d7efa40100010e2906aa63ed687922ab067bbd615dacedaa4bed0198ce2&skey=@crypt_49509d7f_38ecf55b6ee39ea9bbaaf507392bcc3d
p516
sVKeyWord
p517
g52
sVProvince
p518
g52
sVPYInitial
p519
VMOLLY
p520
sVRemarkName
p521
g52
sVIsOwner
p522
I0
sVSex
p523
I2
sVStarFriend
p524
I0
sVHideInputBarFlag
p525
I0
sVChatRoomId
p526
I0
sVEncryChatRoomId
p527
g52
sVAttrStatus
p528
I234083
sVStatues
p529
I0
stp530
Rp531
I1
bag34
(g38
g39
(dp532
VUserName
p533
V@1af57032cab217e8a5492e5ab3742b85d3e61eb248dcafde49bda80799fb176a
p534
sVCity
p535
V\u5305\u5934
p536
sVSnsFlag
p537
I1
sVDisplayName
p538
g52
sVUniFriend
p539
I0
sVMemberCount
p540
I0
sVOwnerUin
p541
I0
sVMemberList
p542
g50
sVAlias
p543
g52
sVPYQuanPin
p544
Vxiaoqing
p545
sVSignature
p546
g52
sVRemarkPYInitial
p547
g52
sVContactFlag
p548
I1
sVUin
p549
I0
sVNickName
p550
V\u5c0f\u9752
p551
sVAppAccountFlag
p552
I0
sVVerifyFlag
p553
I0
sVRemarkPYQuanPin
p554
g52
sVHeadImgUrl
p555
V/cgi-bin/mmwebwx-bin/webwxgeticon?seq=673718930&username=@1af57032cab217e8a5492e5ab3742b85d3e61eb248dcafde49bda80799fb176a&skey=@crypt_49509d7f_38ecf55b6ee39ea9bbaaf507392bcc3d
p556
sVKeyWord
p557
g52
sVProvince
p558
V\u5185\u8499\u53e4
p559
sVPYInitial
p560
VXQ
p561
sVRemarkName
p562
g52
sVIsOwner
p563
I0
sVSex
p564
I1
sVStarFriend
p565
I0
sVHideInputBarFlag
p566
I0
sVChatRoomId
p567
I0
sVEncryChatRoomId
p568
g52
sVAttrStatus
p569
I234109
sVStatues
p570
I0
stp571
Rp572
I1
bag34
(g38
g39
(dp573
VUserName
p574
V@cf962d9304fb7b40fe11a4862c9e2f64e480b494ed19aaf65872003892091362
p575
sVCity
p576
V\u6d66\u4e1c\u65b0\u533a
p577
sVSnsFlag
p578
I1
sVDisplayName
p579
g52
sVUniFriend
p580
I0
sVMemberCount
p581
I0
sVOwnerUin
p582
I0
sVMemberList
p583
g50
sVAlias
p584
g52
sVPYQuanPin
p585
Vyannispanclassemojiemoji1f485span?
p586
sVSignature
p587
V\u4f60\u82e5\u76db\u5f00\uff0c\u8774\u8776\u81ea\u6765\u2026\u2026
p588
sVRemarkPYInitial
p589
g52
sVContactFlag
p590
I1
sVUin
p591
I0
sVNickName
p592
V\u71d5\u59ae\U0001f485\U0001f3fb
p593
sVAppAccountFlag
p594
I0
sVVerifyFlag
p595
I0
sVRemarkPYQuanPin
p596
g52
sVHeadImgUrl
p597
V/cgi-bin/mmwebwx-bin/webwxgeticon?seq=673715724&username=@cf962d9304fb7b40fe11a4862c9e2f64e480b494ed19aaf65872003892091362&skey=@crypt_49509d7f_38ecf55b6ee39ea9bbaaf507392bcc3d
p598
sVKeyWord
p599
g52
sVProvince
p600
V\u4e0a\u6d77
p601
sVPYInitial
p602
VYNSPANCLASSEMOJIEMOJI1F485SPAN?
p603
sVRemarkName
p604
g52
sVIsOwner
p605
I0
sVSex
p606
I2
sVStarFriend
p607
I0
sVHideInputBarFlag
p608
I0
sVChatRoomId
p609
I0
sVEncryChatRoomId
p610
g52
sVAttrStatus
p611
I103205
sVStatues
p612
I0
stp613
Rp614
I1
bag34
(g38
g39
(dp615
VUserName
p616
V@cdf6098b4f78be17cfdeed09aab04d1d96de6408a25456c148971fded5983cd2
p617
sVCity
p618
V\u90af\u90f8
p619
sVSnsFlag
p620
I1
sVDisplayName
p621
g52
sVUniFriend
p622
I0
sVMemberCount
p623
I0
sVOwnerUin
p624
I0
sVMemberList
p625
g50
sVAlias
p626
g52
sVPYQuanPin
p627
Vniming
p628
sVSignature
p629
V<span class="emoji emoji1f63a"></span> <span class="emoji emoji1f63a"></span> <span class="emoji emoji1f63a"></span> <span class="emoji emoji1f63a"></span> <span class="emoji emoji1f63a"></span>
p630
sVRemarkPYInitial
p631
g52
sVContactFlag
p632
I1
sVUin
p633
I0
sVNickName
p634
V\u533f\u540d
p635
sVAppAccountFlag
p636
I0
sVVerifyFlag
p637
I0
sVRemarkPYQuanPin
p638
g52
sVHeadImgUrl
p639
V/cgi-bin/mmwebwx-bin/webwxgeticon?seq=673718011&username=@cdf6098b4f78be17cfdeed09aab04d1d96de6408a25456c148971fded5983cd2&skey=@crypt_49509d7f_38ecf55b6ee39ea9bbaaf507392bcc3d
p640
sVKeyWord
p641
g52
sVProvince
p642
V\u6cb3\u5317
p643
sVPYInitial
p644
VNM
p645
sVRemarkName
p646
g52
sVIsOwner
p647
I0
sVSex
p648
I1
sVStarFriend
p649
I0
sVHideInputBarFlag
p650
I0
sVChatRoomId
p651
I0
sVEncryChatRoomId
p652
g52
sVAttrStatus
p653
I33657021
sVStatues
p654
I0
stp655
Rp656
I1
bag34
(g38
g39
(dp657
VUserName
p658
V@29bd0132519af09c5cafd25a450c36f67839c725ebee9a4d8b9e410c8f82da05
p659
sVCity
p660
V\u90af\u90f8
p661
sVSnsFlag
p662
I1
sVDisplayName
p663
g52
sVUniFriend
p664
I0
sVMemberCount
p665
I0
sVOwnerUin
p666
I0
sVMemberList
p667
g50
sVAlias
p668
g52
sVPYQuanPin
p669
Vningbeisenwu
p670
sVSignature
p671
V\u5b87\u5b87\u4e0d\u6536\u4e8c\u624b\u5783\u573e\u3002
p672
sVRemarkPYInitial
p673
g52
sVContactFlag
p674
I1
sVUin
p675
I0
sVNickName
p676
V\u67e0\u5317\u68ee\u5c4b\u3002
p677
sVAppAccountFlag
p678
I0
sVVerifyFlag
p679
I0
sVRemarkPYQuanPin
p680
g52
sVHeadImgUrl
p681
V/cgi-bin/mmwebwx-bin/webwxgeticon?seq=673721821&username=@29bd0132519af09c5cafd25a450c36f67839c725ebee9a4d8b9e410c8f82da05&skey=@crypt_49509d7f_38ecf55b6ee39ea9bbaaf507392bcc3d
p682
sVKeyWord
p683
g52
sVProvince
p684
V\u6cb3\u5317
p685
sVPYInitial
p686
VNBSW
p687
sVRemarkName
p688
g52
sVIsOwner
p689
I0
sVSex
p690
I2
sVStarFriend
p691
I0
sVHideInputBarFlag
p692
I0
sVChatRoomId
p693
I0
sVEncryChatRoomId
p694
g52
sVAttrStatus
p695
I102945
sVStatues
p696
I0
stp697
Rp698
I1
bag34
(g38
g39
(dp699
VUserName
p700
V@5a0903b0b2cb8a0faeff36d46448d30b5aa33aabf470b74de001de05f8d578cb
p701
sVCity
p702
g52
sVSnsFlag
p703
I1
sVDisplayName
p704
g52
sVUniFriend
p705
I0
sVMemberCount
p706
I0
sVOwnerUin
p707
I0
sVMemberList
p708
g50
sVAlias
p709
g52
sVPYQuanPin
p710
Vqinghuida2019
p711
sVSignature
p712
V\u8bda\u5fc3\u6b63\u610f\uff0c\u505a\u5fc3\u5e95\u8ba4\u4e3a\u6b63\u786e\u7684\u4e8b
p713
sVRemarkPYInitial
p714
VCLAIRTINDER
p715
sVContactFlag
p716
I1
sVUin
p717
I0
sVNickName
p718
V\u8bf7\u56de\u7b542019
p719
sVAppAccountFlag
p720
I0
sVVerifyFlag
p721
I0
sVRemarkPYQuanPin
p722
VClairTinder
p723
sVHeadImgUrl
p724
V/cgi-bin/mmwebwx-bin/webwxgeticon?seq=673719286&username=@5a0903b0b2cb8a0faeff36d46448d30b5aa33aabf470b74de001de05f8d578cb&skey=@crypt_49509d7f_38ecf55b6ee39ea9bbaaf507392bcc3d
p725
sVKeyWord
p726
g52
sVProvince
p727
g52
sVPYInitial
p728
VQHD2019
p729
sVRemarkName
p730
VClair Tinder
p731
sVIsOwner
p732
I0
sVSex
p733
I0
sVStarFriend
p734
I0
sVHideInputBarFlag
p735
I0
sVChatRoomId
p736
I0
sVEncryChatRoomId
p737
g52
sVAttrStatus
p738
I233509
sVStatues
p739
I0
stp740
Rp741
I1
bag34
(g38
g39
(dp742
VUserName
p743
V@69be005b443aad3922086b1c15d77f1abc8d12dc0ea3b87e4ce792f2b73af22b
p744
sVCity
p745
V\u53a6\u95e8
p746
sVSnsFlag
p747
I1
sVDisplayName
p748
g52
sVUniFriend
p749
I0
sVMemberCount
p750
I0
sVOwnerUin
p751
I0
sVMemberList
p752
g50
sVAlias
p753
g52
sVPYQuanPin
p754
Vfeisehuiyi
p755
sVSignature
p756
V\u505a\u4e2a\u6e29\u67d4\uff0c\u9738\u6c14\u7684\uff0c\u6dd1\u5973\U0001f643\U0001f643
p757
sVRemarkPYInitial
p758
g52
sVContactFlag
p759
I1
sVUin
p760
I0
sVNickName
p761
V\u83f2\u8272\u56de\u5fc6
p762
sVAppAccountFlag
p763
I0
sVVerifyFlag
p764
I0
sVRemarkPYQuanPin
p765
g52
sVHeadImgUrl
p766
V/cgi-bin/mmwebwx-bin/webwxgeticon?seq=673715277&username=@69be005b443aad3922086b1c15d77f1abc8d12dc0ea3b87e4ce792f2b73af22b&skey=@crypt_49509d7f_38ecf55b6ee39ea9bbaaf507392bcc3d
p767
sVKeyWord
p768
g52
sVProvince
p769
V\u798f\u5efa
p770
sVPYInitial
p771
VFSHY
p772
sVRemarkName
p773
g52
sVIsOwner
p774
I0
sVSex
p775
I2
sVStarFriend
p776
I0
sVHideInputBarFlag
p777
I0
sVChatRoomId
p778
I0
sVEncryChatRoomId
p779
g52
sVAttrStatus
p780
I102589
sVStatues
p781
I0
stp782
Rp783
I1
bag34
(g38
g39
(dp784
VUserName
p785
V@7baa5f6c72d097fb85b590866b0b0877
p786
sVCity
p787
V\u65e0\u9521
p788
sVSnsFlag
p789
I177
sVDisplayName
p790
g52
sVUniFriend
p791
I0
sVMemberCount
p792
I0
sVOwnerUin
p793
I0
sVMemberList
p794
g50
sVAlias
p795
g52
sVPYQuanPin
p796
VjietouebaZip
p797
sVSignature
p798
VStreet Bully &amp; \u72d7\u4e0d\u61c2\u521b\u59cb\u4eba
p799
sVRemarkPYInitial
p800
g52
sVContactFlag
p801
I1
sVUin
p802
I0
sVNickName
p803
V\u8857\u982d\u60e1\u9738\u3010Zip\u3011
p804
sVAppAccountFlag
p805
I0
sVVerifyFlag
p806
I0
sVRemarkPYQuanPin
p807
g52
sVHeadImgUrl
p808
V/cgi-bin/mmwebwx-bin/webwxgeticon?seq=673713460&username=@7baa5f6c72d097fb85b590866b0b0877&skey=@crypt_49509d7f_38ecf55b6ee39ea9bbaaf507392bcc3d
p809
sVKeyWord
p810
Vtr8
p811
sVProvince
p812
V\u6c5f\u82cf
p813
sVPYInitial
p814
VJTEBZIP
p815
sVRemarkName
p816
g52
sVIsOwner
p817
I0
sVSex
p818
I1
sVStarFriend
p819
I0
sVHideInputBarFlag
p820
I0
sVChatRoomId
p821
I0
sVEncryChatRoomId
p822
g52
sVAttrStatus
p823
I2147564455
sVStatues
p824
I0
stp825
Rp826
I1
bag34
(g38
g39
(dp827
VUserName
p828
V@af1a4a26850e8b0c3b2b5d44a0c230d74b40a503a1f3d24fce46f0ad4014c396
p829
sVCity
p830
V\u5e7f\u5dde
p831
sVSnsFlag
p832
I1
sVDisplayName
p833
g52
sVUniFriend
p834
I0
sVMemberCount
p835
I0
sVOwnerUin
p836
I0
sVMemberList
p837
g50
sVAlias
p838
g52
sVPYQuanPin
p839
VAzhengshubanlizhaodaili
p840
sVSignature
p841
V\u8d28\u91cf\u4e0e\u8bda\u4fe1\u5e76\u5b58\uff01\u62db\u4ee3\u7406\uff01
p842
sVRemarkPYInitial
p843
g52
sVContactFlag
p844
I3
sVUin
p845
I0
sVNickName
p846
VA\u8bc1\u4e66\u529e\u7406(\u62db\u4ee3\u7406)
p847
sVAppAccountFlag
p848
I0
sVVerifyFlag
p849
I0
sVRemarkPYQuanPin
p850
g52
sVHeadImgUrl
p851
V/cgi-bin/mmwebwx-bin/webwxgeticon?seq=673725399&username=@af1a4a26850e8b0c3b2b5d44a0c230d74b40a503a1f3d24fce46f0ad4014c396&skey=@crypt_49509d7f_38ecf55b6ee39ea9bbaaf507392bcc3d
p852
sVKeyWord
p853
g52
sVProvince
p854
V\u5e7f\u4e1c
p855
sVPYInitial
p856
VAZSBLZDL
p857
sVRemarkName
p858
g52
sVIsOwner
p859
I0
sVSex
p860
I1
sVStarFriend
p861
I0
sVHideInputBarFlag
p862
I0
sVChatRoomId
p863
I0
sVEncryChatRoomId
p864
g52
sVAttrStatus
p865
I5053
sVStatues
p866
I0
stp867
Rp868
I1
bag34
(g38
g39
(dp869
VUserName
p870
V@0cebf6f3303771fbd0913c3acd3d18dc70be9d24b4b54e7b394b9e300a26c05d
p871
sVCity
p872
V\u6d77\u6dc0
p873
sVSnsFlag
p874
I1
sVDisplayName
p875
g52
sVUniFriend
p876
I0
sVMemberCount
p877
I0
sVOwnerUin
p878
I0
sVMemberList
p879
g50
sVAlias
p880
g52
sVPYQuanPin
p881
Vdiermeng
p882
sVSignature
p883
V\u9189\u5367\u6c99\u573a\u541b\u83ab\u7b11
p884
sVRemarkPYInitial
p885
g52
sVContactFlag
p886
I1
sVUin
p887
I0
sVNickName
p888
V\u7b2c\u4e8c\u68a6
p889
sVAppAccountFlag
p890
I0
sVVerifyFlag
p891
I0
sVRemarkPYQuanPin
p892
g52
sVHeadImgUrl
p893
V/cgi-bin/mmwebwx-bin/webwxgeticon?seq=673725344&username=@0cebf6f3303771fbd0913c3acd3d18dc70be9d24b4b54e7b394b9e300a26c05d&skey=@crypt_49509d7f_38ecf55b6ee39ea9bbaaf507392bcc3d
p894
sVKeyWord
p895
g52
sVProvince
p896
V\u5317\u4eac
p897
sVPYInitial
p898
VDEM
p899
sVRemarkName
p900
g52
sVIsOwner
p901
I0
sVSex
p902
I2
sVStarFriend
p903
I0
sVHideInputBarFlag
p904
I0
sVChatRoomId
p905
I0
sVEncryChatRoomId
p906
g52
sVAttrStatus
p907
I236323
sVStatues
p908
I0
stp909
Rp910
I1
bag34
(g38
g39
(dp911
VUserName
p912
V@61418953c9d9abc601c70f126a37f9bc5f3855870d8cfeaabe6780e3c8a21a13
p913
sVCity
p914
g52
sVSnsFlag
p915
I1
sVDisplayName
p916
g52
sVUniFriend
p917
I0
sVMemberCount
p918
I0
sVOwnerUin
p919
I0
sVMemberList
p920
g50
sVAlias
p921
g52
sVPYQuanPin
p922
VBellashanspanclassemojiemoji1f48bspan
p923
sVSignature
p924
VYou're the world to me, and dreaming on\U0001f942
p925
sVRemarkPYInitial
p926
g52
sVContactFlag
p927
I1
sVUin
p928
I0
sVNickName
p929
VBella\u73ca\U0001f48b
p930
sVAppAccountFlag
p931
I0
sVVerifyFlag
p932
I0
sVRemarkPYQuanPin
p933
g52
sVHeadImgUrl
p934
V/cgi-bin/mmwebwx-bin/webwxgeticon?seq=673725371&username=@61418953c9d9abc601c70f126a37f9bc5f3855870d8cfeaabe6780e3c8a21a13&skey=@crypt_49509d7f_38ecf55b6ee39ea9bbaaf507392bcc3d
p935
sVKeyWord
p936
g52
sVProvince
p937
VTuen Mun
p938
sVPYInitial
p939
VBELLASSPANCLASSEMOJIEMOJI1F48BSPAN
p940
sVRemarkName
p941
g52
sVIsOwner
p942
I0
sVSex
p943
I2
sVStarFriend
p944
I0
sVHideInputBarFlag
p945
I0
sVChatRoomId
p946
I0
sVEncryChatRoomId
p947
g52
sVAttrStatus
p948
I233509
sVStatues
p949
I0
stp950
Rp951
I1
batp952
Rp953
I1
bsS'chatroomList'
p954
g34
(g35
g36
(lp955
g34
(citchat.storage.templates
Chatroom
p956
g39
(dp957
VUserName
p958
V@@46a857384aaf4ae3b7cdba9d10c53082917b73cdf7f52d201dcd413cf1a5d610
p959
sVCity
p960
g52
sVDisplayName
p961
g52
sVUniFriend
p962
I0
sS'Self'
p963
g34
(g38
g39
(dp964
g41
g31
sg42
g43
sg44
g43
sg45
I0
sg46
I0
sg47
g34
(g35
g36
(lp965
tp966
Rp967
I1
bsg51
g52
sg53
g52
sg54
I200509586
sg55
I0
sg56
I0
sg57
g43
sg58
g43
sg59
g52
sg60
g52
sg61
I0
sg62
I0
sg63
I1
sg64
g43
sg65
I0
sg66
I0
sg67
I0
sg68
I0
sg69
g43
sg70
g52
sg71
I0
sg72
g73
sg74
g52
sg75
g76
sg77
I1
sg78
I0
sg79
I0
stp968
Rp969
I1
bsVMemberList
p970
g34
(g35
g36
(lp971
tp972
Rp973
I1
bsVPYQuanPin
p974
g52
sVRemarkPYInitial
p975
g52
sVSex
p976
I0
sVAppAccountFlag
p977
I0
sVVerifyFlag
p978
I0
sVProvince
p979
g52
sVKeyWord
p980
g52
sVRemarkName
p981
g52
sVPYInitial
p982
g52
sVIsOwner
p983
I0
sVChatRoomId
p984
I0
sVHideInputBarFlag
p985
I0
sVEncryChatRoomId
p986
g52
sVAttrStatus
p987
I0
sVSnsFlag
p988
I0
sVMemberCount
p989
I500
sVOwnerUin
p990
I0
sVAlias
p991
g52
sS'IsAdmin'
p992
NsVSignature
p993
g52
sVContactFlag
p994
I0
sVNickName
p995
VRedis\u6280\u672f\u4ea4\u6d41\u7fa42
p996
sVRemarkPYQuanPin
p997
g52
sVHeadImgUrl
p998
V/cgi-bin/mmwebwx-bin/webwxgetheadimg?seq=0&username=@@46a857384aaf4ae3b7cdba9d10c53082917b73cdf7f52d201dcd413cf1a5d610&skey=@crypt_49509d7f_38ecf55b6ee39ea9bbaaf507392bcc3d
p999
sVUin
p1000
I0
sVStarFriend
p1001
I0
sVStatues
p1002
I1
stp1003
Rp1004
I1
bag34
(g956
g39
(dp1005
VUserName
p1006
V@@cc3ee6a3eb427c5a69690310174476cf607cece6b2755098c04b10d0f1b54d7c
p1007
sVCity
p1008
g52
sVDisplayName
p1009
g52
sVUniFriend
p1010
I0
sg963
g34
(g38
g39
(dp1011
g41
g31
sg42
g43
sg44
g43
sg45
I0
sg46
I0
sg47
g34
(g35
g36
(lp1012
tp1013
Rp1014
I1
bsg51
g52
sg53
g52
sg54
I200509586
sg55
I0
sg56
I0
sg57
g43
sg58
g43
sg59
g52
sg60
g52
sg61
I0
sg62
I0
sg63
I1
sg64
g43
sg65
I0
sg66
I0
sg67
I0
sg68
I0
sg69
g43
sg70
g52
sg71
I0
sg72
g73
sg74
g52
sg75
g76
sg77
I1
sg78
I0
sg79
I0
stp1015
Rp1016
I1
bsVMemberList
p1017
g34
(g35
g36
(lp1018
tp1019
Rp1020
I1
bsVPYQuanPin
p1021
g52
sVRemarkPYInitial
p1022
g52
sVSex
p1023
I0
sVAppAccountFlag
p1024
I0
sVVerifyFlag
p1025
I0
sVProvince
p1026
g52
sVKeyWord
p1027
g52
sVRemarkName
p1028
g52
sVPYInitial
p1029
g52
sVIsOwner
p1030
I0
sVChatRoomId
p1031
I0
sVHideInputBarFlag
p1032
I0
sVEncryChatRoomId
p1033
g52
sVAttrStatus
p1034
I0
sVSnsFlag
p1035
I0
sVMemberCount
p1036
I499
sVOwnerUin
p1037
I0
sVAlias
p1038
g52
sg992
NsVSignature
p1039
g52
sVContactFlag
p1040
I2
sVNickName
p1041
VRedis\u6280\u672f\u4ea4\u6d41\u7fa4
p1042
sVRemarkPYQuanPin
p1043
g52
sVHeadImgUrl
p1044
V/cgi-bin/mmwebwx-bin/webwxgetheadimg?seq=673725442&username=@@cc3ee6a3eb427c5a69690310174476cf607cece6b2755098c04b10d0f1b54d7c&skey=@crypt_49509d7f_38ecf55b6ee39ea9bbaaf507392bcc3d
p1045
sVUin
p1046
I0
sVStarFriend
p1047
I0
sVStatues
p1048
I1
stp1049
Rp1050
I1
batp1051
Rp1052
I1
bsS'nickName'
p1053
g73
sS'mpList'
p1054
g34
(g35
g36
(lp1055
g34
(citchat.storage.templates
MassivePlatform
p1056
g39
(dp1057
VUserName
p1058
V@60f08c9eb5b7b538332bf2d95e8b1d24
p1059
sVCity
p1060
V\u5e7f\u5dde
p1061
sVSnsFlag
p1062
I0
sVDisplayName
p1063
g52
sVUniFriend
p1064
I0
sVMemberCount
p1065
I0
sVOwnerUin
p1066
I0
sVMemberList
p1067
g50
sVAlias
p1068
g52
sVPYQuanPin
p1069
Vyikushaonv
p1070
sVSignature
p1071
V\u5173\u6ce8\u4e0d\u4e86\uff1f \u8bf7\u641c\u7d22\u5173\u6ce8\uff1a\u5947\u8da3\u62a5\u793e\u65b0\u53f7
p1072
sVRemarkPYInitial
p1073
g52
sVContactFlag
p1074
I3
sVUin
p1075
I0
sVNickName
p1076
V\u4e00\u5e93\u5c11\u5973
p1077
sVAppAccountFlag
p1078
I0
sVVerifyFlag
p1079
I8
sVRemarkPYQuanPin
p1080
g52
sVHeadImgUrl
p1081
V/cgi-bin/mmwebwx-bin/webwxgeticon?seq=673712037&username=@60f08c9eb5b7b538332bf2d95e8b1d24&skey=@crypt_49509d7f_38ecf55b6ee39ea9bbaaf507392bcc3d
p1082
sVKeyWord
p1083
Vgh_
p1084
sVProvince
p1085
V\u5e7f\u4e1c
p1086
sVPYInitial
p1087
VYKSN
p1088
sVRemarkName
p1089
g52
sVIsOwner
p1090
I0
sVSex
p1091
I0
sVStarFriend
p1092
I0
sVHideInputBarFlag
p1093
I0
sVChatRoomId
p1094
I0
sVEncryChatRoomId
p1095
g52
sVAttrStatus
p1096
I0
sVStatues
p1097
I0
stp1098
Rp1099
I1
bag34
(g1056
g39
(dp1100
VUserName
p1101
V@4ed70b2f5eb95aa30389c41d00e5a6f6
p1102
sVCity
p1103
V\u6df1\u5733
p1104
sVSnsFlag
p1105
I0
sVDisplayName
p1106
g52
sVUniFriend
p1107
I0
sVMemberCount
p1108
I0
sVOwnerUin
p1109
I0
sVMemberList
p1110
g50
sVAlias
p1111
g52
sVPYQuanPin
p1112
Vqiyueyingku
p1113
sVSignature
p1114
V\u56e0\u4e3a\u7231\u7535\u5f71\uff0c\u6240\u4ee5\u4e0d\u5bc2\u5bde\u3002
p1115
sVRemarkPYInitial
p1116
g52
sVContactFlag
p1117
I3
sVUin
p1118
I0
sVNickName
p1119
V\u4e03\u6708\u5f71\u5e93
p1120
sVAppAccountFlag
p1121
I0
sVVerifyFlag
p1122
I24
sVRemarkPYQuanPin
p1123
g52
sVHeadImgUrl
p1124
V/cgi-bin/mmwebwx-bin/webwxgeticon?seq=673715022&username=@4ed70b2f5eb95aa30389c41d00e5a6f6&skey=@crypt_49509d7f_38ecf55b6ee39ea9bbaaf507392bcc3d
p1125
sVKeyWord
p1126
Vgh_
p1127
sVProvince
p1128
V\u5e7f\u4e1c
p1129
sVPYInitial
p1130
VQYYK
p1131
sVRemarkName
p1132
g52
sVIsOwner
p1133
I0
sVSex
p1134
I0
sVStarFriend
p1135
I0
sVHideInputBarFlag
p1136
I0
sVChatRoomId
p1137
I0
sVEncryChatRoomId
p1138
g52
sVAttrStatus
p1139
I0
sVStatues
p1140
I0
stp1141
Rp1142
I1
bag34
(g1056
g39
(dp1143
VUserName
p1144
V@1093e0261b154f7c10c5cec900d8faf0
p1145
sVCity
p1146
V\u9752\u6d66
p1147
sVSnsFlag
p1148
I0
sVDisplayName
p1149
g52
sVUniFriend
p1150
I0
sVMemberCount
p1151
I0
sVOwnerUin
p1152
I0
sVMemberList
p1153
g50
sVAlias
p1154
g52
sVPYQuanPin
p1155
Vdebangkuaidi
p1156
sVSignature
p1157
V\u5173\u6ce8\u7acb\u4eab25\u5143\u5bc4\u4ef6\u4f18\u60e0\u5927\u793c\u5305\uff0c\u5b9e\u65f6\u83b7\u53d6\u8d27\u7269\u52a8\u6001\u3002
p1158
sVRemarkPYInitial
p1159
g52
sVContactFlag
p1160
I3
sVUin
p1161
I0
sVNickName
p1162
V\u5fb7\u90a6\u5feb\u9012
p1163
sVAppAccountFlag
p1164
I0
sVVerifyFlag
p1165
I24
sVRemarkPYQuanPin
p1166
g52
sVHeadImgUrl
p1167
V/cgi-bin/mmwebwx-bin/webwxgeticon?seq=673716437&username=@1093e0261b154f7c10c5cec900d8faf0&skey=@crypt_49509d7f_38ecf55b6ee39ea9bbaaf507392bcc3d
p1168
sVKeyWord
p1169
Vgh_
p1170
sVProvince
p1171
V\u4e0a\u6d77
p1172
sVPYInitial
p1173
VDBKD
p1174
sVRemarkName
p1175
g52
sVIsOwner
p1176
I0
sVSex
p1177
I0
sVStarFriend
p1178
I0
sVHideInputBarFlag
p1179
I0
sVChatRoomId
p1180
I0
sVEncryChatRoomId
p1181
g52
sVAttrStatus
p1182
I0
sVStatues
p1183
I0
stp1184
Rp1185
I1
bag34
(g1056
g39
(dp1186
VUserName
p1187
V@eae0fd6800064041fb55bb73aefd49e9
p1188
sVCity
p1189
V\u6df1\u5733
p1190
sVSnsFlag
p1191
I0
sVDisplayName
p1192
g52
sVUniFriend
p1193
I0
sVMemberCount
p1194
I0
sVOwnerUin
p1195
I0
sVMemberList
p1196
g50
sVAlias
p1197
g52
sVPYQuanPin
p1198
Vshunfengsuyun
p1199
sVSignature
p1200
V\u5feb\u4ef6\u4fe1\u606f\u5b9e\u65f6\u6536\uff0c\u4f1a\u5458\u6743\u76ca\u7b49\u4f60\u62ff\u3002\u987a\u4e30\u901f\u8fd0\u51fa\u54c1\uff0c\u4e00\u6b3e\u63d0\u4f9b\u5728\u7ebf\u5bc4\u4ef6\u3001\u4e00\u5c0f\u65f6\u4e0a\u95e8\u3001\u5feb\u9012\u5355\u53f7\u67e5\u8be2\u3001\u7f51\u70b9\u67e5\u8be2\u3001\u8fd0\u8d39\u67e5\u8be2\u7b49\u76f8\u5173\u670d\u52a1\u7684\u5feb\u9012\u7269\u6d41\u516c\u4f17\u53f7\u3002\u67e5\u5feb\u9012\u3001\u5bc4\u5feb\u9012\u7528\u987a\u4e30\uff0c\u4e0d\u6b62\u662f\u5feb\u3002
p1201
sVRemarkPYInitial
p1202
g52
sVContactFlag
p1203
I3
sVUin
p1204
I0
sVNickName
p1205
V\u987a\u4e30\u901f\u8fd0
p1206
sVAppAccountFlag
p1207
I0
sVVerifyFlag
p1208
I24
sVRemarkPYQuanPin
p1209
g52
sVHeadImgUrl
p1210
V/cgi-bin/mmwebwx-bin/webwxgeticon?seq=673719418&username=@eae0fd6800064041fb55bb73aefd49e9&skey=@crypt_49509d7f_38ecf55b6ee39ea9bbaaf507392bcc3d
p1211
sVKeyWord
p1212
Vgh_
p1213
sVProvince
p1214
V\u5e7f\u4e1c
p1215
sVPYInitial
p1216
VSFSY
p1217
sVRemarkName
p1218
g52
sVIsOwner
p1219
I0
sVSex
p1220
I0
sVStarFriend
p1221
I0
sVHideInputBarFlag
p1222
I0
sVChatRoomId
p1223
I0
sVEncryChatRoomId
p1224
g52
sVAttrStatus
p1225
I0
sVStatues
p1226
I0
stp1227
Rp1228
I1
bag34
(g1056
g39
(dp1229
VUserName
p1230
V@e17904901412cf4327070023fdcb4219
p1231
sVCity
p1232
V\u6d4e\u5357
p1233
sVSnsFlag
p1234
I0
sVDisplayName
p1235
g52
sVUniFriend
p1236
I0
sVMemberCount
p1237
I0
sVOwnerUin
p1238
I0
sVMemberList
p1239
g50
sVAlias
p1240
g52
sVPYQuanPin
p1241
Vbaigehuidi
p1242
sVSignature
p1243
V\u767d\u9e3d\u60e0\u9012\u4e3a\u5feb\u9012\u7269\u6d41\u4e1a\u52a1\u7684\u7f51\u4e0a\u4e0b\u5355\u5e73\u53f0\u3002\u4e0e\u4e2d\u90ae\u3001\u987a\u4e30\u3001\u5fb7\u90a6\u3001\u5706\u901a\u3001\u5b85\u6025\u9001\u7b49\u4e00\u7ebf\u901f\u8fd0\u4f01\u4e1a\u5f62\u6210\u5168\u56fd\u5408\u4f5c\u9635\u8425\u3002\u7528\u6237\u53ef\u5728\u7ebf\u5bf9\u6bd4\u4e0b\u5355\uff0c\u4eab\u53d7\u5e73\u53f0\u8865\u8d34\u3002\u4e0b\u5355\u540e\u5ba2\u6237\u9759\u5f85\u5feb\u9012\u5458\u63fd\u4ef6\u3002
p1244
sVRemarkPYInitial
p1245
g52
sVContactFlag
p1246
I3
sVUin
p1247
I0
sVNickName
p1248
V\u767d\u9e3d\u60e0\u9012
p1249
sVAppAccountFlag
p1250
I0
sVVerifyFlag
p1251
I24
sVRemarkPYQuanPin
p1252
g52
sVHeadImgUrl
p1253
V/cgi-bin/mmwebwx-bin/webwxgeticon?seq=673719895&username=@e17904901412cf4327070023fdcb4219&skey=@crypt_49509d7f_38ecf55b6ee39ea9bbaaf507392bcc3d
p1254
sVKeyWord
p1255
Vgh_
p1256
sVProvince
p1257
V\u5c71\u4e1c
p1258
sVPYInitial
p1259
VBGHD
p1260
sVRemarkName
p1261
g52
sVIsOwner
p1262
I0
sVSex
p1263
I0
sVStarFriend
p1264
I0
sVHideInputBarFlag
p1265
I0
sVChatRoomId
p1266
I0
sVEncryChatRoomId
p1267
g52
sVAttrStatus
p1268
I0
sVStatues
p1269
I0
stp1270
Rp1271
I1
batp1272
Rp1273
I1
bssS'loginInfo'
p1274
(dp1275
S'SyncKey'
p1276
(dp1277
VCount
p1278
I4
sVList
p1279
(lp1280
(dp1281
VVal
p1282
I673725425
sVKey
p1283
I1
sa(dp1284
VVal
p1285
I673725478
sVKey
p1286
I2
sa(dp1287
VVal
p1288
I673725468
sVKey
p1289
I3
sa(dp1290
VVal
p1291
I1567498876
sVKey
p1292
I1000
sassS'syncUrl'
p1293
S'https://webpush.wx2.qq.com/cgi-bin/mmwebwx-bin'
p1294
sS'skey'
p1295
V@crypt_49509d7f_38ecf55b6ee39ea9bbaaf507392bcc3d
p1296
sS'wxuin'
p1297
V200509586
p1298
sS'synckey'
p1299
S'1_673725425|2_673725478|3_673725468|1000_1567498876'
p1300
sS'url'
p1301
Vhttps://wx2.qq.com/cgi-bin/mmwebwx-bin
p1302
sS'pass_ticket'
p1303
VY8bZXrGZ3oYSCqRvI5Ei4G39C4ye9q0hiuH24PI35qI%3D
p1304
sS'wxsid'
p1305
VVmuYn4L48af4yLf2
p1306
sS'BaseRequest'
p1307
(dp1308
g54
g1298
sS'Skey'
p1309
g1296
sS'DeviceID'
p1310
g1304
sS'Sid'
p1311
g1306
ssS'User'
p1312
g34
(g38
g39
(dp1313
g41
g31
sg42
g43
sg44
g43
sg45
I0
sg47
g50
sg51
g52
sg53
g52
sg77
I1
sg55
I0
sg56
I0
sg57
g43
sg58
g43
sg59
g52
sg60
g52
sg61
I0
sg62
I0
sg63
I1
sg64
g43
sg65
I0
sg68
I0
sg66
I0
sg67
I0
sg46
I0
sg69
g43
sg70
g52
sg71
I0
sg72
g73
sg74
g52
sg75
g76
sg54
I200509586
sg78
I0
sg79
I0
stp1314
Rp1315
I1
bsS'fileUrl'
p1316
S'https://file.wx2.qq.com/cgi-bin/mmwebwx-bin'
p1317
sS'InviteStartCount'
p1318
I40
sS'deviceid'
p1319
S'e649463773600107'
p1320
ss.