(dp0
S'cookies'
p1
(dp2
S'wxloadtime'
p3
S'1567867829'
p4
sS'webwx_data_ticket'
p5
S'gSdo7wmKYX69zhON2TOUpCZU'
p6
sS'wxuin'
p7
S'200509586'
p8
sS'login_frequency'
p9
S'2'
p10
sS'MM_WX_NOTIFY_STATE'
p11
S'1'
p12
sS'MM_WX_SOUND_STATE'
p13
g12
sS'webwx_auth_ticket'
p14
S'CIsBENuM08cOGoAB4vsaOKg6gpnFQaha7N+wXxyUKB2qlYLxh1QhYG5FOLITjEcddai2GrjBFvduoPlNIXWRXRz7XspFvBUMq1580nM6Wbl04k3NTVBBuvxbaxJnER4iWNrayDfH4f5YpbF46IECFyKVL2T1SHPFYLLbTrgXYJ1IAwQ+jPWIrn7GY7g='
p15
sS'last_wxuin'
p16
S'200509586'
p17
sS'webwxuvid'
p18
S'ef16bd48961c4320b665ac296596e4e69e4cd8e37ab5bc5a5e670c7371d270e94edea3796545176d5792e690a9bdbc8a'
p19
sS'wxpluginkey'
p20
S'1567518702'
p21
sS'wxsid'
p22
S'nBYYMsDUuavb4rgM'
p23
sS'mm_lang'
p24
S'zh_CN'
p25
ssS'version'
p26
S'1.3.10'
p27
sS'storage'
p28
(dp29
S'userName'
p30
V@5ad6ab134d85542adc72d6e2057762cb83565f252c054154ac674ae9ba5e92f6
p31
sS'lastInputUserName'
p32
NsS'memberList'
p33
ccopy_reg
_reconstructor
p34
(citchat.storage.templates
ContactList
p35
c__builtin__
list
p36
(lp37
g34
(citchat.storage.templates
User
p38
c__builtin__
dict
p39
(dp40
S'UserName'
p41
g31
sS'City'
p42
S''
p43
sS'DisplayName'
p44
g43
sS'UniFriend'
p45
I0
sS'OwnerUin'
p46
I0
sS'MemberList'
p47
g34
(g35
g36
(lp48
tp49
Rp50
I1
bsS'PYQuanPin'
p51
V
p52
sS'RemarkPYInitial'
p53
g52
sS'Uin'
p54
I200509586
sS'AppAccountFlag'
p55
I0
sS'VerifyFlag'
p56
I0
sS'Province'
p57
g43
sS'KeyWord'
p58
g43
sS'RemarkName'
p59
g52
sS'PYInitial'
p60
g52
sS'ChatRoomId'
p61
I0
sS'HideInputBarFlag'
p62
I0
sVHeadImgFlag
p63
I1
sS'EncryChatRoomId'
p64
g43
sS'AttrStatus'
p65
I0
sS'SnsFlag'
p66
I0
sS'MemberCount'
p67
I0
sVWebWxPluginSwitch
p68
I0
sS'Alias'
p69
g43
sS'Signature'
p70
g52
sS'ContactFlag'
p71
I0
sS'NickName'
p72
V\u673a\u5668\u4eba\u5c0f\u80d6
p73
sS'RemarkPYQuanPin'
p74
g52
sS'HeadImgUrl'
p75
V/cgi-bin/mmwebwx-bin/webwxgeticon?seq=499483136&username=@5ad6ab134d85542adc72d6e2057762cb83565f252c054154ac674ae9ba5e92f6&skey=@crypt_49509d7f_15a5f7143b7405dfe7d901bde41b0339
p76
sS'Sex'
p77
I1
sS'StarFriend'
p78
I0
sS'Statues'
p79
I0
stp80
Rp81
I1
bag34
(g38
g39
(dp82
VUserName
p83
V@cef57974484b7850e49c708070e9c87e
p84
sVCity
p85
g52
sVSnsFlag
p86
I17
sVDisplayName
p87
g52
sVUniFriend
p88
I0
sVMemberCount
p89
I0
sVOwnerUin
p90
I0
sVMemberList
p91
g50
sVAlias
p92
g52
sVPYQuanPin
p93
VCXY
p94
sVSignature
p95
V\u7b49\u98ce\u4e5f\u7b49\u4f60\u3002
p96
sVRemarkPYInitial
p97
VXYKTX
p98
sVContactFlag
p99
I1
sVUin
p100
I0
sVNickName
p101
V-C_XY-
p102
sVAppAccountFlag
p103
I0
sVVerifyFlag
p104
I0
sVRemarkPYQuanPin
p105
Vxinyongkataoxian
p106
sVHeadImgUrl
p107
V/cgi-bin/mmwebwx-bin/webwxgeticon?seq=673710066&username=@cef57974484b7850e49c708070e9c87e&skey=@crypt_49509d7f_15a5f7143b7405dfe7d901bde41b0339
p108
sVKeyWord
p109
Vwux
p110
sVProvince
p111
g52
sVPYInitial
p112
VCXY
p113
sVRemarkName
p114
V\u4fe1\u7528\u5361\u5957\u73b0
p115
sVIsOwner
p116
I0
sVSex
p117
I2
sVStarFriend
p118
I0
sVHideInputBarFlag
p119
I0
sVChatRoomId
p120
I0
sVEncryChatRoomId
p121
g52
sVAttrStatus
p122
I111719
sVStatues
p123
I0
stp124
Rp125
I1
bag34
(g38
g39
(dp126
VUserName
p127
V@514735fdbc61468bca47078330239cf207f53dfa0eb769834266c40a58c1e19a
p128
sVCity
p129
g52
sVSnsFlag
p130
I1
sVDisplayName
p131
g52
sVUniFriend
p132
I0
sVMemberCount
p133
I0
sVOwnerUin
p134
I0
sVMemberList
p135
g50
sVAlias
p136
g52
sVPYQuanPin
p137
Vchuanguoliushui
p138
sVSignature
p139
V\u53ea\u4e3a\u4e00\u4eba\u7559
p140
sVRemarkPYInitial
p141
g52
sVContactFlag
p142
I1
sVUin
p143
I0
sVNickName
p144
V\u7a7f\u8fc7\u6d41\u6c34
p145
sVAppAccountFlag
p146
I0
sVVerifyFlag
p147
I0
sVRemarkPYQuanPin
p148
g52
sVHeadImgUrl
p149
V/cgi-bin/mmwebwx-bin/webwxgeticon?seq=673714836&username=@514735fdbc61468bca47078330239cf207f53dfa0eb769834266c40a58c1e19a&skey=@crypt_49509d7f_15a5f7143b7405dfe7d901bde41b0339
p150
sVKeyWord
p151
g52
sVProvince
p152
VKowloon City
p153
sVPYInitial
p154
VCGLS
p155
sVRemarkName
p156
g52
sVIsOwner
p157
I0
sVSex
p158
I1
sVStarFriend
p159
I0
sVHideInputBarFlag
p160
I0
sVChatRoomId
p161
I0
sVEncryChatRoomId
p162
g52
sVAttrStatus
p163
I33690405
sVStatues
p164
I0
stp165
Rp166
I1
bag34
(g38
g39
(dp167
VUserName
p168
V@f0970116a4c7b00fbf49041b05713c851c681230655356fb6579ee21d1db22b8
p169
sVCity
p170
g52
sVSnsFlag
p171
I1
sVDisplayName
p172
g52
sVUniFriend
p173
I0
sVMemberCount
p174
I0
sVOwnerUin
p175
I0
sVMemberList
p176
g50
sVAlias
p177
g52
sVPYQuanPin
p178
VAkuaidiyouhuiquanbudingjigengxin
p179
sVSignature
p180
V\u963f\u8fea\u8fbe\u65af\u7ae5\u88c5  \u65ad\u7801\u7279\u4ef7
p181
sVRemarkPYInitial
p182
g52
sVContactFlag
p183
I3
sVUin
p184
I0
sVNickName
p185
VA\u5feb\u9012\u4f18\u60e0\u5238 \u4e0d\u5b9a\u671f\u66f4\u65b0
p186
sVAppAccountFlag
p187
I0
sVVerifyFlag
p188
I0
sVRemarkPYQuanPin
p189
g52
sVHeadImgUrl
p190
V/cgi-bin/mmwebwx-bin/webwxgeticon?seq=673716439&username=@f0970116a4c7b00fbf49041b05713c851c681230655356fb6579ee21d1db22b8&skey=@crypt_49509d7f_15a5f7143b7405dfe7d901bde41b0339
p191
sVKeyWord
p192
g52
sVProvince
p193
g52
sVPYInitial
p194
VAKDYHQBDJGX
p195
sVRemarkName
p196
g52
sVIsOwner
p197
I0
sVSex
p198
I1
sVStarFriend
p199
I0
sVHideInputBarFlag
p200
I0
sVChatRoomId
p201
I0
sVEncryChatRoomId
p202
g52
sVAttrStatus
p203
I135205
sVStatues
p204
I0
stp205
Rp206
I1
bag34
(g38
g39
(dp207
VUserName
p208
V@55806e3103edf452f4882a07c2ca8325a5f5d9fdaa629b55c6acefb17f0b53a0
p209
sVCity
p210
g52
sVSnsFlag
p211
I1
sVDisplayName
p212
g52
sVUniFriend
p213
I0
sVMemberCount
p214
I0
sVOwnerUin
p215
I0
sVMemberList
p216
g50
sVAlias
p217
g52
sVPYQuanPin
p218
Vbanjialvyou
p219
sVSignature
p220
g52
sVRemarkPYInitial
p221
g52
sVContactFlag
p222
I3
sVUin
p223
I0
sVNickName
p224
V\u534a\u4ef7\u65c5\u6e38
p225
sVAppAccountFlag
p226
I0
sVVerifyFlag
p227
I0
sVRemarkPYQuanPin
p228
g52
sVHeadImgUrl
p229
V/cgi-bin/mmwebwx-bin/webwxgeticon?seq=673722419&username=@55806e3103edf452f4882a07c2ca8325a5f5d9fdaa629b55c6acefb17f0b53a0&skey=@crypt_49509d7f_15a5f7143b7405dfe7d901bde41b0339
p230
sVKeyWord
p231
g52
sVProvince
p232
g52
sVPYInitial
p233
VBJLY
p234
sVRemarkName
p235
g52
sVIsOwner
p236
I0
sVSex
p237
I0
sVStarFriend
p238
I0
sVHideInputBarFlag
p239
I0
sVChatRoomId
p240
I0
sVEncryChatRoomId
p241
g52
sVAttrStatus
p242
I135269
sVStatues
p243
I0
stp244
Rp245
I1
bag34
(g38
g39
(dp246
VUserName
p247
V@f2c5c56eeff66b6d1bb02990e24ec300836d554378b81f23b868141b02579251
p248
sVCity
p249
V\u671d\u9633
p250
sVSnsFlag
p251
I1
sVDisplayName
p252
g52
sVUniFriend
p253
I0
sVMemberCount
p254
I0
sVOwnerUin
p255
I0
sVMemberList
p256
g50
sVAlias
p257
g52
sVPYQuanPin
p258
Vxiaomaoshugadian
p259
sVSignature
p260
V\u5907\u6ce8\u6765\u610f+\u54ea\u91cc\u770b\u5230\u5fae\u4fe1\u53f7\uff0c\u4e0d\u5907\u6ce8\u4e0d\u901a\u8fc7
p261
sVRemarkPYInitial
p262
g52
sVContactFlag
p263
I3
sVUin
p264
I0
sVNickName
p265
V\u5c0f\u732b\u4e66\u5496\u5e97
p266
sVAppAccountFlag
p267
I0
sVVerifyFlag
p268
I0
sVRemarkPYQuanPin
p269
g52
sVHeadImgUrl
p270
V/cgi-bin/mmwebwx-bin/webwxgeticon?seq=673723018&username=@f2c5c56eeff66b6d1bb02990e24ec300836d554378b81f23b868141b02579251&skey=@crypt_49509d7f_15a5f7143b7405dfe7d901bde41b0339
p271
sVKeyWord
p272
g52
sVProvince
p273
V\u5317\u4eac
p274
sVPYInitial
p275
VXMSGD
p276
sVRemarkName
p277
g52
sVIsOwner
p278
I0
sVSex
p279
I2
sVStarFriend
p280
I0
sVHideInputBarFlag
p281
I0
sVChatRoomId
p282
I0
sVEncryChatRoomId
p283
g52
sVAttrStatus
p284
I4645
sVStatues
p285
I0
stp286
Rp287
I1
bag34
(g38
g39
(dp288
VUserName
p289
V@51a189b82c40f537aa3b4e1fb968d7db006e7fb10da24366c3abaa3e1b08ed1e
p290
sVCity
p291
g52
sVSnsFlag
p292
I1
sVDisplayName
p293
g52
sVUniFriend
p294
I0
sVMemberCount
p295
I0
sVOwnerUin
p296
I0
sVMemberList
p297
g50
sVAlias
p298
g52
sVPYQuanPin
p299
Vspanclassemojiemoji1f451spanHoiYispanclassemojiemoji1f451span
p300
sVSignature
p301
V\u4eba\u751f\u5efa\u8bae\uff1aKeep it real<span class="emoji emoji2764"></span>\ufe0f\u2003\u2003\u2003\u2003\u2003\u2003\u2003\u2003 \u2003\u05b4\u05b4\u000a\u05b4
p302
sVRemarkPYInitial
p303
g52
sVContactFlag
p304
I1
sVUin
p305
I0
sVNickName
p306
V\U0001f451HoiYi\U0001f451
p307
sVAppAccountFlag
p308
I0
sVVerifyFlag
p309
I0
sVRemarkPYQuanPin
p310
g52
sVHeadImgUrl
p311
V/cgi-bin/mmwebwx-bin/webwxgeticon?seq=673722685&username=@51a189b82c40f537aa3b4e1fb968d7db006e7fb10da24366c3abaa3e1b08ed1e&skey=@crypt_49509d7f_15a5f7143b7405dfe7d901bde41b0339
p312
sVKeyWord
p313
g52
sVProvince
p314
g52
sVPYInitial
p315
VSPANCLASSEMOJIEMOJI1F451SPANHOIYISPANCLASSEMOJIEMOJI1F451SPAN
p316
sVRemarkName
p317
g52
sVIsOwner
p318
I0
sVSex
p319
I0
sVStarFriend
p320
I0
sVHideInputBarFlag
p321
I0
sVChatRoomId
p322
I0
sVEncryChatRoomId
p323
g52
sVAttrStatus
p324
I105253
sVStatues
p325
I0
stp326
Rp327
I1
bag34
(g38
g39
(dp328
VUserName
p329
V@f5af2533d3d240d7d55d4455bfdde1302ae4cb8af01ec64e77451c99fa73b3c0
p330
sVCity
p331
g52
sVSnsFlag
p332
I1
sVDisplayName
p333
g52
sVUniFriend
p334
I0
sVMemberCount
p335
I0
sVOwnerUin
p336
I0
sVMemberList
p337
g50
sVAlias
p338
g52
sVPYQuanPin
p339
Vruhigruhig
p340
sVSignature
p341
g52
sVRemarkPYInitial
p342
g52
sVContactFlag
p343
I3
sVUin
p344
I0
sVNickName
p345
Vruhigruhig
p346
sVAppAccountFlag
p347
I0
sVVerifyFlag
p348
I0
sVRemarkPYQuanPin
p349
g52
sVHeadImgUrl
p350
V/cgi-bin/mmwebwx-bin/webwxgeticon?seq=673722781&username=@f5af2533d3d240d7d55d4455bfdde1302ae4cb8af01ec64e77451c99fa73b3c0&skey=@crypt_49509d7f_15a5f7143b7405dfe7d901bde41b0339
p351
sVKeyWord
p352
g52
sVProvince
p353
g52
sVPYInitial
p354
VRUHIGRUHIG
p355
sVRemarkName
p356
g52
sVIsOwner
p357
I0
sVSex
p358
I0
sVStarFriend
p359
I0
sVHideInputBarFlag
p360
I0
sVChatRoomId
p361
I0
sVEncryChatRoomId
p362
g52
sVAttrStatus
p363
I234277
sVStatues
p364
I0
stp365
Rp366
I1
bag34
(g38
g39
(dp367
VUserName
p368
V@dc70b8f7f2fc3e7a40ee3ae09bb13875
p369
sVCity
p370
V\u4e1c\u57ce
p371
sVSnsFlag
p372
I17
sVDisplayName
p373
g52
sVUniFriend
p374
I0
sVMemberCount
p375
I0
sVOwnerUin
p376
I0
sVMemberList
p377
g50
sVAlias
p378
g52
sVPYQuanPin
p379
Vpengcheng
p380
sVSignature
p381
V\u672a\u6765\u4e0d\u8fce\uff0c\u5f53\u65f6\u4e0d\u6742\uff0c\u8fc7\u5f80\u4e0d\u604b
p382
sVRemarkPYInitial
p383
g52
sVContactFlag
p384
I3
sVUin
p385
I0
sVNickName
p386
V\u9e4f\u7a0b
p387
sVAppAccountFlag
p388
I0
sVVerifyFlag
p389
I0
sVRemarkPYQuanPin
p390
g52
sVHeadImgUrl
p391
V/cgi-bin/mmwebwx-bin/webwxgeticon?seq=669180196&username=@dc70b8f7f2fc3e7a40ee3ae09bb13875&skey=@crypt_49509d7f_15a5f7143b7405dfe7d901bde41b0339
p392
sVKeyWord
p393
Vwar
p394
sVProvince
p395
V\u5317\u4eac
p396
sVPYInitial
p397
VPC
p398
sVRemarkName
p399
g52
sVIsOwner
p400
I0
sVSex
p401
I1
sVStarFriend
p402
I0
sVHideInputBarFlag
p403
I0
sVChatRoomId
p404
I0
sVEncryChatRoomId
p405
g52
sVAttrStatus
p406
I33691111
sVStatues
p407
I0
stp408
Rp409
I1
bag34
(g38
g39
(dp410
VUserName
p411
V@8c5a3fbf3dc8d1c39d41ec38944adeb5fecc97b693dd6900688be89ed1b62a6f
p412
sVCity
p413
g52
sVSnsFlag
p414
I1
sVDisplayName
p415
g52
sVUniFriend
p416
I0
sVMemberCount
p417
I0
sVOwnerUin
p418
I0
sVMemberList
p419
g50
sVAlias
p420
g52
sVPYQuanPin
p421
VSimpler?
p422
sVSignature
p423
VHierarchy
p424
sVRemarkPYInitial
p425
g52
sVContactFlag
p426
I1
sVUin
p427
I0
sVNickName
p428
VSimpler\U0001f408
p429
sVAppAccountFlag
p430
I0
sVVerifyFlag
p431
I0
sVRemarkPYQuanPin
p432
g52
sVHeadImgUrl
p433
V/cgi-bin/mmwebwx-bin/webwxgeticon?seq=673719582&username=@8c5a3fbf3dc8d1c39d41ec38944adeb5fecc97b693dd6900688be89ed1b62a6f&skey=@crypt_49509d7f_15a5f7143b7405dfe7d901bde41b0339
p434
sVKeyWord
p435
g52
sVProvince
p436
g52
sVPYInitial
p437
VSIMPLER?
p438
sVRemarkName
p439
g52
sVIsOwner
p440
I0
sVSex
p441
I2
sVStarFriend
p442
I0
sVHideInputBarFlag
p443
I0
sVChatRoomId
p444
I0
sVEncryChatRoomId
p445
g52
sVAttrStatus
p446
I234277
sVStatues
p447
I0
stp448
Rp449
I1
bag34
(g38
g39
(dp450
VUserName
p451
V@382d708d8f83cff4c028a996e1140ee764e2e2e633f7d8bf7b144161c9c0c947
p452
sVCity
p453
g52
sVSnsFlag
p454
I1
sVDisplayName
p455
g52
sVUniFriend
p456
I0
sVMemberCount
p457
I0
sVOwnerUin
p458
I0
sVMemberList
p459
g50
sVAlias
p460
g52
sVPYQuanPin
p461
VMolly
p462
sVSignature
p463
V\u5c3d\u4eba\u4e8b\u542c\u5929\u610f\uff01
p464
sVRemarkPYInitial
p465
g52
sVContactFlag
p466
I1
sVUin
p467
I0
sVNickName
p468
VMolly
p469
sVAppAccountFlag
p470
I0
sVVerifyFlag
p471
I0
sVRemarkPYQuanPin
p472
g52
sVHeadImgUrl
p473
V/cgi-bin/mmwebwx-bin/webwxgeticon?seq=673715616&username=@382d708d8f83cff4c028a996e1140ee764e2e2e633f7d8bf7b144161c9c0c947&skey=@crypt_49509d7f_15a5f7143b7405dfe7d901bde41b0339
p474
sVKeyWord
p475
g52
sVProvince
p476
g52
sVPYInitial
p477
VMOLLY
p478
sVRemarkName
p479
g52
sVIsOwner
p480
I0
sVSex
p481
I2
sVStarFriend
p482
I0
sVHideInputBarFlag
p483
I0
sVChatRoomId
p484
I0
sVEncryChatRoomId
p485
g52
sVAttrStatus
p486
I234083
sVStatues
p487
I0
stp488
Rp489
I1
bag34
(g38
g39
(dp490
VUserName
p491
V@191050765932121b361e99235d842cb6eb12d1c71ef298a7833d60049bdddb12
p492
sVCity
p493
V\u5305\u5934
p494
sVSnsFlag
p495
I1
sVDisplayName
p496
g52
sVUniFriend
p497
I0
sVMemberCount
p498
I0
sVOwnerUin
p499
I0
sVMemberList
p500
g50
sVAlias
p501
g52
sVPYQuanPin
p502
Vxiaoqing
p503
sVSignature
p504
g52
sVRemarkPYInitial
p505
g52
sVContactFlag
p506
I1
sVUin
p507
I0
sVNickName
p508
V\u5c0f\u9752
p509
sVAppAccountFlag
p510
I0
sVVerifyFlag
p511
I0
sVRemarkPYQuanPin
p512
g52
sVHeadImgUrl
p513
V/cgi-bin/mmwebwx-bin/webwxgeticon?seq=673718930&username=@191050765932121b361e99235d842cb6eb12d1c71ef298a7833d60049bdddb12&skey=@crypt_49509d7f_15a5f7143b7405dfe7d901bde41b0339
p514
sVKeyWord
p515
g52
sVProvince
p516
V\u5185\u8499\u53e4
p517
sVPYInitial
p518
VXQ
p519
sVRemarkName
p520
g52
sVIsOwner
p521
I0
sVSex
p522
I1
sVStarFriend
p523
I0
sVHideInputBarFlag
p524
I0
sVChatRoomId
p525
I0
sVEncryChatRoomId
p526
g52
sVAttrStatus
p527
I234109
sVStatues
p528
I0
stp529
Rp530
I1
bag34
(g38
g39
(dp531
VUserName
p532
V@c1b5133f60e67d72dc8269d61e76c19c4ce2f254741bc1621de1a638472f465d
p533
sVCity
p534
V\u6d66\u4e1c\u65b0\u533a
p535
sVSnsFlag
p536
I1
sVDisplayName
p537
g52
sVUniFriend
p538
I0
sVMemberCount
p539
I0
sVOwnerUin
p540
I0
sVMemberList
p541
g50
sVAlias
p542
g52
sVPYQuanPin
p543
Vyannispanclassemojiemoji1f485span?
p544
sVSignature
p545
V\u4f60\u82e5\u76db\u5f00\uff0c\u8774\u8776\u81ea\u6765\u2026\u2026
p546
sVRemarkPYInitial
p547
g52
sVContactFlag
p548
I1
sVUin
p549
I0
sVNickName
p550
V\u71d5\u59ae\U0001f485\U0001f3fb
p551
sVAppAccountFlag
p552
I0
sVVerifyFlag
p553
I0
sVRemarkPYQuanPin
p554
g52
sVHeadImgUrl
p555
V/cgi-bin/mmwebwx-bin/webwxgeticon?seq=673715724&username=@c1b5133f60e67d72dc8269d61e76c19c4ce2f254741bc1621de1a638472f465d&skey=@crypt_49509d7f_15a5f7143b7405dfe7d901bde41b0339
p556
sVKeyWord
p557
g52
sVProvince
p558
V\u4e0a\u6d77
p559
sVPYInitial
p560
VYNSPANCLASSEMOJIEMOJI1F485SPAN?
p561
sVRemarkName
p562
g52
sVIsOwner
p563
I0
sVSex
p564
I2
sVStarFriend
p565
I0
sVHideInputBarFlag
p566
I0
sVChatRoomId
p567
I0
sVEncryChatRoomId
p568
g52
sVAttrStatus
p569
I103205
sVStatues
p570
I0
stp571
Rp572
I1
bag34
(g38
g39
(dp573
VUserName
p574
V@3a902fecb817c0bb634cfb4ca837f9aa100d20f0ffadbb0b8d7300c4a1361e55
p575
sVCity
p576
V\u90af\u90f8
p577
sVSnsFlag
p578
I1
sVDisplayName
p579
g52
sVUniFriend
p580
I0
sVMemberCount
p581
I0
sVOwnerUin
p582
I0
sVMemberList
p583
g50
sVAlias
p584
g52
sVPYQuanPin
p585
Vniming
p586
sVSignature
p587
V<span class="emoji emoji1f63a"></span> <span class="emoji emoji1f63a"></span> <span class="emoji emoji1f63a"></span> <span class="emoji emoji1f63a"></span> <span class="emoji emoji1f63a"></span>
p588
sVRemarkPYInitial
p589
g52
sVContactFlag
p590
I1
sVUin
p591
I0
sVNickName
p592
V\u533f\u540d
p593
sVAppAccountFlag
p594
I0
sVVerifyFlag
p595
I0
sVRemarkPYQuanPin
p596
g52
sVHeadImgUrl
p597
V/cgi-bin/mmwebwx-bin/webwxgeticon?seq=673718011&username=@3a902fecb817c0bb634cfb4ca837f9aa100d20f0ffadbb0b8d7300c4a1361e55&skey=@crypt_49509d7f_15a5f7143b7405dfe7d901bde41b0339
p598
sVKeyWord
p599
g52
sVProvince
p600
V\u6cb3\u5317
p601
sVPYInitial
p602
VNM
p603
sVRemarkName
p604
g52
sVIsOwner
p605
I0
sVSex
p606
I1
sVStarFriend
p607
I0
sVHideInputBarFlag
p608
I0
sVChatRoomId
p609
I0
sVEncryChatRoomId
p610
g52
sVAttrStatus
p611
I33657021
sVStatues
p612
I0
stp613
Rp614
I1
bag34
(g38
g39
(dp615
VUserName
p616
V@df263805f13c091633ecfd16d304f2123eab369430caf022d657292f082430e7
p617
sVCity
p618
V\u90af\u90f8
p619
sVSnsFlag
p620
I1
sVDisplayName
p621
g52
sVUniFriend
p622
I0
sVMemberCount
p623
I0
sVOwnerUin
p624
I0
sVMemberList
p625
g50
sVAlias
p626
g52
sVPYQuanPin
p627
Vningbeisenwu
p628
sVSignature
p629
V\u5b87\u5b87\u4e0d\u6536\u4e8c\u624b\u5783\u573e\u3002
p630
sVRemarkPYInitial
p631
g52
sVContactFlag
p632
I1
sVUin
p633
I0
sVNickName
p634
V\u67e0\u5317\u68ee\u5c4b\u3002
p635
sVAppAccountFlag
p636
I0
sVVerifyFlag
p637
I0
sVRemarkPYQuanPin
p638
g52
sVHeadImgUrl
p639
V/cgi-bin/mmwebwx-bin/webwxgeticon?seq=673721821&username=@df263805f13c091633ecfd16d304f2123eab369430caf022d657292f082430e7&skey=@crypt_49509d7f_15a5f7143b7405dfe7d901bde41b0339
p640
sVKeyWord
p641
g52
sVProvince
p642
V\u6cb3\u5317
p643
sVPYInitial
p644
VNBSW
p645
sVRemarkName
p646
g52
sVIsOwner
p647
I0
sVSex
p648
I2
sVStarFriend
p649
I0
sVHideInputBarFlag
p650
I0
sVChatRoomId
p651
I0
sVEncryChatRoomId
p652
g52
sVAttrStatus
p653
I102945
sVStatues
p654
I0
stp655
Rp656
I1
bag34
(g38
g39
(dp657
VUserName
p658
V@f9951e58644de28a20b88c3a2d5c3a4e7838e4772cf3c7d1aadee9b88766bdb1
p659
sVCity
p660
g52
sVSnsFlag
p661
I1
sVDisplayName
p662
g52
sVUniFriend
p663
I0
sVMemberCount
p664
I0
sVOwnerUin
p665
I0
sVMemberList
p666
g50
sVAlias
p667
g52
sVPYQuanPin
p668
Vqinghuida2019
p669
sVSignature
p670
V\u8bda\u5fc3\u6b63\u610f\uff0c\u505a\u5fc3\u5e95\u8ba4\u4e3a\u6b63\u786e\u7684\u4e8b
p671
sVRemarkPYInitial
p672
VCLAIRTINDER
p673
sVContactFlag
p674
I1
sVUin
p675
I0
sVNickName
p676
V\u8bf7\u56de\u7b542019
p677
sVAppAccountFlag
p678
I0
sVVerifyFlag
p679
I0
sVRemarkPYQuanPin
p680
VClairTinder
p681
sVHeadImgUrl
p682
V/cgi-bin/mmwebwx-bin/webwxgeticon?seq=673719286&username=@f9951e58644de28a20b88c3a2d5c3a4e7838e4772cf3c7d1aadee9b88766bdb1&skey=@crypt_49509d7f_15a5f7143b7405dfe7d901bde41b0339
p683
sVKeyWord
p684
g52
sVProvince
p685
g52
sVPYInitial
p686
VQHD2019
p687
sVRemarkName
p688
VClair Tinder
p689
sVIsOwner
p690
I0
sVSex
p691
I0
sVStarFriend
p692
I0
sVHideInputBarFlag
p693
I0
sVChatRoomId
p694
I0
sVEncryChatRoomId
p695
g52
sVAttrStatus
p696
I233509
sVStatues
p697
I0
stp698
Rp699
I1
bag34
(g38
g39
(dp700
VUserName
p701
V@f431ab60840da40817938e317e0701f9e54af52774868611678269ee6a090efe
p702
sVCity
p703
V\u53a6\u95e8
p704
sVSnsFlag
p705
I1
sVDisplayName
p706
g52
sVUniFriend
p707
I0
sVMemberCount
p708
I0
sVOwnerUin
p709
I0
sVMemberList
p710
g50
sVAlias
p711
g52
sVPYQuanPin
p712
Vfeisehuiyi
p713
sVSignature
p714
V\u505a\u4e2a\u6e29\u67d4\uff0c\u9738\u6c14\u7684\uff0c\u6dd1\u5973\U0001f643\U0001f643
p715
sVRemarkPYInitial
p716
g52
sVContactFlag
p717
I1
sVUin
p718
I0
sVNickName
p719
V\u83f2\u8272\u56de\u5fc6
p720
sVAppAccountFlag
p721
I0
sVVerifyFlag
p722
I0
sVRemarkPYQuanPin
p723
g52
sVHeadImgUrl
p724
V/cgi-bin/mmwebwx-bin/webwxgeticon?seq=673715277&username=@f431ab60840da40817938e317e0701f9e54af52774868611678269ee6a090efe&skey=@crypt_49509d7f_15a5f7143b7405dfe7d901bde41b0339
p725
sVKeyWord
p726
g52
sVProvince
p727
V\u798f\u5efa
p728
sVPYInitial
p729
VFSHY
p730
sVRemarkName
p731
g52
sVIsOwner
p732
I0
sVSex
p733
I2
sVStarFriend
p734
I0
sVHideInputBarFlag
p735
I0
sVChatRoomId
p736
I0
sVEncryChatRoomId
p737
g52
sVAttrStatus
p738
I102589
sVStatues
p739
I0
stp740
Rp741
I1
bag34
(g38
g39
(dp742
VUserName
p743
V@437bd07dca868030b181b5aaee5e79d9
p744
sVCity
p745
V\u65e0\u9521
p746
sVSnsFlag
p747
I177
sVDisplayName
p748
g52
sVUniFriend
p749
I0
sVMemberCount
p750
I0
sVOwnerUin
p751
I0
sVMemberList
p752
g50
sVAlias
p753
g52
sVPYQuanPin
p754
VjietouebaZip
p755
sVSignature
p756
VStreet Bully &amp; \u72d7\u4e0d\u61c2\u521b\u59cb\u4eba
p757
sVRemarkPYInitial
p758
g52
sVContactFlag
p759
I1
sVUin
p760
I0
sVNickName
p761
V\u8857\u982d\u60e1\u9738\u3010Zip\u3011
p762
sVAppAccountFlag
p763
I0
sVVerifyFlag
p764
I0
sVRemarkPYQuanPin
p765
g52
sVHeadImgUrl
p766
V/cgi-bin/mmwebwx-bin/webwxgeticon?seq=673713460&username=@437bd07dca868030b181b5aaee5e79d9&skey=@crypt_49509d7f_15a5f7143b7405dfe7d901bde41b0339
p767
sVKeyWord
p768
Vtr8
p769
sVProvince
p770
V\u6c5f\u82cf
p771
sVPYInitial
p772
VJTEBZIP
p773
sVRemarkName
p774
g52
sVIsOwner
p775
I0
sVSex
p776
I1
sVStarFriend
p777
I0
sVHideInputBarFlag
p778
I0
sVChatRoomId
p779
I0
sVEncryChatRoomId
p780
g52
sVAttrStatus
p781
I2147564455
sVStatues
p782
I0
stp783
Rp784
I1
bag34
(g38
g39
(dp785
VUserName
p786
V@2bdef2d3d316fc1a8642c4d87ed2841b49ec3b540029a2382adcc7ff2a104dd1
p787
sVCity
p788
V\u5e7f\u5dde
p789
sVSnsFlag
p790
I1
sVDisplayName
p791
g52
sVUniFriend
p792
I0
sVMemberCount
p793
I0
sVOwnerUin
p794
I0
sVMemberList
p795
g50
sVAlias
p796
g52
sVPYQuanPin
p797
VAzhengshubanlizhaodaili
p798
sVSignature
p799
V\u8d28\u91cf\u4e0e\u8bda\u4fe1\u5e76\u5b58\uff01\u62db\u4ee3\u7406\uff01
p800
sVRemarkPYInitial
p801
g52
sVContactFlag
p802
I3
sVUin
p803
I0
sVNickName
p804
VA\u8bc1\u4e66\u529e\u7406(\u62db\u4ee3\u7406)
p805
sVAppAccountFlag
p806
I0
sVVerifyFlag
p807
I0
sVRemarkPYQuanPin
p808
g52
sVHeadImgUrl
p809
V/cgi-bin/mmwebwx-bin/webwxgeticon?seq=673725399&username=@2bdef2d3d316fc1a8642c4d87ed2841b49ec3b540029a2382adcc7ff2a104dd1&skey=@crypt_49509d7f_15a5f7143b7405dfe7d901bde41b0339
p810
sVKeyWord
p811
g52
sVProvince
p812
V\u5e7f\u4e1c
p813
sVPYInitial
p814
VAZSBLZDL
p815
sVRemarkName
p816
g52
sVIsOwner
p817
I0
sVSex
p818
I1
sVStarFriend
p819
I0
sVHideInputBarFlag
p820
I0
sVChatRoomId
p821
I0
sVEncryChatRoomId
p822
g52
sVAttrStatus
p823
I5053
sVStatues
p824
I0
stp825
Rp826
I1
bag34
(g38
g39
(dp827
VUserName
p828
V@88d1fa395fc7c09479e5ae48e45ef658040ebda3f4ffc27c0d1a5ea1e026b67c
p829
sVCity
p830
g52
sVSnsFlag
p831
I1
sVDisplayName
p832
g52
sVUniFriend
p833
I0
sVMemberCount
p834
I0
sVOwnerUin
p835
I0
sVMemberList
p836
g50
sVAlias
p837
g52
sVPYQuanPin
p838
VBellashanspanclassemojiemoji1f48bspan
p839
sVSignature
p840
VYou're the world to me, and dreaming on\U0001f942
p841
sVRemarkPYInitial
p842
g52
sVContactFlag
p843
I1
sVUin
p844
I0
sVNickName
p845
VBella\u73ca\U0001f48b
p846
sVAppAccountFlag
p847
I0
sVVerifyFlag
p848
I0
sVRemarkPYQuanPin
p849
g52
sVHeadImgUrl
p850
V/cgi-bin/mmwebwx-bin/webwxgeticon?seq=673725371&username=@88d1fa395fc7c09479e5ae48e45ef658040ebda3f4ffc27c0d1a5ea1e026b67c&skey=@crypt_49509d7f_15a5f7143b7405dfe7d901bde41b0339
p851
sVKeyWord
p852
g52
sVProvince
p853
VTuen Mun
p854
sVPYInitial
p855
VBELLASSPANCLASSEMOJIEMOJI1F48BSPAN
p856
sVRemarkName
p857
g52
sVIsOwner
p858
I0
sVSex
p859
I2
sVStarFriend
p860
I0
sVHideInputBarFlag
p861
I0
sVChatRoomId
p862
I0
sVEncryChatRoomId
p863
g52
sVAttrStatus
p864
I233509
sVStatues
p865
I0
stp866
Rp867
I1
bag34
(g38
g39
(dp868
VUserName
p869
V@dedb22a6bc620b591538a8bd9cef151c2b6fed3a48e91711da5396ba62e9d289
p870
sVCity
p871
VOthers
p872
sVSnsFlag
p873
I1
sVDisplayName
p874
g52
sVUniFriend
p875
I0
sVMemberCount
p876
I0
sVOwnerUin
p877
I0
sVMemberList
p878
g50
sVAlias
p879
g52
sVPYQuanPin
p880
VEmilyC
p881
sVSignature
p882
V\u65f6\u95f4\u8bc1\u660e\u4e00\u5207
p883
sVRemarkPYInitial
p884
g52
sVContactFlag
p885
I1
sVUin
p886
I0
sVNickName
p887
VEmilyC
p888
sVAppAccountFlag
p889
I0
sVVerifyFlag
p890
I0
sVRemarkPYQuanPin
p891
g52
sVHeadImgUrl
p892
V/cgi-bin/mmwebwx-bin/webwxgeticon?seq=673719319&username=@dedb22a6bc620b591538a8bd9cef151c2b6fed3a48e91711da5396ba62e9d289&skey=@crypt_49509d7f_15a5f7143b7405dfe7d901bde41b0339
p893
sVKeyWord
p894
g52
sVProvince
p895
VKuala Lumpur
p896
sVPYInitial
p897
VEMILYC
p898
sVRemarkName
p899
g52
sVIsOwner
p900
I0
sVSex
p901
I2
sVStarFriend
p902
I0
sVHideInputBarFlag
p903
I0
sVChatRoomId
p904
I0
sVEncryChatRoomId
p905
g52
sVAttrStatus
p906
I33656865
sVStatues
p907
I0
stp908
Rp909
I1
bag34
(g38
g39
(dp910
VUserName
p911
V@2c3b028b304f5f1fe05025b102d0cd8ae4f9ddb0d8f8780b5b7d529fc4adc449
p912
sVCity
p913
V\u676d\u5dde
p914
sVSnsFlag
p915
I1
sVDisplayName
p916
g52
sVUniFriend
p917
I0
sVMemberCount
p918
I0
sVOwnerUin
p919
I0
sVMemberList
p920
g50
sVAlias
p921
g52
sVPYQuanPin
p922
Vspanclassemojiemoji1f48bspannannanZzi
p923
sVSignature
p924
V\u4e07\u7f18\u653e\u4e0b
p925
sVRemarkPYInitial
p926
g52
sVContactFlag
p927
I1
sVUin
p928
I0
sVNickName
p929
V\U0001f48b \u56e1\u56e1Zzi
p930
sVAppAccountFlag
p931
I0
sVVerifyFlag
p932
I0
sVRemarkPYQuanPin
p933
g52
sVHeadImgUrl
p934
V/cgi-bin/mmwebwx-bin/webwxgeticon?seq=673725546&username=@2c3b028b304f5f1fe05025b102d0cd8ae4f9ddb0d8f8780b5b7d529fc4adc449&skey=@crypt_49509d7f_15a5f7143b7405dfe7d901bde41b0339
p935
sVKeyWord
p936
g52
sVProvince
p937
V\u6d59\u6c5f
p938
sVPYInitial
p939
VSPANCLASSEMOJIEMOJI1F48BSPANNNZZI
p940
sVRemarkName
p941
g52
sVIsOwner
p942
I0
sVSex
p943
I2
sVStarFriend
p944
I0
sVHideInputBarFlag
p945
I0
sVChatRoomId
p946
I0
sVEncryChatRoomId
p947
g52
sVAttrStatus
p948
I234023
sVStatues
p949
I0
stp950
Rp951
I1
bag34
(g38
g39
(dp952
VUserName
p953
V@ca94a740f1a722caf18db92a80e846ca8c818991656e3910ced63f5fc2f7fbb4
p954
sVCity
p955
V\u6d77\u6dc0
p956
sVSnsFlag
p957
I1
sVDisplayName
p958
g52
sVUniFriend
p959
I0
sVMemberCount
p960
I0
sVOwnerUin
p961
I0
sVMemberList
p962
g50
sVAlias
p963
g52
sVPYQuanPin
p964
Vdiermeng
p965
sVSignature
p966
V\u9189\u5367\u6c99\u573a\u541b\u83ab\u7b11
p967
sVRemarkPYInitial
p968
g52
sVContactFlag
p969
I1
sVUin
p970
I0
sVNickName
p971
V\u7b2c\u4e8c\u68a6
p972
sVAppAccountFlag
p973
I0
sVVerifyFlag
p974
I0
sVRemarkPYQuanPin
p975
g52
sVHeadImgUrl
p976
V/cgi-bin/mmwebwx-bin/webwxgeticon?seq=673725344&username=@ca94a740f1a722caf18db92a80e846ca8c818991656e3910ced63f5fc2f7fbb4&skey=@crypt_49509d7f_15a5f7143b7405dfe7d901bde41b0339
p977
sVKeyWord
p978
g52
sVProvince
p979
V\u5317\u4eac
p980
sVPYInitial
p981
VDEM
p982
sVRemarkName
p983
g52
sVIsOwner
p984
I0
sVSex
p985
I2
sVStarFriend
p986
I0
sVHideInputBarFlag
p987
I0
sVChatRoomId
p988
I0
sVEncryChatRoomId
p989
g52
sVAttrStatus
p990
I236323
sVStatues
p991
I0
stp992
Rp993
I1
batp994
Rp995
I1
bsS'chatroomList'
p996
g34
(g35
g36
(lp997
g34
(citchat.storage.templates
Chatroom
p998
g39
(dp999
VUserName
p1000
V@@39ffbe490c3f5378de6f028378c36ddb1effd158e7eccb7e5358ead323826aa3
p1001
sVCity
p1002
g52
sVDisplayName
p1003
g52
sVUniFriend
p1004
I0
sS'Self'
p1005
g34
(g38
g39
(dp1006
g41
g31
sg42
g43
sg44
g43
sg45
I0
sg46
I0
sg47
g34
(g35
g36
(lp1007
tp1008
Rp1009
I1
bsg51
g52
sg53
g52
sg54
I200509586
sg55
I0
sg56
I0
sg57
g43
sg58
g43
sg59
g52
sg60
g52
sg61
I0
sg62
I0
sg63
I1
sg64
g43
sg65
I0
sg66
I0
sg67
I0
sg68
I0
sg69
g43
sg70
g52
sg71
I0
sg72
g73
sg74
g52
sg75
g76
sg77
I1
sg78
I0
sg79
I0
stp1010
Rp1011
I1
bsVMemberList
p1012
g34
(g35
g36
(lp1013
tp1014
Rp1015
I1
bsVPYQuanPin
p1016
g52
sVRemarkPYInitial
p1017
g52
sVSex
p1018
I0
sVAppAccountFlag
p1019
I0
sVVerifyFlag
p1020
I0
sVProvince
p1021
g52
sVKeyWord
p1022
g52
sVRemarkName
p1023
g52
sVPYInitial
p1024
g52
sVIsOwner
p1025
I0
sVChatRoomId
p1026
I0
sVHideInputBarFlag
p1027
I0
sVEncryChatRoomId
p1028
g52
sVAttrStatus
p1029
I0
sVSnsFlag
p1030
I0
sVMemberCount
p1031
I499
sVOwnerUin
p1032
I0
sVAlias
p1033
g52
sS'IsAdmin'
p1034
NsVSignature
p1035
g52
sVContactFlag
p1036
I2
sVNickName
p1037
VRedis\u6280\u672f\u4ea4\u6d41\u7fa4
p1038
sVRemarkPYQuanPin
p1039
g52
sVHeadImgUrl
p1040
V/cgi-bin/mmwebwx-bin/webwxgetheadimg?seq=673725615&username=@@39ffbe490c3f5378de6f028378c36ddb1effd158e7eccb7e5358ead323826aa3&skey=@crypt_49509d7f_15a5f7143b7405dfe7d901bde41b0339
p1041
sVUin
p1042
I0
sVStarFriend
p1043
I0
sVStatues
p1044
I1
stp1045
Rp1046
I1
bag34
(g998
g39
(dp1047
VUserName
p1048
V@@115bb3a26c192eb2ef81ef0830be57f00b9f34e108d2d7c772351da63c6dc962
p1049
sVCity
p1050
g52
sVDisplayName
p1051
g52
sVUniFriend
p1052
I0
sg1005
g34
(g38
g39
(dp1053
g41
g31
sg42
g43
sg44
g43
sg45
I0
sg46
I0
sg47
g34
(g35
g36
(lp1054
tp1055
Rp1056
I1
bsg51
g52
sg53
g52
sg54
I200509586
sg55
I0
sg56
I0
sg57
g43
sg58
g43
sg59
g52
sg60
g52
sg61
I0
sg62
I0
sg63
I1
sg64
g43
sg65
I0
sg66
I0
sg67
I0
sg68
I0
sg69
g43
sg70
g52
sg71
I0
sg72
g73
sg74
g52
sg75
g76
sg77
I1
sg78
I0
sg79
I0
stp1057
Rp1058
I1
bsVMemberList
p1059
g34
(g35
g36
(lp1060
tp1061
Rp1062
I1
bsVPYQuanPin
p1063
g52
sVRemarkPYInitial
p1064
g52
sVSex
p1065
I0
sVAppAccountFlag
p1066
I0
sVVerifyFlag
p1067
I0
sVProvince
p1068
g52
sVKeyWord
p1069
g52
sVRemarkName
p1070
g52
sVPYInitial
p1071
g52
sVIsOwner
p1072
I0
sVChatRoomId
p1073
I0
sVHideInputBarFlag
p1074
I0
sVEncryChatRoomId
p1075
g52
sVAttrStatus
p1076
I0
sVSnsFlag
p1077
I0
sVMemberCount
p1078
I499
sVOwnerUin
p1079
I0
sVAlias
p1080
g52
sg1034
NsVSignature
p1081
g52
sVContactFlag
p1082
I0
sVNickName
p1083
VRedis\u6280\u672f\u4ea4\u6d41\u7fa42
p1084
sVRemarkPYQuanPin
p1085
g52
sVHeadImgUrl
p1086
V/cgi-bin/mmwebwx-bin/webwxgetheadimg?seq=0&username=@@115bb3a26c192eb2ef81ef0830be57f00b9f34e108d2d7c772351da63c6dc962&skey=@crypt_49509d7f_15a5f7143b7405dfe7d901bde41b0339
p1087
sVUin
p1088
I0
sVStarFriend
p1089
I0
sVStatues
p1090
I1
stp1091
Rp1092
I1
batp1093
Rp1094
I1
bsS'nickName'
p1095
g73
sS'mpList'
p1096
g34
(g35
g36
(lp1097
g34
(citchat.storage.templates
MassivePlatform
p1098
g39
(dp1099
VUserName
p1100
V@f0db2fccb5ea41062220efbf88b34858
p1101
sVCity
p1102
V\u6df1\u5733
p1103
sVSnsFlag
p1104
I0
sVDisplayName
p1105
g52
sVUniFriend
p1106
I0
sVMemberCount
p1107
I0
sVOwnerUin
p1108
I0
sVMemberList
p1109
g50
sVAlias
p1110
g52
sVPYQuanPin
p1111
Vqiyueyingku
p1112
sVSignature
p1113
V\u56e0\u4e3a\u7231\u7535\u5f71\uff0c\u6240\u4ee5\u4e0d\u5bc2\u5bde\u3002
p1114
sVRemarkPYInitial
p1115
g52
sVContactFlag
p1116
I3
sVUin
p1117
I0
sVNickName
p1118
V\u4e03\u6708\u5f71\u5e93
p1119
sVAppAccountFlag
p1120
I0
sVVerifyFlag
p1121
I24
sVRemarkPYQuanPin
p1122
g52
sVHeadImgUrl
p1123
V/cgi-bin/mmwebwx-bin/webwxgeticon?seq=673715022&username=@f0db2fccb5ea41062220efbf88b34858&skey=@crypt_49509d7f_15a5f7143b7405dfe7d901bde41b0339
p1124
sVKeyWord
p1125
Vgh_
p1126
sVProvince
p1127
V\u5e7f\u4e1c
p1128
sVPYInitial
p1129
VQYYK
p1130
sVRemarkName
p1131
g52
sVIsOwner
p1132
I0
sVSex
p1133
I0
sVStarFriend
p1134
I0
sVHideInputBarFlag
p1135
I0
sVChatRoomId
p1136
I0
sVEncryChatRoomId
p1137
g52
sVAttrStatus
p1138
I0
sVStatues
p1139
I0
stp1140
Rp1141
I1
bag34
(g1098
g39
(dp1142
VUserName
p1143
V@82d73914d9f1435882ba3cb9f08056a7
p1144
sVCity
p1145
V\u5e7f\u5dde
p1146
sVSnsFlag
p1147
I0
sVDisplayName
p1148
g52
sVUniFriend
p1149
I0
sVMemberCount
p1150
I0
sVOwnerUin
p1151
I0
sVMemberList
p1152
g50
sVAlias
p1153
g52
sVPYQuanPin
p1154
Vyikushaonv
p1155
sVSignature
p1156
V\u5173\u6ce8\u4e0d\u4e86\uff1f \u8bf7\u641c\u7d22\u5173\u6ce8\uff1a\u5947\u8da3\u62a5\u793e\u65b0\u53f7
p1157
sVRemarkPYInitial
p1158
g52
sVContactFlag
p1159
I3
sVUin
p1160
I0
sVNickName
p1161
V\u4e00\u5e93\u5c11\u5973
p1162
sVAppAccountFlag
p1163
I0
sVVerifyFlag
p1164
I8
sVRemarkPYQuanPin
p1165
g52
sVHeadImgUrl
p1166
V/cgi-bin/mmwebwx-bin/webwxgeticon?seq=673712037&username=@82d73914d9f1435882ba3cb9f08056a7&skey=@crypt_49509d7f_15a5f7143b7405dfe7d901bde41b0339
p1167
sVKeyWord
p1168
Vgh_
p1169
sVProvince
p1170
V\u5e7f\u4e1c
p1171
sVPYInitial
p1172
VYKSN
p1173
sVRemarkName
p1174
g52
sVIsOwner
p1175
I0
sVSex
p1176
I0
sVStarFriend
p1177
I0
sVHideInputBarFlag
p1178
I0
sVChatRoomId
p1179
I0
sVEncryChatRoomId
p1180
g52
sVAttrStatus
p1181
I0
sVStatues
p1182
I0
stp1183
Rp1184
I1
bag34
(g1098
g39
(dp1185
VUserName
p1186
V@fc5db32fc857f11185ea605899a48a7e
p1187
sVCity
p1188
V\u9752\u6d66
p1189
sVSnsFlag
p1190
I0
sVDisplayName
p1191
g52
sVUniFriend
p1192
I0
sVMemberCount
p1193
I0
sVOwnerUin
p1194
I0
sVMemberList
p1195
g50
sVAlias
p1196
g52
sVPYQuanPin
p1197
Vdebangkuaidi
p1198
sVSignature
p1199
V\u5173\u6ce8\u7acb\u4eab25\u5143\u5bc4\u4ef6\u4f18\u60e0\u5927\u793c\u5305\uff0c\u5b9e\u65f6\u83b7\u53d6\u8d27\u7269\u52a8\u6001\u3002
p1200
sVRemarkPYInitial
p1201
g52
sVContactFlag
p1202
I3
sVUin
p1203
I0
sVNickName
p1204
V\u5fb7\u90a6\u5feb\u9012
p1205
sVAppAccountFlag
p1206
I0
sVVerifyFlag
p1207
I24
sVRemarkPYQuanPin
p1208
g52
sVHeadImgUrl
p1209
V/cgi-bin/mmwebwx-bin/webwxgeticon?seq=673716437&username=@fc5db32fc857f11185ea605899a48a7e&skey=@crypt_49509d7f_15a5f7143b7405dfe7d901bde41b0339
p1210
sVKeyWord
p1211
Vgh_
p1212
sVProvince
p1213
V\u4e0a\u6d77
p1214
sVPYInitial
p1215
VDBKD
p1216
sVRemarkName
p1217
g52
sVIsOwner
p1218
I0
sVSex
p1219
I0
sVStarFriend
p1220
I0
sVHideInputBarFlag
p1221
I0
sVChatRoomId
p1222
I0
sVEncryChatRoomId
p1223
g52
sVAttrStatus
p1224
I0
sVStatues
p1225
I0
stp1226
Rp1227
I1
bag34
(g1098
g39
(dp1228
VUserName
p1229
V@8450647af6a3ceed29b151c82e2ab8d4
p1230
sVCity
p1231
V\u6df1\u5733
p1232
sVSnsFlag
p1233
I0
sVDisplayName
p1234
g52
sVUniFriend
p1235
I0
sVMemberCount
p1236
I0
sVOwnerUin
p1237
I0
sVMemberList
p1238
g50
sVAlias
p1239
g52
sVPYQuanPin
p1240
Vshunfengsuyun
p1241
sVSignature
p1242
V\u5feb\u4ef6\u4fe1\u606f\u5b9e\u65f6\u6536\uff0c\u4f1a\u5458\u6743\u76ca\u7b49\u4f60\u62ff\u3002\u987a\u4e30\u901f\u8fd0\u51fa\u54c1\uff0c\u4e00\u6b3e\u63d0\u4f9b\u5728\u7ebf\u5bc4\u4ef6\u3001\u4e00\u5c0f\u65f6\u4e0a\u95e8\u3001\u5feb\u9012\u5355\u53f7\u67e5\u8be2\u3001\u7f51\u70b9\u67e5\u8be2\u3001\u8fd0\u8d39\u67e5\u8be2\u7b49\u76f8\u5173\u670d\u52a1\u7684\u5feb\u9012\u7269\u6d41\u516c\u4f17\u53f7\u3002\u67e5\u5feb\u9012\u3001\u5bc4\u5feb\u9012\u7528\u987a\u4e30\uff0c\u4e0d\u6b62\u662f\u5feb\u3002
p1243
sVRemarkPYInitial
p1244
g52
sVContactFlag
p1245
I3
sVUin
p1246
I0
sVNickName
p1247
V\u987a\u4e30\u901f\u8fd0
p1248
sVAppAccountFlag
p1249
I0
sVVerifyFlag
p1250
I24
sVRemarkPYQuanPin
p1251
g52
sVHeadImgUrl
p1252
V/cgi-bin/mmwebwx-bin/webwxgeticon?seq=673719418&username=@8450647af6a3ceed29b151c82e2ab8d4&skey=@crypt_49509d7f_15a5f7143b7405dfe7d901bde41b0339
p1253
sVKeyWord
p1254
Vgh_
p1255
sVProvince
p1256
V\u5e7f\u4e1c
p1257
sVPYInitial
p1258
VSFSY
p1259
sVRemarkName
p1260
g52
sVIsOwner
p1261
I0
sVSex
p1262
I0
sVStarFriend
p1263
I0
sVHideInputBarFlag
p1264
I0
sVChatRoomId
p1265
I0
sVEncryChatRoomId
p1266
g52
sVAttrStatus
p1267
I0
sVStatues
p1268
I0
stp1269
Rp1270
I1
bag34
(g1098
g39
(dp1271
VUserName
p1272
V@7fdfffc9061094292625148fa6d7f62d
p1273
sVCity
p1274
V\u6d4e\u5357
p1275
sVSnsFlag
p1276
I0
sVDisplayName
p1277
g52
sVUniFriend
p1278
I0
sVMemberCount
p1279
I0
sVOwnerUin
p1280
I0
sVMemberList
p1281
g50
sVAlias
p1282
g52
sVPYQuanPin
p1283
Vbaigehuidi
p1284
sVSignature
p1285
V\u767d\u9e3d\u60e0\u9012\u4e3a\u5feb\u9012\u7269\u6d41\u4e1a\u52a1\u7684\u7f51\u4e0a\u4e0b\u5355\u5e73\u53f0\u3002\u4e0e\u4e2d\u90ae\u3001\u987a\u4e30\u3001\u5fb7\u90a6\u3001\u5706\u901a\u3001\u5b85\u6025\u9001\u7b49\u4e00\u7ebf\u901f\u8fd0\u4f01\u4e1a\u5f62\u6210\u5168\u56fd\u5408\u4f5c\u9635\u8425\u3002\u7528\u6237\u53ef\u5728\u7ebf\u5bf9\u6bd4\u4e0b\u5355\uff0c\u4eab\u53d7\u5e73\u53f0\u8865\u8d34\u3002\u4e0b\u5355\u540e\u5ba2\u6237\u9759\u5f85\u5feb\u9012\u5458\u63fd\u4ef6\u3002
p1286
sVRemarkPYInitial
p1287
g52
sVContactFlag
p1288
I3
sVUin
p1289
I0
sVNickName
p1290
V\u767d\u9e3d\u60e0\u9012
p1291
sVAppAccountFlag
p1292
I0
sVVerifyFlag
p1293
I24
sVRemarkPYQuanPin
p1294
g52
sVHeadImgUrl
p1295
V/cgi-bin/mmwebwx-bin/webwxgeticon?seq=673719895&username=@7fdfffc9061094292625148fa6d7f62d&skey=@crypt_49509d7f_15a5f7143b7405dfe7d901bde41b0339
p1296
sVKeyWord
p1297
Vgh_
p1298
sVProvince
p1299
V\u5c71\u4e1c
p1300
sVPYInitial
p1301
VBGHD
p1302
sVRemarkName
p1303
g52
sVIsOwner
p1304
I0
sVSex
p1305
I0
sVStarFriend
p1306
I0
sVHideInputBarFlag
p1307
I0
sVChatRoomId
p1308
I0
sVEncryChatRoomId
p1309
g52
sVAttrStatus
p1310
I0
sVStatues
p1311
I0
stp1312
Rp1313
I1
batp1314
Rp1315
I1
bssS'loginInfo'
p1316
(dp1317
S'SyncKey'
p1318
(dp1319
VCount
p1320
I4
sVList
p1321
(lp1322
(dp1323
VVal
p1324
I673725542
sVKey
p1325
I1
sa(dp1326
VVal
p1327
I673725666
sVKey
p1328
I2
sa(dp1329
VVal
p1330
I673725667
sVKey
p1331
I3
sa(dp1332
VVal
p1333
I1567862281
sVKey
p1334
I1000
sassS'syncUrl'
p1335
S'https://webpush.wx2.qq.com/cgi-bin/mmwebwx-bin'
p1336
sS'skey'
p1337
V@crypt_49509d7f_15a5f7143b7405dfe7d901bde41b0339
p1338
sS'wxuin'
p1339
V200509586
p1340
sS'synckey'
p1341
S'1_673725542|2_673725666|3_673725667|1000_1567862281'
p1342
sS'url'
p1343
Vhttps://wx2.qq.com/cgi-bin/mmwebwx-bin
p1344
sS'pass_ticket'
p1345
Vi0e7E9YHi0%2BTFhSluoXj4NVf2o4Uz0b3HGx77remqSE%3D
p1346
sS'wxsid'
p1347
VnBYYMsDUuavb4rgM
p1348
sS'User'
p1349
g34
(g38
g39
(dp1350
g41
g31
sg42
g43
sg44
g43
sg45
I0
sg47
g50
sg51
g52
sg53
g52
sg77
I1
sg55
I0
sg56
I0
sg57
g43
sg58
g43
sg59
g52
sg60
g52
sg61
I0
sg62
I0
sg63
I1
sg64
g43
sg65
I0
sg68
I0
sg66
I0
sg67
I0
sg46
I0
sg69
g43
sg70
g52
sg71
I0
sg72
g73
sg74
g52
sg75
g76
sg54
I200509586
sg78
I0
sg79
I0
stp1351
Rp1352
I1
bsS'InviteStartCount'
p1353
I40
sS'fileUrl'
p1354
S'https://file.wx2.qq.com/cgi-bin/mmwebwx-bin'
p1355
sS'BaseRequest'
p1356
(dp1357
g54
g1340
sS'Skey'
p1358
g1338
sS'DeviceID'
p1359
g1346
sS'Sid'
p1360
g1348
ssS'deviceid'
p1361
S'e924018857184244'
p1362
ss.