(dp0
S'cookies'
p1
(dp2
S'wxloadtime'
p3
S'1557800374'
p4
sS'webwx_data_ticket'
p5
S'gScxAmm7p5AiZvds4ZCUG1i7'
p6
sS'wxuin'
p7
S'200509586'
p8
sS'login_frequency'
p9
S'2'
p10
sS'MM_WX_NOTIFY_STATE'
p11
S'1'
p12
sS'MM_WX_SOUND_STATE'
p13
g12
sS'webwx_auth_ticket'
p14
S'CIsBEMSN78MNGoABHjP4MUGnkQivPx76mMLN5NYIH4IXdR+mvQhXhNcfxgpudv/mV+faiZGE1WmBWkpvgPviqDOQXCC4VDG1/Aw3yGKZOlMKjcYhEsTwhwMzLQIg1hf5UpgZ9yoQ6Bro8LfPDuxvrioLKbP/36CXJneELyPb1/i5cLQXnAocq3RasNc='
p15
sS'last_wxuin'
p16
S'200509586'
p17
sS'webwxuvid'
p18
S'd67c82d1011316d7673811e3409b28781876bbba4c1b52acfab654de17b1e8998401369bfd8f88a4f7be1b8079c6640d'
p19
sS'wxpluginkey'
p20
S'1557628657'
p21
sS'wxsid'
p22
S'3jC1J8vYRuDrR45W'
p23
sS'mm_lang'
p24
S'zh_CN'
p25
ssS'version'
p26
S'1.3.10'
p27
sS'storage'
p28
(dp29
S'userName'
p30
V@d1565fcad099b5144e86d27ef2415d6b71ee7cc9544f57bb1e0b2a481f583f43
p31
sS'lastInputUserName'
p32
NsS'memberList'
p33
ccopy_reg
_reconstructor
p34
(citchat.storage.templates
ContactList
p35
c__builtin__
list
p36
(lp37
g34
(citchat.storage.templates
User
p38
c__builtin__
dict
p39
(dp40
S'UserName'
p41
g31
sS'City'
p42
S''
p43
sS'DisplayName'
p44
g43
sS'UniFriend'
p45
I0
sS'OwnerUin'
p46
I0
sS'MemberList'
p47
g34
(g35
g36
(lp48
tp49
Rp50
I1
bsS'PYQuanPin'
p51
V
p52
sS'RemarkPYInitial'
p53
g52
sS'Uin'
p54
I200509586
sS'AppAccountFlag'
p55
I0
sS'VerifyFlag'
p56
I0
sS'Province'
p57
g43
sS'KeyWord'
p58
g43
sS'RemarkName'
p59
g52
sS'PYInitial'
p60
g52
sS'ChatRoomId'
p61
I0
sS'HideInputBarFlag'
p62
I0
sVHeadImgFlag
p63
I1
sS'EncryChatRoomId'
p64
g43
sS'AttrStatus'
p65
I0
sS'SnsFlag'
p66
I0
sS'MemberCount'
p67
I0
sVWebWxPluginSwitch
p68
I0
sS'Alias'
p69
g43
sS'Signature'
p70
g52
sS'ContactFlag'
p71
I0
sS'NickName'
p72
V\u673a\u5668\u4eba\u5c0f\u80d6
p73
sS'RemarkPYQuanPin'
p74
g52
sS'HeadImgUrl'
p75
V/cgi-bin/mmwebwx-bin/webwxgeticon?seq=2039646172&username=@d1565fcad099b5144e86d27ef2415d6b71ee7cc9544f57bb1e0b2a481f583f43&skey=@crypt_49509d7f_56e576dd98f5dd6c0c45b369ccf08338
p76
sS'Sex'
p77
I1
sS'StarFriend'
p78
I0
sS'Statues'
p79
I0
stp80
Rp81
I1
bag34
(g38
g39
(dp82
VUserName
p83
V@2bffe1f966434cec7e945ea05dd7b6fd
p84
sVCity
p85
g52
sVSnsFlag
p86
I17
sVDisplayName
p87
g52
sVUniFriend
p88
I0
sVMemberCount
p89
I0
sVOwnerUin
p90
I0
sVMemberList
p91
g50
sVAlias
p92
g52
sVPYQuanPin
p93
VCXY
p94
sVSignature
p95
V\u7b49\u98ce\u4e5f\u7b49\u4f60\u3002
p96
sVRemarkPYInitial
p97
VXYKTX
p98
sVContactFlag
p99
I1
sVUin
p100
I0
sVNickName
p101
V-C_XY-
p102
sVAppAccountFlag
p103
I0
sVVerifyFlag
p104
I0
sVRemarkPYQuanPin
p105
Vxinyongkataoxian
p106
sVHeadImgUrl
p107
V/cgi-bin/mmwebwx-bin/webwxgeticon?seq=673710066&username=@2bffe1f966434cec7e945ea05dd7b6fd&skey=@crypt_49509d7f_56e576dd98f5dd6c0c45b369ccf08338
p108
sVKeyWord
p109
Vwux
p110
sVProvince
p111
g52
sVPYInitial
p112
VCXY
p113
sVRemarkName
p114
V\u4fe1\u7528\u5361\u5957\u73b0
p115
sVIsOwner
p116
I0
sVSex
p117
I2
sVStarFriend
p118
I0
sVHideInputBarFlag
p119
I0
sVChatRoomId
p120
I0
sVEncryChatRoomId
p121
g52
sVAttrStatus
p122
I111719
sVStatues
p123
I0
stp124
Rp125
I1
bag34
(g38
g39
(dp126
VUserName
p127
V@92b2f5efddf669a9c4e9d065a1f980fe47f8b0d673f4ebce28f33b37f1f6cb03
p128
sVCity
p129
V\u53a6\u95e8
p130
sVSnsFlag
p131
I1
sVDisplayName
p132
g52
sVUniFriend
p133
I0
sVMemberCount
p134
I0
sVOwnerUin
p135
I0
sVMemberList
p136
g50
sVAlias
p137
g52
sVPYQuanPin
p138
Vfeisehuiyi
p139
sVSignature
p140
V\u505a\u4e2a\u6e29\u67d4\uff0c\u9738\u6c14\u7684\uff0c\u6dd1\u5973\U0001f643\U0001f643
p141
sVRemarkPYInitial
p142
g52
sVContactFlag
p143
I1
sVUin
p144
I0
sVNickName
p145
V\u83f2\u8272\u56de\u5fc6
p146
sVAppAccountFlag
p147
I0
sVVerifyFlag
p148
I0
sVRemarkPYQuanPin
p149
g52
sVHeadImgUrl
p150
V/cgi-bin/mmwebwx-bin/webwxgeticon?seq=673715277&username=@92b2f5efddf669a9c4e9d065a1f980fe47f8b0d673f4ebce28f33b37f1f6cb03&skey=@crypt_49509d7f_56e576dd98f5dd6c0c45b369ccf08338
p151
sVKeyWord
p152
g52
sVProvince
p153
V\u798f\u5efa
p154
sVPYInitial
p155
VFSHY
p156
sVRemarkName
p157
g52
sVIsOwner
p158
I0
sVSex
p159
I2
sVStarFriend
p160
I0
sVHideInputBarFlag
p161
I0
sVChatRoomId
p162
I0
sVEncryChatRoomId
p163
g52
sVAttrStatus
p164
I102589
sVStatues
p165
I0
stp166
Rp167
I1
bag34
(g38
g39
(dp168
VUserName
p169
V@dc6295c56f955ecdd70d35b580b38a08ff5bf0e3300c085eb4b846f659d624d1
p170
sVCity
p171
g52
sVSnsFlag
p172
I1
sVDisplayName
p173
g52
sVUniFriend
p174
I0
sVMemberCount
p175
I0
sVOwnerUin
p176
I0
sVMemberList
p177
g50
sVAlias
p178
g52
sVPYQuanPin
p179
VMolly
p180
sVSignature
p181
V\u5c3d\u4eba\u4e8b\u542c\u5929\u610f\uff01
p182
sVRemarkPYInitial
p183
g52
sVContactFlag
p184
I1
sVUin
p185
I0
sVNickName
p186
VMolly
p187
sVAppAccountFlag
p188
I0
sVVerifyFlag
p189
I0
sVRemarkPYQuanPin
p190
g52
sVHeadImgUrl
p191
V/cgi-bin/mmwebwx-bin/webwxgeticon?seq=673715616&username=@dc6295c56f955ecdd70d35b580b38a08ff5bf0e3300c085eb4b846f659d624d1&skey=@crypt_49509d7f_56e576dd98f5dd6c0c45b369ccf08338
p192
sVKeyWord
p193
g52
sVProvince
p194
g52
sVPYInitial
p195
VMOLLY
p196
sVRemarkName
p197
g52
sVIsOwner
p198
I0
sVSex
p199
I2
sVStarFriend
p200
I0
sVHideInputBarFlag
p201
I0
sVChatRoomId
p202
I0
sVEncryChatRoomId
p203
g52
sVAttrStatus
p204
I234083
sVStatues
p205
I0
stp206
Rp207
I1
bag34
(g38
g39
(dp208
VUserName
p209
V@0238d81d3bbf1c71cf20e372239d6636ffa062ce6fab2e3c551abf7ec296bb75
p210
sVCity
p211
g52
sVSnsFlag
p212
I1
sVDisplayName
p213
g52
sVUniFriend
p214
I0
sVMemberCount
p215
I0
sVOwnerUin
p216
I0
sVMemberList
p217
g50
sVAlias
p218
g52
sVPYQuanPin
p219
Vchuanguoliushui
p220
sVSignature
p221
V\u53ea\u4e3a\u4e00\u4eba\u7559
p222
sVRemarkPYInitial
p223
g52
sVContactFlag
p224
I1
sVUin
p225
I0
sVNickName
p226
V\u7a7f\u8fc7\u6d41\u6c34
p227
sVAppAccountFlag
p228
I0
sVVerifyFlag
p229
I0
sVRemarkPYQuanPin
p230
g52
sVHeadImgUrl
p231
V/cgi-bin/mmwebwx-bin/webwxgeticon?seq=673714836&username=@0238d81d3bbf1c71cf20e372239d6636ffa062ce6fab2e3c551abf7ec296bb75&skey=@crypt_49509d7f_56e576dd98f5dd6c0c45b369ccf08338
p232
sVKeyWord
p233
g52
sVProvince
p234
VKowloon City
p235
sVPYInitial
p236
VCGLS
p237
sVRemarkName
p238
g52
sVIsOwner
p239
I0
sVSex
p240
I1
sVStarFriend
p241
I0
sVHideInputBarFlag
p242
I0
sVChatRoomId
p243
I0
sVEncryChatRoomId
p244
g52
sVAttrStatus
p245
I33690405
sVStatues
p246
I0
stp247
Rp248
I1
bag34
(g38
g39
(dp249
VUserName
p250
V@f8f2ad30e44188a14b018a069ea9d8c187547a4aefbf13d1501322977aab0093
p251
sVCity
p252
V\u6d66\u4e1c\u65b0\u533a
p253
sVSnsFlag
p254
I1
sVDisplayName
p255
g52
sVUniFriend
p256
I0
sVMemberCount
p257
I0
sVOwnerUin
p258
I0
sVMemberList
p259
g50
sVAlias
p260
g52
sVPYQuanPin
p261
Vyannispanclassemojiemoji1f485span?
p262
sVSignature
p263
V\u4f60\u82e5\u76db\u5f00\uff0c\u8774\u8776\u81ea\u6765\u2026\u2026
p264
sVRemarkPYInitial
p265
g52
sVContactFlag
p266
I1
sVUin
p267
I0
sVNickName
p268
V\u71d5\u59ae\U0001f485\U0001f3fb
p269
sVAppAccountFlag
p270
I0
sVVerifyFlag
p271
I0
sVRemarkPYQuanPin
p272
g52
sVHeadImgUrl
p273
V/cgi-bin/mmwebwx-bin/webwxgeticon?seq=673715724&username=@f8f2ad30e44188a14b018a069ea9d8c187547a4aefbf13d1501322977aab0093&skey=@crypt_49509d7f_56e576dd98f5dd6c0c45b369ccf08338
p274
sVKeyWord
p275
g52
sVProvince
p276
V\u4e0a\u6d77
p277
sVPYInitial
p278
VYNSPANCLASSEMOJIEMOJI1F485SPAN?
p279
sVRemarkName
p280
g52
sVIsOwner
p281
I0
sVSex
p282
I2
sVStarFriend
p283
I0
sVHideInputBarFlag
p284
I0
sVChatRoomId
p285
I0
sVEncryChatRoomId
p286
g52
sVAttrStatus
p287
I103205
sVStatues
p288
I0
stp289
Rp290
I1
bag34
(g38
g39
(dp291
VUserName
p292
V@6cd9c415a37884606ce9c6a81736308c7bd0198ec6ca5becb46179c159cee93c
p293
sVCity
p294
g52
sVSnsFlag
p295
I1
sVDisplayName
p296
g52
sVUniFriend
p297
I0
sVMemberCount
p298
I0
sVOwnerUin
p299
I0
sVMemberList
p300
g50
sVAlias
p301
g52
sVPYQuanPin
p302
Vmeiniang
p303
sVSignature
p304
g52
sVRemarkPYInitial
p305
g52
sVContactFlag
p306
I3
sVUin
p307
I0
sVNickName
p308
V\u5a9a\u5a18
p309
sVAppAccountFlag
p310
I0
sVVerifyFlag
p311
I0
sVRemarkPYQuanPin
p312
g52
sVHeadImgUrl
p313
V/cgi-bin/mmwebwx-bin/webwxgeticon?seq=673716400&username=@6cd9c415a37884606ce9c6a81736308c7bd0198ec6ca5becb46179c159cee93c&skey=@crypt_49509d7f_56e576dd98f5dd6c0c45b369ccf08338
p314
sVKeyWord
p315
g52
sVProvince
p316
g52
sVPYInitial
p317
VMN
p318
sVRemarkName
p319
g52
sVIsOwner
p320
I0
sVSex
p321
I1
sVStarFriend
p322
I0
sVHideInputBarFlag
p323
I0
sVChatRoomId
p324
I0
sVEncryChatRoomId
p325
g52
sVAttrStatus
p326
I234081
sVStatues
p327
I0
stp328
Rp329
I1
bag34
(g38
g39
(dp330
VUserName
p331
V@c5627948c66c3696e61553dec419eb7d9bb020e639299f9f1b079233952aeef9
p332
sVCity
p333
g52
sVSnsFlag
p334
I1
sVDisplayName
p335
g52
sVUniFriend
p336
I0
sVMemberCount
p337
I0
sVOwnerUin
p338
I0
sVMemberList
p339
g50
sVAlias
p340
g52
sVPYQuanPin
p341
VAkuaidiyouhuiquanbudingjigengxin
p342
sVSignature
p343
V\u963f\u8fea\u8fbe\u65af\u7ae5\u88c5  \u65ad\u7801\u7279\u4ef7
p344
sVRemarkPYInitial
p345
g52
sVContactFlag
p346
I3
sVUin
p347
I0
sVNickName
p348
VA\u5feb\u9012\u4f18\u60e0\u5238 \u4e0d\u5b9a\u671f\u66f4\u65b0
p349
sVAppAccountFlag
p350
I0
sVVerifyFlag
p351
I0
sVRemarkPYQuanPin
p352
g52
sVHeadImgUrl
p353
V/cgi-bin/mmwebwx-bin/webwxgeticon?seq=673716439&username=@c5627948c66c3696e61553dec419eb7d9bb020e639299f9f1b079233952aeef9&skey=@crypt_49509d7f_56e576dd98f5dd6c0c45b369ccf08338
p354
sVKeyWord
p355
g52
sVProvince
p356
g52
sVPYInitial
p357
VAKDYHQBDJGX
p358
sVRemarkName
p359
g52
sVIsOwner
p360
I0
sVSex
p361
I1
sVStarFriend
p362
I0
sVHideInputBarFlag
p363
I0
sVChatRoomId
p364
I0
sVEncryChatRoomId
p365
g52
sVAttrStatus
p366
I135205
sVStatues
p367
I0
stp368
Rp369
I1
bag34
(g38
g39
(dp370
VUserName
p371
V@67d10e24058e0e132486179899205882
p372
sVCity
p373
V\u4e1c\u57ce
p374
sVSnsFlag
p375
I17
sVDisplayName
p376
g52
sVUniFriend
p377
I0
sVMemberCount
p378
I0
sVOwnerUin
p379
I0
sVMemberList
p380
g50
sVAlias
p381
g52
sVPYQuanPin
p382
Vpengcheng
p383
sVSignature
p384
V\u672a\u6765\u4e0d\u8fce\uff0c\u5f53\u65f6\u4e0d\u6742\uff0c\u8fc7\u5f80\u4e0d\u604b
p385
sVRemarkPYInitial
p386
g52
sVContactFlag
p387
I3
sVUin
p388
I0
sVNickName
p389
V\u9e4f\u7a0b
p390
sVAppAccountFlag
p391
I0
sVVerifyFlag
p392
I0
sVRemarkPYQuanPin
p393
g52
sVHeadImgUrl
p394
V/cgi-bin/mmwebwx-bin/webwxgeticon?seq=669180196&username=@67d10e24058e0e132486179899205882&skey=@crypt_49509d7f_56e576dd98f5dd6c0c45b369ccf08338
p395
sVKeyWord
p396
Vwar
p397
sVProvince
p398
V\u5317\u4eac
p399
sVPYInitial
p400
VPC
p401
sVRemarkName
p402
g52
sVIsOwner
p403
I0
sVSex
p404
I1
sVStarFriend
p405
I0
sVHideInputBarFlag
p406
I0
sVChatRoomId
p407
I0
sVEncryChatRoomId
p408
g52
sVAttrStatus
p409
I33691111
sVStatues
p410
I0
stp411
Rp412
I1
bag34
(g38
g39
(dp413
VUserName
p414
V@05bf4720d8d72407c46b92f8057783935d9ed586d4461776e648b0d491b726e1
p415
sVCity
p416
V\u671d\u9633
p417
sVSnsFlag
p418
I17
sVDisplayName
p419
g52
sVUniFriend
p420
I0
sVMemberCount
p421
I0
sVOwnerUin
p422
I0
sVMemberList
p423
g50
sVAlias
p424
g52
sVPYQuanPin
p425
VAlichiyangguangyouyongjianshenzhuguanzhaohao
p426
sVSignature
p427
V\u559c\u6b22\u6e38\u6cf3\u5065\u8eab\u7684\u53ef\u4ee5\u8054\u7cfb\u621113717754882\uff5e\u8d75\u8c6a
p428
sVRemarkPYInitial
p429
g52
sVContactFlag
p430
I3
sVUin
p431
I0
sVNickName
p432
VA\u4e3d\u6c60\u9633\u5149\u6e38\u6cf3\u5065\u8eab\u4e3b\u7ba1\u8d75\u8c6a
p433
sVAppAccountFlag
p434
I0
sVVerifyFlag
p435
I0
sVRemarkPYQuanPin
p436
g52
sVHeadImgUrl
p437
V/cgi-bin/mmwebwx-bin/webwxgeticon?seq=673718027&username=@05bf4720d8d72407c46b92f8057783935d9ed586d4461776e648b0d491b726e1&skey=@crypt_49509d7f_56e576dd98f5dd6c0c45b369ccf08338
p438
sVKeyWord
p439
g52
sVProvince
p440
V\u5317\u4eac
p441
sVPYInitial
p442
VALCYGYYJSZGZH
p443
sVRemarkName
p444
g52
sVIsOwner
p445
I0
sVSex
p446
I1
sVStarFriend
p447
I0
sVHideInputBarFlag
p448
I0
sVChatRoomId
p449
I0
sVEncryChatRoomId
p450
g52
sVAttrStatus
p451
I4253
sVStatues
p452
I0
stp453
Rp454
I1
bag34
(g38
g39
(dp455
VUserName
p456
V@4db4888434421339c902ccc63dca3584dd15b57f8538de3ba1346586b3630eed
p457
sVCity
p458
VOthers
p459
sVSnsFlag
p460
I1
sVDisplayName
p461
g52
sVUniFriend
p462
I0
sVMemberCount
p463
I0
sVOwnerUin
p464
I0
sVMemberList
p465
g50
sVAlias
p466
g52
sVPYQuanPin
p467
Vabbyhuanerspanclassemojiemoji1f48bspanspanclassemojiemoji1f6baspan
p468
sVSignature
p469
V\u8ba9\u8721\u70db\u4ee3\u66ff\u6240\u6709\u706f \u8ba9\u97f3\u4e50\u4ee3\u66ff\u8bdd\u8bed\u58f0 \u6b64\u65f6\u65e0\u58f0\u80dc\u6709\u58f0
p470
sVRemarkPYInitial
p471
g52
sVContactFlag
p472
I3
sVUin
p473
I0
sVNickName
p474
Vabby\u6b22\u513f\U0001f48b\U0001f6ba
p475
sVAppAccountFlag
p476
I0
sVVerifyFlag
p477
I0
sVRemarkPYQuanPin
p478
g52
sVHeadImgUrl
p479
V/cgi-bin/mmwebwx-bin/webwxgeticon?seq=673718560&username=@4db4888434421339c902ccc63dca3584dd15b57f8538de3ba1346586b3630eed&skey=@crypt_49509d7f_56e576dd98f5dd6c0c45b369ccf08338
p480
sVKeyWord
p481
g52
sVProvince
p482
VKuala Lumpur
p483
sVPYInitial
p484
VABBYHESPANCLASSEMOJIEMOJI1F48BSPANSPANCLASSEMOJIEMOJI1F6BASPAN
p485
sVRemarkName
p486
g52
sVIsOwner
p487
I0
sVSex
p488
I2
sVStarFriend
p489
I0
sVHideInputBarFlag
p490
I0
sVChatRoomId
p491
I0
sVEncryChatRoomId
p492
g52
sVAttrStatus
p493
I33656869
sVStatues
p494
I0
stp495
Rp496
I1
bag34
(g38
g39
(dp497
VUserName
p498
V@52caea71254e69516be3c0841244133cc047e60829f748477383878456edb077
p499
sVCity
p500
V\u90af\u90f8
p501
sVSnsFlag
p502
I1
sVDisplayName
p503
g52
sVUniFriend
p504
I0
sVMemberCount
p505
I0
sVOwnerUin
p506
I0
sVMemberList
p507
g50
sVAlias
p508
g52
sVPYQuanPin
p509
Vniming
p510
sVSignature
p511
V<span class="emoji emoji1f63a"></span> <span class="emoji emoji1f63a"></span> <span class="emoji emoji1f63a"></span> <span class="emoji emoji1f63a"></span> <span class="emoji emoji1f63a"></span>
p512
sVRemarkPYInitial
p513
g52
sVContactFlag
p514
I3
sVUin
p515
I0
sVNickName
p516
V\u533f\u540d
p517
sVAppAccountFlag
p518
I0
sVVerifyFlag
p519
I0
sVRemarkPYQuanPin
p520
g52
sVHeadImgUrl
p521
V/cgi-bin/mmwebwx-bin/webwxgeticon?seq=673718011&username=@52caea71254e69516be3c0841244133cc047e60829f748477383878456edb077&skey=@crypt_49509d7f_56e576dd98f5dd6c0c45b369ccf08338
p522
sVKeyWord
p523
g52
sVProvince
p524
V\u6cb3\u5317
p525
sVPYInitial
p526
VNM
p527
sVRemarkName
p528
g52
sVIsOwner
p529
I0
sVSex
p530
I1
sVStarFriend
p531
I0
sVHideInputBarFlag
p532
I0
sVChatRoomId
p533
I0
sVEncryChatRoomId
p534
g52
sVAttrStatus
p535
I33657149
sVStatues
p536
I0
stp537
Rp538
I1
bag34
(g38
g39
(dp539
VUserName
p540
V@f6360ec34c258d0c3b9f9a4c14e769f18dce0807afee1e26b3d961ecebf6cee9
p541
sVCity
p542
V\u90af\u90f8
p543
sVSnsFlag
p544
I1
sVDisplayName
p545
g52
sVUniFriend
p546
I0
sVMemberCount
p547
I0
sVOwnerUin
p548
I0
sVMemberList
p549
g50
sVAlias
p550
g52
sVPYQuanPin
p551
Vyuyuchaojikeaispanclassemojiemoji1f495span
p552
sVSignature
p553
V\u5b87\u5b87\u4e0d\u6536\u4e8c\u624b\u5783\u573e\u3002
p554
sVRemarkPYInitial
p555
g52
sVContactFlag
p556
I3
sVUin
p557
I0
sVNickName
p558
V\u5b87\u5b87\u7092\u9e21\u53ef\u7231\U0001f495
p559
sVAppAccountFlag
p560
I0
sVVerifyFlag
p561
I0
sVRemarkPYQuanPin
p562
g52
sVHeadImgUrl
p563
V/cgi-bin/mmwebwx-bin/webwxgeticon?seq=673718624&username=@f6360ec34c258d0c3b9f9a4c14e769f18dce0807afee1e26b3d961ecebf6cee9&skey=@crypt_49509d7f_56e576dd98f5dd6c0c45b369ccf08338
p564
sVKeyWord
p565
g52
sVProvince
p566
V\u6cb3\u5317
p567
sVPYInitial
p568
VYYCJKASPANCLASSEMOJIEMOJI1F495SPAN
p569
sVRemarkName
p570
g52
sVIsOwner
p571
I0
sVSex
p572
I2
sVStarFriend
p573
I0
sVHideInputBarFlag
p574
I0
sVChatRoomId
p575
I0
sVEncryChatRoomId
p576
g52
sVAttrStatus
p577
I4645
sVStatues
p578
I0
stp579
Rp580
I1
bag34
(g38
g39
(dp581
VUserName
p582
V@deddd510cb7889933d0e98bd505c46d181ed60e241c68e82e9d1a2bed3ef4451
p583
sVCity
p584
V\u6df1\u5733
p585
sVSnsFlag
p586
I49
sVDisplayName
p587
g52
sVUniFriend
p588
I0
sVMemberCount
p589
I0
sVOwnerUin
p590
I0
sVMemberList
p591
g50
sVAlias
p592
g52
sVPYQuanPin
p593
Vfanjiamianspanclassemojiemoji1f345span
p594
sVSignature
p595
V    
p596
sVRemarkPYInitial
p597
g52
sVContactFlag
p598
I1
sVUin
p599
I0
sVNickName
p600
V\u756a\u8304\u9762\U0001f345
p601
sVAppAccountFlag
p602
I0
sVVerifyFlag
p603
I0
sVRemarkPYQuanPin
p604
g52
sVHeadImgUrl
p605
V/cgi-bin/mmwebwx-bin/webwxgeticon?seq=673718173&username=@deddd510cb7889933d0e98bd505c46d181ed60e241c68e82e9d1a2bed3ef4451&skey=@crypt_49509d7f_56e576dd98f5dd6c0c45b369ccf08338
p606
sVKeyWord
p607
g52
sVProvince
p608
V\u5e7f\u4e1c
p609
sVPYInitial
p610
VFJMSPANCLASSEMOJIEMOJI1F345SPAN
p611
sVRemarkName
p612
g52
sVIsOwner
p613
I0
sVSex
p614
I1
sVStarFriend
p615
I0
sVHideInputBarFlag
p616
I0
sVChatRoomId
p617
I0
sVEncryChatRoomId
p618
g52
sVAttrStatus
p619
I100539
sVStatues
p620
I0
stp621
Rp622
I1
bag34
(g38
g39
(dp623
VUserName
p624
V@afb87bd4d74dd2e76e79c0672ad1fe5f
p625
sVCity
p626
V\u65e0\u9521
p627
sVSnsFlag
p628
I177
sVDisplayName
p629
g52
sVUniFriend
p630
I0
sVMemberCount
p631
I0
sVOwnerUin
p632
I0
sVMemberList
p633
g50
sVAlias
p634
g52
sVPYQuanPin
p635
VjietouebaZip
p636
sVSignature
p637
VStreet Bully\u521b\u59cb\u4eba\u3001\u72d7\u4e0d\u61c2\u521b\u59cb\u4eba\uff0c\u72d7\u884c\u4e3a\u5b66\u3001\u5fc3\u7406\u5b66\u7814\u7a76\u8005
p638
sVRemarkPYInitial
p639
g52
sVContactFlag
p640
I1
sVUin
p641
I0
sVNickName
p642
V\u8857\u982d\u60e1\u9738\u3010Zip\u3011
p643
sVAppAccountFlag
p644
I0
sVVerifyFlag
p645
I0
sVRemarkPYQuanPin
p646
g52
sVHeadImgUrl
p647
V/cgi-bin/mmwebwx-bin/webwxgeticon?seq=673713460&username=@afb87bd4d74dd2e76e79c0672ad1fe5f&skey=@crypt_49509d7f_56e576dd98f5dd6c0c45b369ccf08338
p648
sVKeyWord
p649
Vtr8
p650
sVProvince
p651
V\u6c5f\u82cf
p652
sVPYInitial
p653
VJTEBZIP
p654
sVRemarkName
p655
g52
sVIsOwner
p656
I0
sVSex
p657
I1
sVStarFriend
p658
I0
sVHideInputBarFlag
p659
I0
sVChatRoomId
p660
I0
sVEncryChatRoomId
p661
g52
sVAttrStatus
p662
I2147564455
sVStatues
p663
I0
stp664
Rp665
I1
batp666
Rp667
I1
bsS'chatroomList'
p668
g34
(g35
g36
(lp669
g34
(citchat.storage.templates
Chatroom
p670
g39
(dp671
VUserName
p672
V@@c9cf753c036ac71d4b4043227966f4d8bd602731c529904d17c24caac631bf4a
p673
sVCity
p674
g52
sVDisplayName
p675
g52
sVUniFriend
p676
I0
sS'Self'
p677
g34
(g38
g39
(dp678
g41
g31
sg42
g43
sg44
g43
sg45
I0
sg46
I0
sg47
g34
(g35
g36
(lp679
tp680
Rp681
I1
bsg51
g52
sg53
g52
sg54
I200509586
sg55
I0
sg56
I0
sg57
g43
sg58
g43
sg59
g52
sg60
g52
sg61
I0
sg62
I0
sg63
I1
sg64
g43
sg65
I0
sg66
I0
sg67
I0
sg68
I0
sg69
g43
sg70
g52
sg71
I0
sg72
g73
sg74
g52
sg75
g76
sg77
I1
sg78
I0
sg79
I0
stp682
Rp683
I1
bsVMemberList
p684
g34
(g35
g36
(lp685
tp686
Rp687
I1
bsVPYQuanPin
p688
g52
sVRemarkPYInitial
p689
g52
sVSex
p690
I0
sVAppAccountFlag
p691
I0
sVVerifyFlag
p692
I0
sVProvince
p693
g52
sVKeyWord
p694
g52
sVRemarkName
p695
g52
sVPYInitial
p696
g52
sVIsOwner
p697
I0
sVChatRoomId
p698
I0
sVHideInputBarFlag
p699
I0
sVEncryChatRoomId
p700
g52
sVAttrStatus
p701
I0
sVSnsFlag
p702
I0
sVMemberCount
p703
I499
sVOwnerUin
p704
I0
sVAlias
p705
g52
sS'IsAdmin'
p706
NsVSignature
p707
g52
sVContactFlag
p708
I2
sVNickName
p709
VRedis\u6280\u672f\u4ea4\u6d41\u7fa4
p710
sVRemarkPYQuanPin
p711
g52
sVHeadImgUrl
p712
V/cgi-bin/mmwebwx-bin/webwxgetheadimg?seq=673718647&username=@@c9cf753c036ac71d4b4043227966f4d8bd602731c529904d17c24caac631bf4a&skey=@crypt_49509d7f_56e576dd98f5dd6c0c45b369ccf08338
p713
sVUin
p714
I0
sVStarFriend
p715
I0
sVStatues
p716
I1
stp717
Rp718
I1
bag34
(g670
g39
(dp719
VUserName
p720
V@@a10e890fd373a55a9e9e2a5c0be4edd5b387b46b7d76bba1f4a884c524e8adad
p721
sVCity
p722
g52
sVDisplayName
p723
g52
sVUniFriend
p724
I0
sg677
g34
(g38
g39
(dp725
g41
g31
sg42
g43
sg44
g43
sg45
I0
sg46
I0
sg47
g34
(g35
g36
(lp726
tp727
Rp728
I1
bsg51
g52
sg53
g52
sg54
I200509586
sg55
I0
sg56
I0
sg57
g43
sg58
g43
sg59
g52
sg60
g52
sg61
I0
sg62
I0
sg63
I1
sg64
g43
sg65
I0
sg66
I0
sg67
I0
sg68
I0
sg69
g43
sg70
g52
sg71
I0
sg72
g73
sg74
g52
sg75
g76
sg77
I1
sg78
I0
sg79
I0
stp729
Rp730
I1
bsVMemberList
p731
g34
(g35
g36
(lp732
tp733
Rp734
I1
bsVPYQuanPin
p735
g52
sVRemarkPYInitial
p736
g52
sVSex
p737
I0
sVAppAccountFlag
p738
I0
sVVerifyFlag
p739
I0
sVProvince
p740
g52
sVKeyWord
p741
g52
sVRemarkName
p742
g52
sVPYInitial
p743
g52
sVIsOwner
p744
I0
sVChatRoomId
p745
I0
sVHideInputBarFlag
p746
I0
sVEncryChatRoomId
p747
g52
sVAttrStatus
p748
I0
sVSnsFlag
p749
I0
sVMemberCount
p750
I477
sVOwnerUin
p751
I0
sVAlias
p752
g52
sg706
NsVSignature
p753
g52
sVContactFlag
p754
I0
sVNickName
p755
VRedis\u6280\u672f\u4ea4\u6d41\u7fa42
p756
sVRemarkPYQuanPin
p757
g52
sVHeadImgUrl
p758
V/cgi-bin/mmwebwx-bin/webwxgetheadimg?seq=0&username=@@a10e890fd373a55a9e9e2a5c0be4edd5b387b46b7d76bba1f4a884c524e8adad&skey=@crypt_49509d7f_56e576dd98f5dd6c0c45b369ccf08338
p759
sVUin
p760
I0
sVStarFriend
p761
I0
sVStatues
p762
I1
stp763
Rp764
I1
batp765
Rp766
I1
bsS'nickName'
p767
g73
sS'mpList'
p768
g34
(g35
g36
(lp769
g34
(citchat.storage.templates
MassivePlatform
p770
g39
(dp771
VUserName
p772
V@895b240ea07fbec4748d8ce037525c14
p773
sVCity
p774
V\u6df1\u5733
p775
sVSnsFlag
p776
I0
sVDisplayName
p777
g52
sVUniFriend
p778
I0
sVMemberCount
p779
I0
sVOwnerUin
p780
I0
sVMemberList
p781
g50
sVAlias
p782
g52
sVPYQuanPin
p783
Vfengchaozhinenggui
p784
sVSignature
p785
V\u5173\u6ce8\u4e30\u5de2\u670d\u52a1\u53f7\uff0c\u7b2c\u4e00\u65f6\u95f4\u63a5\u6536\u60a8\u7684\u5feb\u4ef6\u7269\u6d41\u63d0\u9192\uff01\u63d0\u4f9b24\u5c0f\u65f6\u81ea\u52a9\u5bc4\u5feb\u9012\u3001\u7535\u5546\u8d2d\u7269\u3001\u6682\u5b58\u7269\u54c1\u3001\u5a92\u4f53\u4e92\u52a8\u7b49\u4e00\u7ad9\u5f0f\u751f\u6d3b\u670d\u52a1\uff0c\u8ba9\u751f\u6d3b\u66f4\u7b80\u5355\uff01
p786
sVRemarkPYInitial
p787
g52
sVContactFlag
p788
I3
sVUin
p789
I0
sVNickName
p790
V\u4e30\u5de2\u667a\u80fd\u67dc
p791
sVAppAccountFlag
p792
I0
sVVerifyFlag
p793
I24
sVRemarkPYQuanPin
p794
g52
sVHeadImgUrl
p795
V/cgi-bin/mmwebwx-bin/webwxgeticon?seq=673711737&username=@895b240ea07fbec4748d8ce037525c14&skey=@crypt_49509d7f_56e576dd98f5dd6c0c45b369ccf08338
p796
sVKeyWord
p797
Vgh_
p798
sVProvince
p799
V\u5e7f\u4e1c
p800
sVPYInitial
p801
VFCZNG
p802
sVRemarkName
p803
g52
sVIsOwner
p804
I0
sVSex
p805
I0
sVStarFriend
p806
I0
sVHideInputBarFlag
p807
I0
sVChatRoomId
p808
I0
sVEncryChatRoomId
p809
g52
sVAttrStatus
p810
I0
sVStatues
p811
I0
stp812
Rp813
I1
bag34
(g770
g39
(dp814
VUserName
p815
V@0cbceb33f1d585eb52998fb58562e362
p816
sVCity
p817
V\u5e7f\u5dde
p818
sVSnsFlag
p819
I0
sVDisplayName
p820
g52
sVUniFriend
p821
I0
sVMemberCount
p822
I0
sVOwnerUin
p823
I0
sVMemberList
p824
g50
sVAlias
p825
g52
sVPYQuanPin
p826
Vyikushaonv
p827
sVSignature
p828
V\u5173\u6ce8\u4e0d\u4e86\uff1f \u8bf7\u641c\u7d22\u5173\u6ce8\uff1a\u5947\u8da3\u62a5\u793e\u65b0\u53f7
p829
sVRemarkPYInitial
p830
g52
sVContactFlag
p831
I3
sVUin
p832
I0
sVNickName
p833
V\u4e00\u5e93\u5c11\u5973
p834
sVAppAccountFlag
p835
I0
sVVerifyFlag
p836
I8
sVRemarkPYQuanPin
p837
g52
sVHeadImgUrl
p838
V/cgi-bin/mmwebwx-bin/webwxgeticon?seq=673712037&username=@0cbceb33f1d585eb52998fb58562e362&skey=@crypt_49509d7f_56e576dd98f5dd6c0c45b369ccf08338
p839
sVKeyWord
p840
Vgh_
p841
sVProvince
p842
V\u5e7f\u4e1c
p843
sVPYInitial
p844
VYKSN
p845
sVRemarkName
p846
g52
sVIsOwner
p847
I0
sVSex
p848
I0
sVStarFriend
p849
I0
sVHideInputBarFlag
p850
I0
sVChatRoomId
p851
I0
sVEncryChatRoomId
p852
g52
sVAttrStatus
p853
I0
sVStatues
p854
I0
stp855
Rp856
I1
bag34
(g770
g39
(dp857
VUserName
p858
V@0d885adc8c6be2084666173c07812c9e
p859
sVCity
p860
V\u6df1\u5733
p861
sVSnsFlag
p862
I0
sVDisplayName
p863
g52
sVUniFriend
p864
I0
sVMemberCount
p865
I0
sVOwnerUin
p866
I0
sVMemberList
p867
g50
sVAlias
p868
g52
sVPYQuanPin
p869
Vqiyueyingku
p870
sVSignature
p871
V\u56e0\u4e3a\u7231\u7535\u5f71\uff0c\u6240\u4ee5\u4e0d\u5bc2\u5bde\u3002
p872
sVRemarkPYInitial
p873
g52
sVContactFlag
p874
I3
sVUin
p875
I0
sVNickName
p876
V\u4e03\u6708\u5f71\u5e93
p877
sVAppAccountFlag
p878
I0
sVVerifyFlag
p879
I24
sVRemarkPYQuanPin
p880
g52
sVHeadImgUrl
p881
V/cgi-bin/mmwebwx-bin/webwxgeticon?seq=673715022&username=@0d885adc8c6be2084666173c07812c9e&skey=@crypt_49509d7f_56e576dd98f5dd6c0c45b369ccf08338
p882
sVKeyWord
p883
Vgh_
p884
sVProvince
p885
V\u5e7f\u4e1c
p886
sVPYInitial
p887
VQYYK
p888
sVRemarkName
p889
g52
sVIsOwner
p890
I0
sVSex
p891
I0
sVStarFriend
p892
I0
sVHideInputBarFlag
p893
I0
sVChatRoomId
p894
I0
sVEncryChatRoomId
p895
g52
sVAttrStatus
p896
I0
sVStatues
p897
I0
stp898
Rp899
I1
bag34
(g770
g39
(dp900
VUserName
p901
V@e4d62bd4fb3ab66036f43fb8c610e990
p902
sVCity
p903
V\u9752\u6d66
p904
sVSnsFlag
p905
I0
sVDisplayName
p906
g52
sVUniFriend
p907
I0
sVMemberCount
p908
I0
sVOwnerUin
p909
I0
sVMemberList
p910
g50
sVAlias
p911
g52
sVPYQuanPin
p912
Vdebangkuaidi
p913
sVSignature
p914
V\u5173\u6ce8\u7acb\u4eab2\u52305\u5143\u4f18\u60e0\u5238\uff0c\u5b9e\u65f6\u83b7\u53d6\u8d27\u7269\u52a8\u6001
p915
sVRemarkPYInitial
p916
g52
sVContactFlag
p917
I3
sVUin
p918
I0
sVNickName
p919
V\u5fb7\u90a6\u5feb\u9012
p920
sVAppAccountFlag
p921
I0
sVVerifyFlag
p922
I24
sVRemarkPYQuanPin
p923
g52
sVHeadImgUrl
p924
V/cgi-bin/mmwebwx-bin/webwxgeticon?seq=673716437&username=@e4d62bd4fb3ab66036f43fb8c610e990&skey=@crypt_49509d7f_56e576dd98f5dd6c0c45b369ccf08338
p925
sVKeyWord
p926
Vgh_
p927
sVProvince
p928
V\u4e0a\u6d77
p929
sVPYInitial
p930
VDBKD
p931
sVRemarkName
p932
g52
sVIsOwner
p933
I0
sVSex
p934
I0
sVStarFriend
p935
I0
sVHideInputBarFlag
p936
I0
sVChatRoomId
p937
I0
sVEncryChatRoomId
p938
g52
sVAttrStatus
p939
I0
sVStatues
p940
I0
stp941
Rp942
I1
batp943
Rp944
I1
bssS'loginInfo'
p945
(dp946
S'SyncKey'
p947
(dp948
VCount
p949
I4
sVList
p950
(lp951
(dp952
VVal
p953
I673718504
sVKey
p954
I1
sa(dp955
VVal
p956
I673718682
sVKey
p957
I2
sa(dp958
VVal
p959
I673718662
sVKey
p960
I3
sa(dp961
VVal
p962
I1557790399
sVKey
p963
I1000
sassS'syncUrl'
p964
S'https://webpush.wx2.qq.com/cgi-bin/mmwebwx-bin'
p965
sS'skey'
p966
V@crypt_49509d7f_56e576dd98f5dd6c0c45b369ccf08338
p967
sS'wxuin'
p968
V200509586
p969
sS'synckey'
p970
S'1_673718504|2_673718682|3_673718662|1000_1557790399'
p971
sS'url'
p972
Vhttps://wx2.qq.com/cgi-bin/mmwebwx-bin
p973
sS'pass_ticket'
p974
V8e7r3wSFxc1qLT6Dl%2F0CJuAHYPtrB6xDgM1oDEuQGQU%3D
p975
sS'wxsid'
p976
V3jC1J8vYRuDrR45W
p977
sS'InviteStartCount'
p978
I40
sS'User'
p979
g34
(g38
g39
(dp980
g41
g31
sg42
g43
sg44
g43
sg45
I0
sg47
g50
sg51
g52
sg53
g52
sg77
I1
sg55
I0
sg56
I0
sg57
g43
sg58
g43
sg59
g52
sg60
g52
sg61
I0
sg62
I0
sg63
I1
sg64
g43
sg65
I0
sg68
I0
sg66
I0
sg67
I0
sg46
I0
sg69
g43
sg70
g52
sg71
I0
sg72
g73
sg74
g52
sg75
g76
sg54
I200509586
sg78
I0
sg79
I0
stp981
Rp982
I1
bsS'fileUrl'
p983
S'https://file.wx2.qq.com/cgi-bin/mmwebwx-bin'
p984
sS'BaseRequest'
p985
(dp986
g54
g969
sS'Skey'
p987
g967
sS'DeviceID'
p988
g975
sS'Sid'
p989
g977
ssS'deviceid'
p990
S'e401290525146549'
p991
ss.