(dp0
S'cookies'
p1
(dp2
S'wxloadtime'
p3
S'1559633900_expired'
p4
sS'webwx_data_ticket'
p5
S'gSdR/QN1FqQWvWbtQELmShy5'
p6
sS'wxuin'
p7
S'200509586'
p8
sS'login_frequency'
p9
S'2'
p10
sS'MM_WX_NOTIFY_STATE'
p11
S'1'
p12
sS'MM_WX_SOUND_STATE'
p13
g12
sS'webwx_auth_ticket'
p14
S'CIsBEJSS49wCGoABenDzqQVkjlx1cIdVqMqkndYIH4IXdR+mvQhXhNcfxgpudv/mV+faiZGE1WmBWkpvgPviqDOQXCC4VDG1/Aw3yGKZOlMKjcYhEsTwhwMzLQIg1hf5UpgZ9yoQ6Bro8LfPbPZy4qPJcHUj9Plvq3bnYZRZBxVyleWuNzKLYdmm3N0='
p15
sS'last_wxuin'
p16
S'200509586'
p17
sS'webwxuvid'
p18
S'd67c82d1011316d7673811e3409b28781876bbba4c1b52acfab654de17b1e8998401369bfd8f88a4f7be1b8079c6640d'
p19
sS'wxpluginkey'
p20
S'1559631602'
p21
sS'wxsid'
p22
S'TsMICUH8rWdmb/sr'
p23
sS'mm_lang'
p24
S'zh_CN'
p25
ssS'version'
p26
S'1.3.10'
p27
sS'storage'
p28
(dp29
S'userName'
p30
V@e0d01bb892ea4642de44daf3ec39e5e2d41e594b3f39df680bb43ef285595c57
p31
sS'lastInputUserName'
p32
NsS'memberList'
p33
ccopy_reg
_reconstructor
p34
(citchat.storage.templates
ContactList
p35
c__builtin__
list
p36
(lp37
g34
(citchat.storage.templates
User
p38
c__builtin__
dict
p39
(dp40
S'UserName'
p41
g31
sS'City'
p42
S''
p43
sS'DisplayName'
p44
g43
sS'UniFriend'
p45
I0
sS'OwnerUin'
p46
I0
sS'MemberList'
p47
g34
(g35
g36
(lp48
tp49
Rp50
I1
bsS'PYQuanPin'
p51
V
p52
sS'RemarkPYInitial'
p53
g52
sS'Uin'
p54
I200509586
sS'AppAccountFlag'
p55
I0
sS'VerifyFlag'
p56
I0
sS'Province'
p57
g43
sS'KeyWord'
p58
g43
sS'RemarkName'
p59
g52
sS'PYInitial'
p60
g52
sS'ChatRoomId'
p61
I0
sS'HideInputBarFlag'
p62
I0
sVHeadImgFlag
p63
I1
sS'EncryChatRoomId'
p64
g43
sS'AttrStatus'
p65
I0
sS'SnsFlag'
p66
I0
sS'MemberCount'
p67
I0
sVWebWxPluginSwitch
p68
I0
sS'Alias'
p69
g43
sS'Signature'
p70
g52
sS'ContactFlag'
p71
I0
sS'NickName'
p72
V\u673a\u5668\u4eba\u5c0f\u80d6
p73
sS'RemarkPYQuanPin'
p74
g52
sS'HeadImgUrl'
p75
V/cgi-bin/mmwebwx-bin/webwxgeticon?seq=1323212506&username=@e0d01bb892ea4642de44daf3ec39e5e2d41e594b3f39df680bb43ef285595c57&skey=@crypt_49509d7f_5797530a8c75c6dccd6e945666089a78
p76
sS'Sex'
p77
I1
sS'StarFriend'
p78
I0
sS'Statues'
p79
I0
stp80
Rp81
I1
bag34
(g38
g39
(dp82
VUserName
p83
V@48a519d0840b84dae35c173421f54556
p84
sVCity
p85
g52
sVSnsFlag
p86
I17
sVDisplayName
p87
g52
sVUniFriend
p88
I0
sVMemberCount
p89
I0
sVOwnerUin
p90
I0
sVMemberList
p91
g50
sVAlias
p92
g52
sVPYQuanPin
p93
VCXY
p94
sVSignature
p95
V\u7b49\u98ce\u4e5f\u7b49\u4f60\u3002
p96
sVRemarkPYInitial
p97
VXYKTX
p98
sVContactFlag
p99
I1
sVUin
p100
I0
sVNickName
p101
V-C_XY-
p102
sVAppAccountFlag
p103
I0
sVVerifyFlag
p104
I0
sVRemarkPYQuanPin
p105
Vxinyongkataoxian
p106
sVHeadImgUrl
p107
V/cgi-bin/mmwebwx-bin/webwxgeticon?seq=673710066&username=@48a519d0840b84dae35c173421f54556&skey=@crypt_49509d7f_5797530a8c75c6dccd6e945666089a78
p108
sVKeyWord
p109
Vwux
p110
sVProvince
p111
g52
sVPYInitial
p112
VCXY
p113
sVRemarkName
p114
V\u4fe1\u7528\u5361\u5957\u73b0
p115
sVStarFriend
p116
I0
sVSex
p117
I2
sVIsOwner
p118
I0
sVHideInputBarFlag
p119
I0
sVChatRoomId
p120
I0
sVEncryChatRoomId
p121
g52
sVAttrStatus
p122
I111719
sVStatues
p123
I0
stp124
Rp125
I1
bag34
(g38
g39
(dp126
VUserName
p127
V@ab20d37dea96dc3588b81f026b694416dc0fa1530a4d03432a0da67229312cda
p128
sVCity
p129
V\u53a6\u95e8
p130
sVSnsFlag
p131
I1
sVDisplayName
p132
g52
sVUniFriend
p133
I0
sVMemberCount
p134
I0
sVOwnerUin
p135
I0
sVMemberList
p136
g50
sVAlias
p137
g52
sVPYQuanPin
p138
Vfeisehuiyi
p139
sVSignature
p140
V\u505a\u4e2a\u6e29\u67d4\uff0c\u9738\u6c14\u7684\uff0c\u6dd1\u5973\U0001f643\U0001f643
p141
sVRemarkPYInitial
p142
g52
sVContactFlag
p143
I1
sVUin
p144
I0
sVNickName
p145
V\u83f2\u8272\u56de\u5fc6
p146
sVAppAccountFlag
p147
I0
sVVerifyFlag
p148
I0
sVRemarkPYQuanPin
p149
g52
sVHeadImgUrl
p150
V/cgi-bin/mmwebwx-bin/webwxgeticon?seq=673715277&username=@ab20d37dea96dc3588b81f026b694416dc0fa1530a4d03432a0da67229312cda&skey=@crypt_49509d7f_5797530a8c75c6dccd6e945666089a78
p151
sVKeyWord
p152
g52
sVProvince
p153
V\u798f\u5efa
p154
sVPYInitial
p155
VFSHY
p156
sVRemarkName
p157
g52
sVStarFriend
p158
I0
sVSex
p159
I2
sVIsOwner
p160
I0
sVHideInputBarFlag
p161
I0
sVChatRoomId
p162
I0
sVEncryChatRoomId
p163
g52
sVAttrStatus
p164
I102589
sVStatues
p165
I0
stp166
Rp167
I1
bag34
(g38
g39
(dp168
VUserName
p169
V@9254faca76ea6a042c99c3b0ae3a3ca24bfbb16cfaa810a2c5666c3238e928ee
p170
sVCity
p171
g52
sVSnsFlag
p172
I1
sVDisplayName
p173
g52
sVUniFriend
p174
I0
sVMemberCount
p175
I0
sVOwnerUin
p176
I0
sVMemberList
p177
g50
sVAlias
p178
g52
sVPYQuanPin
p179
VMolly
p180
sVSignature
p181
V\u5c3d\u4eba\u4e8b\u542c\u5929\u610f\uff01
p182
sVRemarkPYInitial
p183
g52
sVContactFlag
p184
I1
sVUin
p185
I0
sVNickName
p186
VMolly
p187
sVAppAccountFlag
p188
I0
sVVerifyFlag
p189
I0
sVRemarkPYQuanPin
p190
g52
sVHeadImgUrl
p191
V/cgi-bin/mmwebwx-bin/webwxgeticon?seq=673715616&username=@9254faca76ea6a042c99c3b0ae3a3ca24bfbb16cfaa810a2c5666c3238e928ee&skey=@crypt_49509d7f_5797530a8c75c6dccd6e945666089a78
p192
sVKeyWord
p193
g52
sVProvince
p194
g52
sVPYInitial
p195
VMOLLY
p196
sVRemarkName
p197
g52
sVStarFriend
p198
I0
sVSex
p199
I2
sVIsOwner
p200
I0
sVHideInputBarFlag
p201
I0
sVChatRoomId
p202
I0
sVEncryChatRoomId
p203
g52
sVAttrStatus
p204
I234083
sVStatues
p205
I0
stp206
Rp207
I1
bag34
(g38
g39
(dp208
VUserName
p209
V@b85704abd11bd9acacfe979b9861372e127623012574a5894ab1abfa7eda108d
p210
sVCity
p211
g52
sVSnsFlag
p212
I1
sVDisplayName
p213
g52
sVUniFriend
p214
I0
sVMemberCount
p215
I0
sVOwnerUin
p216
I0
sVMemberList
p217
g50
sVAlias
p218
g52
sVPYQuanPin
p219
Vchuanguoliushui
p220
sVSignature
p221
V\u53ea\u4e3a\u4e00\u4eba\u7559
p222
sVRemarkPYInitial
p223
g52
sVContactFlag
p224
I1
sVUin
p225
I0
sVNickName
p226
V\u7a7f\u8fc7\u6d41\u6c34
p227
sVAppAccountFlag
p228
I0
sVVerifyFlag
p229
I0
sVRemarkPYQuanPin
p230
g52
sVHeadImgUrl
p231
V/cgi-bin/mmwebwx-bin/webwxgeticon?seq=673714836&username=@b85704abd11bd9acacfe979b9861372e127623012574a5894ab1abfa7eda108d&skey=@crypt_49509d7f_5797530a8c75c6dccd6e945666089a78
p232
sVKeyWord
p233
g52
sVProvince
p234
VKowloon City
p235
sVPYInitial
p236
VCGLS
p237
sVRemarkName
p238
g52
sVStarFriend
p239
I0
sVSex
p240
I1
sVIsOwner
p241
I0
sVHideInputBarFlag
p242
I0
sVChatRoomId
p243
I0
sVEncryChatRoomId
p244
g52
sVAttrStatus
p245
I33690405
sVStatues
p246
I0
stp247
Rp248
I1
bag34
(g38
g39
(dp249
VUserName
p250
V@d7d347c370ce80bb5d30f2151db56e14beb1a447e7338f36f59380c13f7b8f50
p251
sVCity
p252
V\u6d66\u4e1c\u65b0\u533a
p253
sVSnsFlag
p254
I1
sVDisplayName
p255
g52
sVUniFriend
p256
I0
sVMemberCount
p257
I0
sVOwnerUin
p258
I0
sVMemberList
p259
g50
sVAlias
p260
g52
sVPYQuanPin
p261
Vyannispanclassemojiemoji1f485span?
p262
sVSignature
p263
V\u4f60\u82e5\u76db\u5f00\uff0c\u8774\u8776\u81ea\u6765\u2026\u2026
p264
sVRemarkPYInitial
p265
g52
sVContactFlag
p266
I1
sVUin
p267
I0
sVNickName
p268
V\u71d5\u59ae\U0001f485\U0001f3fb
p269
sVAppAccountFlag
p270
I0
sVVerifyFlag
p271
I0
sVRemarkPYQuanPin
p272
g52
sVHeadImgUrl
p273
V/cgi-bin/mmwebwx-bin/webwxgeticon?seq=673715724&username=@d7d347c370ce80bb5d30f2151db56e14beb1a447e7338f36f59380c13f7b8f50&skey=@crypt_49509d7f_5797530a8c75c6dccd6e945666089a78
p274
sVKeyWord
p275
g52
sVProvince
p276
V\u4e0a\u6d77
p277
sVPYInitial
p278
VYNSPANCLASSEMOJIEMOJI1F485SPAN?
p279
sVRemarkName
p280
g52
sVStarFriend
p281
I0
sVSex
p282
I2
sVIsOwner
p283
I0
sVHideInputBarFlag
p284
I0
sVChatRoomId
p285
I0
sVEncryChatRoomId
p286
g52
sVAttrStatus
p287
I103205
sVStatues
p288
I0
stp289
Rp290
I1
bag34
(g38
g39
(dp291
VUserName
p292
V@8ef2fbed0c89466db3ee1472f932aa4bdddcb8e71ccd0c5898e3d3b0024173d4
p293
sVCity
p294
g52
sVSnsFlag
p295
I1
sVDisplayName
p296
g52
sVUniFriend
p297
I0
sVMemberCount
p298
I0
sVOwnerUin
p299
I0
sVMemberList
p300
g50
sVAlias
p301
g52
sVPYQuanPin
p302
Vmeiniang
p303
sVSignature
p304
g52
sVRemarkPYInitial
p305
g52
sVContactFlag
p306
I3
sVUin
p307
I0
sVNickName
p308
V\u5a9a\u5a18
p309
sVAppAccountFlag
p310
I0
sVVerifyFlag
p311
I0
sVRemarkPYQuanPin
p312
g52
sVHeadImgUrl
p313
V/cgi-bin/mmwebwx-bin/webwxgeticon?seq=673716400&username=@8ef2fbed0c89466db3ee1472f932aa4bdddcb8e71ccd0c5898e3d3b0024173d4&skey=@crypt_49509d7f_5797530a8c75c6dccd6e945666089a78
p314
sVKeyWord
p315
g52
sVProvince
p316
g52
sVPYInitial
p317
VMN
p318
sVRemarkName
p319
g52
sVStarFriend
p320
I0
sVSex
p321
I1
sVIsOwner
p322
I0
sVHideInputBarFlag
p323
I0
sVChatRoomId
p324
I0
sVEncryChatRoomId
p325
g52
sVAttrStatus
p326
I234081
sVStatues
p327
I0
stp328
Rp329
I1
bag34
(g38
g39
(dp330
VUserName
p331
V@79d6f8deed821b484500a03b0b1c4266367f3b28ccedfe109b268c74a3c43c00
p332
sVCity
p333
g52
sVSnsFlag
p334
I1
sVDisplayName
p335
g52
sVUniFriend
p336
I0
sVMemberCount
p337
I0
sVOwnerUin
p338
I0
sVMemberList
p339
g50
sVAlias
p340
g52
sVPYQuanPin
p341
VAkuaidiyouhuiquanbudingjigengxin
p342
sVSignature
p343
V\u963f\u8fea\u8fbe\u65af\u7ae5\u88c5  \u65ad\u7801\u7279\u4ef7
p344
sVRemarkPYInitial
p345
g52
sVContactFlag
p346
I3
sVUin
p347
I0
sVNickName
p348
VA\u5feb\u9012\u4f18\u60e0\u5238 \u4e0d\u5b9a\u671f\u66f4\u65b0
p349
sVAppAccountFlag
p350
I0
sVVerifyFlag
p351
I0
sVRemarkPYQuanPin
p352
g52
sVHeadImgUrl
p353
V/cgi-bin/mmwebwx-bin/webwxgeticon?seq=673716439&username=@79d6f8deed821b484500a03b0b1c4266367f3b28ccedfe109b268c74a3c43c00&skey=@crypt_49509d7f_5797530a8c75c6dccd6e945666089a78
p354
sVKeyWord
p355
g52
sVProvince
p356
g52
sVPYInitial
p357
VAKDYHQBDJGX
p358
sVRemarkName
p359
g52
sVStarFriend
p360
I0
sVSex
p361
I1
sVIsOwner
p362
I0
sVHideInputBarFlag
p363
I0
sVChatRoomId
p364
I0
sVEncryChatRoomId
p365
g52
sVAttrStatus
p366
I135205
sVStatues
p367
I0
stp368
Rp369
I1
bag34
(g38
g39
(dp370
VUserName
p371
V@62d1aedeba455e5492a0d774f6df561c
p372
sVCity
p373
V\u4e1c\u57ce
p374
sVSnsFlag
p375
I17
sVDisplayName
p376
g52
sVUniFriend
p377
I0
sVMemberCount
p378
I0
sVOwnerUin
p379
I0
sVMemberList
p380
g50
sVAlias
p381
g52
sVPYQuanPin
p382
Vpengcheng
p383
sVSignature
p384
V\u672a\u6765\u4e0d\u8fce\uff0c\u5f53\u65f6\u4e0d\u6742\uff0c\u8fc7\u5f80\u4e0d\u604b
p385
sVRemarkPYInitial
p386
g52
sVContactFlag
p387
I3
sVUin
p388
I0
sVNickName
p389
V\u9e4f\u7a0b
p390
sVAppAccountFlag
p391
I0
sVVerifyFlag
p392
I0
sVRemarkPYQuanPin
p393
g52
sVHeadImgUrl
p394
V/cgi-bin/mmwebwx-bin/webwxgeticon?seq=669180196&username=@62d1aedeba455e5492a0d774f6df561c&skey=@crypt_49509d7f_5797530a8c75c6dccd6e945666089a78
p395
sVKeyWord
p396
Vwar
p397
sVProvince
p398
V\u5317\u4eac
p399
sVPYInitial
p400
VPC
p401
sVRemarkName
p402
g52
sVStarFriend
p403
I0
sVSex
p404
I1
sVIsOwner
p405
I0
sVHideInputBarFlag
p406
I0
sVChatRoomId
p407
I0
sVEncryChatRoomId
p408
g52
sVAttrStatus
p409
I33691111
sVStatues
p410
I0
stp411
Rp412
I1
bag34
(g38
g39
(dp413
VUserName
p414
V@35f4ef5db99eb4cc9751635fce74a147d023aa1b21cd5a11c3c76731c9a6b0bb
p415
sVCity
p416
V\u90af\u90f8
p417
sVSnsFlag
p418
I1
sVDisplayName
p419
g52
sVUniFriend
p420
I0
sVMemberCount
p421
I0
sVOwnerUin
p422
I0
sVMemberList
p423
g50
sVAlias
p424
g52
sVPYQuanPin
p425
Vniming
p426
sVSignature
p427
V<span class="emoji emoji1f63a"></span> <span class="emoji emoji1f63a"></span> <span class="emoji emoji1f63a"></span> <span class="emoji emoji1f63a"></span> <span class="emoji emoji1f63a"></span>
p428
sVRemarkPYInitial
p429
g52
sVContactFlag
p430
I3
sVUin
p431
I0
sVNickName
p432
V\u533f\u540d
p433
sVAppAccountFlag
p434
I0
sVVerifyFlag
p435
I0
sVRemarkPYQuanPin
p436
g52
sVHeadImgUrl
p437
V/cgi-bin/mmwebwx-bin/webwxgeticon?seq=673718011&username=@35f4ef5db99eb4cc9751635fce74a147d023aa1b21cd5a11c3c76731c9a6b0bb&skey=@crypt_49509d7f_5797530a8c75c6dccd6e945666089a78
p438
sVKeyWord
p439
g52
sVProvince
p440
V\u6cb3\u5317
p441
sVPYInitial
p442
VNM
p443
sVRemarkName
p444
g52
sVStarFriend
p445
I0
sVSex
p446
I1
sVIsOwner
p447
I0
sVHideInputBarFlag
p448
I0
sVChatRoomId
p449
I0
sVEncryChatRoomId
p450
g52
sVAttrStatus
p451
I33657149
sVStatues
p452
I0
stp453
Rp454
I1
bag34
(g38
g39
(dp455
VUserName
p456
V@4aeb6856bf52416f7765bca52da170d2
p457
sVCity
p458
V\u65e0\u9521
p459
sVSnsFlag
p460
I177
sVDisplayName
p461
g52
sVUniFriend
p462
I0
sVMemberCount
p463
I0
sVOwnerUin
p464
I0
sVMemberList
p465
g50
sVAlias
p466
g52
sVPYQuanPin
p467
VjietouebaZip
p468
sVSignature
p469
VStreet Bully\u521b\u59cb\u4eba\u3001\u72d7\u4e0d\u61c2\u521b\u59cb\u4eba\uff0c\u72d7\u884c\u4e3a\u5b66\u3001\u5fc3\u7406\u5b66\u7814\u7a76\u8005
p470
sVRemarkPYInitial
p471
g52
sVContactFlag
p472
I1
sVUin
p473
I0
sVNickName
p474
V\u8857\u982d\u60e1\u9738\u3010Zip\u3011
p475
sVAppAccountFlag
p476
I0
sVVerifyFlag
p477
I0
sVRemarkPYQuanPin
p478
g52
sVHeadImgUrl
p479
V/cgi-bin/mmwebwx-bin/webwxgeticon?seq=673713460&username=@4aeb6856bf52416f7765bca52da170d2&skey=@crypt_49509d7f_5797530a8c75c6dccd6e945666089a78
p480
sVKeyWord
p481
Vtr8
p482
sVProvince
p483
V\u6c5f\u82cf
p484
sVPYInitial
p485
VJTEBZIP
p486
sVRemarkName
p487
g52
sVStarFriend
p488
I0
sVSex
p489
I1
sVIsOwner
p490
I0
sVHideInputBarFlag
p491
I0
sVChatRoomId
p492
I0
sVEncryChatRoomId
p493
g52
sVAttrStatus
p494
I2147564455
sVStatues
p495
I0
stp496
Rp497
I1
bag34
(g38
g39
(dp498
VUserName
p499
V@60915c68c5cd3311a34e1d7f1e2152085c373f94a8a903603c0c14cbdc9d8789
p500
sVCity
p501
V\u5305\u5934
p502
sVSnsFlag
p503
I1
sVDisplayName
p504
g52
sVUniFriend
p505
I0
sVMemberCount
p506
I0
sVOwnerUin
p507
I0
sVMemberList
p508
g50
sVAlias
p509
g52
sVPYQuanPin
p510
Vxiaoqing
p511
sVSignature
p512
g52
sVRemarkPYInitial
p513
g52
sVContactFlag
p514
I3
sVUin
p515
I0
sVNickName
p516
V\u5c0f\u9752
p517
sVAppAccountFlag
p518
I0
sVVerifyFlag
p519
I0
sVRemarkPYQuanPin
p520
g52
sVHeadImgUrl
p521
V/cgi-bin/mmwebwx-bin/webwxgeticon?seq=673718930&username=@60915c68c5cd3311a34e1d7f1e2152085c373f94a8a903603c0c14cbdc9d8789&skey=@crypt_49509d7f_5797530a8c75c6dccd6e945666089a78
p522
sVKeyWord
p523
g52
sVProvince
p524
V\u5185\u8499\u53e4
p525
sVPYInitial
p526
VXQ
p527
sVRemarkName
p528
g52
sVStarFriend
p529
I0
sVSex
p530
I1
sVIsOwner
p531
I0
sVHideInputBarFlag
p532
I0
sVChatRoomId
p533
I0
sVEncryChatRoomId
p534
g52
sVAttrStatus
p535
I234109
sVStatues
p536
I0
stp537
Rp538
I1
bag34
(g38
g39
(dp539
VUserName
p540
V@4697eaa31c93c25d2ed9bf6d700dac8f59ea1181b294b46b5382bd793ef70905
p541
sVCity
p542
g52
sVSnsFlag
p543
I1
sVDisplayName
p544
g52
sVUniFriend
p545
I0
sVMemberCount
p546
I0
sVOwnerUin
p547
I0
sVMemberList
p548
g50
sVAlias
p549
g52
sVPYQuanPin
p550
Vqinghuida2019
p551
sVSignature
p552
V\u8bda\u5fc3\u6b63\u610f\uff0c\u505a\u5fc3\u5e95\u8ba4\u4e3a\u6b63\u786e\u7684\u4e8b
p553
sVRemarkPYInitial
p554
VCLAIRTINDER
p555
sVContactFlag
p556
I3
sVUin
p557
I0
sVNickName
p558
V\u8bf7\u56de\u7b542019
p559
sVAppAccountFlag
p560
I0
sVVerifyFlag
p561
I0
sVRemarkPYQuanPin
p562
VClairTinder
p563
sVHeadImgUrl
p564
V/cgi-bin/mmwebwx-bin/webwxgeticon?seq=673719286&username=@4697eaa31c93c25d2ed9bf6d700dac8f59ea1181b294b46b5382bd793ef70905&skey=@crypt_49509d7f_5797530a8c75c6dccd6e945666089a78
p565
sVKeyWord
p566
g52
sVProvince
p567
g52
sVPYInitial
p568
VQHD2019
p569
sVRemarkName
p570
VClair Tinder
p571
sVStarFriend
p572
I0
sVSex
p573
I0
sVIsOwner
p574
I0
sVHideInputBarFlag
p575
I0
sVChatRoomId
p576
I0
sVEncryChatRoomId
p577
g52
sVAttrStatus
p578
I233509
sVStatues
p579
I0
stp580
Rp581
I1
bag34
(g38
g39
(dp582
VUserName
p583
V@54aac37f4e3e809e573b3eeb70499ea615559d8d554bc8a0573e4fb2d1c204ca
p584
sVCity
p585
V\u6df1\u5733
p586
sVSnsFlag
p587
I49
sVDisplayName
p588
g52
sVUniFriend
p589
I0
sVMemberCount
p590
I0
sVOwnerUin
p591
I0
sVMemberList
p592
g50
sVAlias
p593
g52
sVPYQuanPin
p594
Vfanjiamianspanclassemojiemoji1f345span
p595
sVSignature
p596
V    
p597
sVRemarkPYInitial
p598
g52
sVContactFlag
p599
I1
sVUin
p600
I0
sVNickName
p601
V\u756a\u8304\u9762\U0001f345
p602
sVAppAccountFlag
p603
I0
sVVerifyFlag
p604
I0
sVRemarkPYQuanPin
p605
g52
sVHeadImgUrl
p606
V/cgi-bin/mmwebwx-bin/webwxgeticon?seq=673719560&username=@54aac37f4e3e809e573b3eeb70499ea615559d8d554bc8a0573e4fb2d1c204ca&skey=@crypt_49509d7f_5797530a8c75c6dccd6e945666089a78
p607
sVKeyWord
p608
g52
sVProvince
p609
V\u5e7f\u4e1c
p610
sVPYInitial
p611
VFJMSPANCLASSEMOJIEMOJI1F345SPAN
p612
sVRemarkName
p613
g52
sVStarFriend
p614
I0
sVSex
p615
I1
sVIsOwner
p616
I0
sVHideInputBarFlag
p617
I0
sVChatRoomId
p618
I0
sVEncryChatRoomId
p619
g52
sVAttrStatus
p620
I100539
sVStatues
p621
I0
stp622
Rp623
I1
bag34
(g38
g39
(dp624
VUserName
p625
V@30fead1d338233d5f90d58897a6ebd4b1585ae7a45c191811c0235cc522ab5f8
p626
sVCity
p627
g52
sVSnsFlag
p628
I1
sVDisplayName
p629
g52
sVUniFriend
p630
I0
sVMemberCount
p631
I0
sVOwnerUin
p632
I0
sVMemberList
p633
g50
sVAlias
p634
g52
sVPYQuanPin
p635
VSimpler?
p636
sVSignature
p637
VHierarchy
p638
sVRemarkPYInitial
p639
g52
sVContactFlag
p640
I3
sVUin
p641
I0
sVNickName
p642
VSimpler\U0001f408
p643
sVAppAccountFlag
p644
I0
sVVerifyFlag
p645
I0
sVRemarkPYQuanPin
p646
g52
sVHeadImgUrl
p647
V/cgi-bin/mmwebwx-bin/webwxgeticon?seq=673719582&username=@30fead1d338233d5f90d58897a6ebd4b1585ae7a45c191811c0235cc522ab5f8&skey=@crypt_49509d7f_5797530a8c75c6dccd6e945666089a78
p648
sVKeyWord
p649
g52
sVProvince
p650
g52
sVPYInitial
p651
VSIMPLER?
p652
sVRemarkName
p653
g52
sVStarFriend
p654
I0
sVSex
p655
I2
sVIsOwner
p656
I0
sVHideInputBarFlag
p657
I0
sVChatRoomId
p658
I0
sVEncryChatRoomId
p659
g52
sVAttrStatus
p660
I234277
sVStatues
p661
I0
stp662
Rp663
I1
bag34
(g38
g39
(dp664
VUserName
p665
V@fe5d9fbf1cc85ca3b28a71a3ebf0de90c978631d575558670ad8f0f689b8eee8
p666
sVCity
p667
V\u90af\u90f8
p668
sVSnsFlag
p669
I1
sVDisplayName
p670
g52
sVUniFriend
p671
I0
sVMemberCount
p672
I0
sVOwnerUin
p673
I0
sVMemberList
p674
g50
sVAlias
p675
g52
sVPYQuanPin
p676
Vyuyuchaojikeaispanclassemojiemoji1f495span
p677
sVSignature
p678
V\u5b87\u5b87\u4e0d\u6536\u4e8c\u624b\u5783\u573e\u3002
p679
sVRemarkPYInitial
p680
g52
sVContactFlag
p681
I3
sVUin
p682
I0
sVNickName
p683
V\u5b87\u5b87\u7092\u9e21\u53ef\u7231\U0001f495
p684
sVAppAccountFlag
p685
I0
sVVerifyFlag
p686
I0
sVRemarkPYQuanPin
p687
g52
sVHeadImgUrl
p688
V/cgi-bin/mmwebwx-bin/webwxgeticon?seq=673719601&username=@fe5d9fbf1cc85ca3b28a71a3ebf0de90c978631d575558670ad8f0f689b8eee8&skey=@crypt_49509d7f_5797530a8c75c6dccd6e945666089a78
p689
sVKeyWord
p690
g52
sVProvince
p691
V\u6cb3\u5317
p692
sVPYInitial
p693
VYYCJKASPANCLASSEMOJIEMOJI1F495SPAN
p694
sVRemarkName
p695
g52
sVStarFriend
p696
I0
sVSex
p697
I2
sVIsOwner
p698
I0
sVHideInputBarFlag
p699
I0
sVChatRoomId
p700
I0
sVEncryChatRoomId
p701
g52
sVAttrStatus
p702
I4645
sVStatues
p703
I0
stp704
Rp705
I1
bag34
(g38
g39
(dp706
VUserName
p707
V@f5b6a4659b6bf95e1be3e2479b53f5b686eee182a61a52497341fe83673fb56c
p708
sVCity
p709
VOthers
p710
sVSnsFlag
p711
I1
sVDisplayName
p712
g52
sVUniFriend
p713
I0
sVMemberCount
p714
I0
sVOwnerUin
p715
I0
sVMemberList
p716
g50
sVAlias
p717
g52
sVPYQuanPin
p718
Vabbyhuanerspanclassemojiemoji1f48bspanspanclassemojiemoji1f6baspan
p719
sVSignature
p720
V\u8ba9\u8721\u70db\u4ee3\u66ff\u6240\u6709\u706f \u8ba9\u97f3\u4e50\u4ee3\u66ff\u8bdd\u8bed\u58f0 \u6b64\u65f6\u65e0\u58f0\u80dc\u6709\u58f0
p721
sVRemarkPYInitial
p722
g52
sVContactFlag
p723
I1
sVUin
p724
I0
sVNickName
p725
Vabby\u6b22\u513f\U0001f48b\U0001f6ba
p726
sVAppAccountFlag
p727
I0
sVVerifyFlag
p728
I0
sVRemarkPYQuanPin
p729
g52
sVHeadImgUrl
p730
V/cgi-bin/mmwebwx-bin/webwxgeticon?seq=673719319&username=@f5b6a4659b6bf95e1be3e2479b53f5b686eee182a61a52497341fe83673fb56c&skey=@crypt_49509d7f_5797530a8c75c6dccd6e945666089a78
p731
sVKeyWord
p732
g52
sVProvince
p733
VKuala Lumpur
p734
sVPYInitial
p735
VABBYHESPANCLASSEMOJIEMOJI1F48BSPANSPANCLASSEMOJIEMOJI1F6BASPAN
p736
sVRemarkName
p737
g52
sVStarFriend
p738
I0
sVSex
p739
I2
sVIsOwner
p740
I0
sVHideInputBarFlag
p741
I0
sVChatRoomId
p742
I0
sVEncryChatRoomId
p743
g52
sVAttrStatus
p744
I33656865
sVStatues
p745
I0
stp746
Rp747
I1
batp748
Rp749
I1
bsS'chatroomList'
p750
g34
(g35
g36
(lp751
g34
(citchat.storage.templates
Chatroom
p752
g39
(dp753
VUserName
p754
V@@0ef0c9644fadae4b429533ef48fe03bbe0c2ea1defc674701d8dbd149dd03ea3
p755
sVCity
p756
g52
sVDisplayName
p757
g52
sVUniFriend
p758
I0
sS'Self'
p759
g34
(g38
g39
(dp760
g41
g31
sg42
g43
sg44
g43
sg45
I0
sg47
g50
sg51
g52
sg53
g52
sg77
I1
sg55
I0
sg56
I0
sg57
g43
sg58
g43
sg59
g52
sg60
g52
sg61
I0
sg62
I0
sg63
I1
sg64
g43
sg65
I0
sg68
I0
sg66
I0
sg67
I0
sg46
I0
sg69
g43
sg70
g52
sg71
I0
sg72
g73
sg74
g52
sg75
g76
sg54
I200509586
sg78
I0
sg79
I0
stp761
Rp762
I1
bsVMemberList
p763
g34
(g35
g36
(lp764
tp765
Rp766
I1
bsVPYQuanPin
p767
g52
sVRemarkPYInitial
p768
g52
sVSex
p769
I0
sVAppAccountFlag
p770
I0
sVVerifyFlag
p771
I0
sVProvince
p772
g52
sVKeyWord
p773
g52
sVRemarkName
p774
g52
sVPYInitial
p775
g52
sVIsOwner
p776
I0
sVChatRoomId
p777
I0
sVHideInputBarFlag
p778
I0
sVEncryChatRoomId
p779
g52
sVAttrStatus
p780
I0
sVSnsFlag
p781
I0
sVMemberCount
p782
I479
sVOwnerUin
p783
I0
sVAlias
p784
g52
sS'IsAdmin'
p785
NsVSignature
p786
g52
sVContactFlag
p787
I0
sVNickName
p788
VRedis\u6280\u672f\u4ea4\u6d41\u7fa42
p789
sVRemarkPYQuanPin
p790
g52
sVHeadImgUrl
p791
V/cgi-bin/mmwebwx-bin/webwxgetheadimg?seq=0&username=@@0ef0c9644fadae4b429533ef48fe03bbe0c2ea1defc674701d8dbd149dd03ea3&skey=@crypt_49509d7f_5797530a8c75c6dccd6e945666089a78
p792
sVUin
p793
I0
sVStarFriend
p794
I0
sVStatues
p795
I1
stp796
Rp797
I1
bag34
(g752
g39
(dp798
VUserName
p799
V@@f8449ac8d5820d123f80335464b254a200fe49ba76426ef166c2200e299d0555
p800
sVCity
p801
g52
sVDisplayName
p802
g52
sVUniFriend
p803
I0
sg759
g34
(g38
g39
(dp804
g41
g31
sg42
g43
sg44
g43
sg45
I0
sg47
g50
sg51
g52
sg53
g52
sg77
I1
sg55
I0
sg56
I0
sg57
g43
sg58
g43
sg59
g52
sg60
g52
sg61
I0
sg62
I0
sg63
I1
sg64
g43
sg65
I0
sg68
I0
sg66
I0
sg67
I0
sg46
I0
sg69
g43
sg70
g52
sg71
I0
sg72
g73
sg74
g52
sg75
g76
sg54
I200509586
sg78
I0
sg79
I0
stp805
Rp806
I1
bsVMemberList
p807
g34
(g35
g36
(lp808
tp809
Rp810
I1
bsVPYQuanPin
p811
g52
sVRemarkPYInitial
p812
g52
sVSex
p813
I0
sVAppAccountFlag
p814
I0
sVVerifyFlag
p815
I0
sVProvince
p816
g52
sVKeyWord
p817
g52
sVRemarkName
p818
g52
sVPYInitial
p819
g52
sVIsOwner
p820
I0
sVChatRoomId
p821
I0
sVHideInputBarFlag
p822
I0
sVEncryChatRoomId
p823
g52
sVAttrStatus
p824
I0
sVSnsFlag
p825
I0
sVMemberCount
p826
I500
sVOwnerUin
p827
I0
sVAlias
p828
g52
sg785
NsVSignature
p829
g52
sVContactFlag
p830
I2
sVNickName
p831
VRedis\u6280\u672f\u4ea4\u6d41\u7fa4
p832
sVRemarkPYQuanPin
p833
g52
sVHeadImgUrl
p834
V/cgi-bin/mmwebwx-bin/webwxgetheadimg?seq=673719738&username=@@f8449ac8d5820d123f80335464b254a200fe49ba76426ef166c2200e299d0555&skey=@crypt_49509d7f_5797530a8c75c6dccd6e945666089a78
p835
sVUin
p836
I0
sVStarFriend
p837
I0
sVStatues
p838
I1
stp839
Rp840
I1
batp841
Rp842
I1
bsS'nickName'
p843
g73
sS'mpList'
p844
g34
(g35
g36
(lp845
g34
(citchat.storage.templates
MassivePlatform
p846
g39
(dp847
VUserName
p848
V@d53b8ec99e2f29172ddba45e266b5720
p849
sVCity
p850
V\u6df1\u5733
p851
sVSnsFlag
p852
I0
sVDisplayName
p853
g52
sVUniFriend
p854
I0
sVMemberCount
p855
I0
sVOwnerUin
p856
I0
sVMemberList
p857
g50
sVAlias
p858
g52
sVPYQuanPin
p859
Vfengchaozhinenggui
p860
sVSignature
p861
V\u5173\u6ce8\u4e30\u5de2\u670d\u52a1\u53f7\uff0c\u7b2c\u4e00\u65f6\u95f4\u63a5\u6536\u60a8\u7684\u5feb\u4ef6\u7269\u6d41\u63d0\u9192\uff01\u63d0\u4f9b24\u5c0f\u65f6\u81ea\u52a9\u5bc4\u5feb\u9012\u3001\u7535\u5546\u8d2d\u7269\u3001\u6682\u5b58\u7269\u54c1\u3001\u5a92\u4f53\u4e92\u52a8\u7b49\u4e00\u7ad9\u5f0f\u751f\u6d3b\u670d\u52a1\uff0c\u8ba9\u751f\u6d3b\u66f4\u7b80\u5355\uff01
p862
sVRemarkPYInitial
p863
g52
sVContactFlag
p864
I3
sVUin
p865
I0
sVNickName
p866
V\u4e30\u5de2\u667a\u80fd\u67dc
p867
sVAppAccountFlag
p868
I0
sVVerifyFlag
p869
I24
sVRemarkPYQuanPin
p870
g52
sVHeadImgUrl
p871
V/cgi-bin/mmwebwx-bin/webwxgeticon?seq=673711737&username=@d53b8ec99e2f29172ddba45e266b5720&skey=@crypt_49509d7f_5797530a8c75c6dccd6e945666089a78
p872
sVKeyWord
p873
Vgh_
p874
sVProvince
p875
V\u5e7f\u4e1c
p876
sVPYInitial
p877
VFCZNG
p878
sVRemarkName
p879
g52
sVStarFriend
p880
I0
sVSex
p881
I0
sVIsOwner
p882
I0
sVHideInputBarFlag
p883
I0
sVChatRoomId
p884
I0
sVEncryChatRoomId
p885
g52
sVAttrStatus
p886
I0
sVStatues
p887
I0
stp888
Rp889
I1
bag34
(g846
g39
(dp890
VUserName
p891
V@e26cce21bc519d5b9e584acb364ad400
p892
sVCity
p893
V\u5e7f\u5dde
p894
sVSnsFlag
p895
I0
sVDisplayName
p896
g52
sVUniFriend
p897
I0
sVMemberCount
p898
I0
sVOwnerUin
p899
I0
sVMemberList
p900
g50
sVAlias
p901
g52
sVPYQuanPin
p902
Vyikushaonv
p903
sVSignature
p904
V\u5173\u6ce8\u4e0d\u4e86\uff1f \u8bf7\u641c\u7d22\u5173\u6ce8\uff1a\u5947\u8da3\u62a5\u793e\u65b0\u53f7
p905
sVRemarkPYInitial
p906
g52
sVContactFlag
p907
I3
sVUin
p908
I0
sVNickName
p909
V\u4e00\u5e93\u5c11\u5973
p910
sVAppAccountFlag
p911
I0
sVVerifyFlag
p912
I8
sVRemarkPYQuanPin
p913
g52
sVHeadImgUrl
p914
V/cgi-bin/mmwebwx-bin/webwxgeticon?seq=673712037&username=@e26cce21bc519d5b9e584acb364ad400&skey=@crypt_49509d7f_5797530a8c75c6dccd6e945666089a78
p915
sVKeyWord
p916
Vgh_
p917
sVProvince
p918
V\u5e7f\u4e1c
p919
sVPYInitial
p920
VYKSN
p921
sVRemarkName
p922
g52
sVStarFriend
p923
I0
sVSex
p924
I0
sVIsOwner
p925
I0
sVHideInputBarFlag
p926
I0
sVChatRoomId
p927
I0
sVEncryChatRoomId
p928
g52
sVAttrStatus
p929
I0
sVStatues
p930
I0
stp931
Rp932
I1
bag34
(g846
g39
(dp933
VUserName
p934
V@fe86ca2bca94ba1339b4d89c9967d0f1
p935
sVCity
p936
V\u6df1\u5733
p937
sVSnsFlag
p938
I0
sVDisplayName
p939
g52
sVUniFriend
p940
I0
sVMemberCount
p941
I0
sVOwnerUin
p942
I0
sVMemberList
p943
g50
sVAlias
p944
g52
sVPYQuanPin
p945
Vqiyueyingku
p946
sVSignature
p947
V\u56e0\u4e3a\u7231\u7535\u5f71\uff0c\u6240\u4ee5\u4e0d\u5bc2\u5bde\u3002
p948
sVRemarkPYInitial
p949
g52
sVContactFlag
p950
I3
sVUin
p951
I0
sVNickName
p952
V\u4e03\u6708\u5f71\u5e93
p953
sVAppAccountFlag
p954
I0
sVVerifyFlag
p955
I24
sVRemarkPYQuanPin
p956
g52
sVHeadImgUrl
p957
V/cgi-bin/mmwebwx-bin/webwxgeticon?seq=673715022&username=@fe86ca2bca94ba1339b4d89c9967d0f1&skey=@crypt_49509d7f_5797530a8c75c6dccd6e945666089a78
p958
sVKeyWord
p959
Vgh_
p960
sVProvince
p961
V\u5e7f\u4e1c
p962
sVPYInitial
p963
VQYYK
p964
sVRemarkName
p965
g52
sVStarFriend
p966
I0
sVSex
p967
I0
sVIsOwner
p968
I0
sVHideInputBarFlag
p969
I0
sVChatRoomId
p970
I0
sVEncryChatRoomId
p971
g52
sVAttrStatus
p972
I0
sVStatues
p973
I0
stp974
Rp975
I1
bag34
(g846
g39
(dp976
VUserName
p977
V@86e8eebd8bec8117b0542b7ab6262f34
p978
sVCity
p979
V\u9752\u6d66
p980
sVSnsFlag
p981
I0
sVDisplayName
p982
g52
sVUniFriend
p983
I0
sVMemberCount
p984
I0
sVOwnerUin
p985
I0
sVMemberList
p986
g50
sVAlias
p987
g52
sVPYQuanPin
p988
Vdebangkuaidi
p989
sVSignature
p990
V\u5173\u6ce8\u7acb\u4eab2\u52305\u5143\u4f18\u60e0\u5238\uff0c\u5b9e\u65f6\u83b7\u53d6\u8d27\u7269\u52a8\u6001
p991
sVRemarkPYInitial
p992
g52
sVContactFlag
p993
I3
sVUin
p994
I0
sVNickName
p995
V\u5fb7\u90a6\u5feb\u9012
p996
sVAppAccountFlag
p997
I0
sVVerifyFlag
p998
I24
sVRemarkPYQuanPin
p999
g52
sVHeadImgUrl
p1000
V/cgi-bin/mmwebwx-bin/webwxgeticon?seq=673716437&username=@86e8eebd8bec8117b0542b7ab6262f34&skey=@crypt_49509d7f_5797530a8c75c6dccd6e945666089a78
p1001
sVKeyWord
p1002
Vgh_
p1003
sVProvince
p1004
V\u4e0a\u6d77
p1005
sVPYInitial
p1006
VDBKD
p1007
sVRemarkName
p1008
g52
sVStarFriend
p1009
I0
sVSex
p1010
I0
sVIsOwner
p1011
I0
sVHideInputBarFlag
p1012
I0
sVChatRoomId
p1013
I0
sVEncryChatRoomId
p1014
g52
sVAttrStatus
p1015
I0
sVStatues
p1016
I0
stp1017
Rp1018
I1
bag34
(g846
g39
(dp1019
VUserName
p1020
V@edf594ed72ca8d9674dd4eda0efd4f84
p1021
sVCity
p1022
V\u6df1\u5733
p1023
sVSnsFlag
p1024
I0
sVDisplayName
p1025
g52
sVUniFriend
p1026
I0
sVMemberCount
p1027
I0
sVOwnerUin
p1028
I0
sVMemberList
p1029
g50
sVAlias
p1030
g52
sVPYQuanPin
p1031
Vshunfengsuyun
p1032
sVSignature
p1033
V\u6700\u4fbf\u6377\u7684\u987a\u4e30\u901f\u8fd0\u81ea\u52a9\u670d\u52a1\u5e73\u53f0\u3002\u4e0b\u5355\u5bc4\u4ef6\uff0c \u53ca\u65f6\u8ffd\u8e2a\u5feb\u4ef6\u72b6\u6001\uff0c\u4e3b\u52a8\u63a8\u9001\u8def\u7531\u4fe1\u606f\uff0c\u540c\u65f6\u8ba2\u5355\u7ba1\u7406\u3001\u5730\u5740\u7c3f\u7ba1\u7406\u8ba9\u60a8\u653e\u5fc3\u3001\u8212\u5fc3\u3002\u6211\u4eec\u4e00\u76f4\u5728\u52aa\u529b\uff01
p1034
sVRemarkPYInitial
p1035
g52
sVContactFlag
p1036
I3
sVUin
p1037
I0
sVNickName
p1038
V\u987a\u4e30\u901f\u8fd0
p1039
sVAppAccountFlag
p1040
I0
sVVerifyFlag
p1041
I24
sVRemarkPYQuanPin
p1042
g52
sVHeadImgUrl
p1043
V/cgi-bin/mmwebwx-bin/webwxgeticon?seq=673719418&username=@edf594ed72ca8d9674dd4eda0efd4f84&skey=@crypt_49509d7f_5797530a8c75c6dccd6e945666089a78
p1044
sVKeyWord
p1045
Vgh_
p1046
sVProvince
p1047
V\u5e7f\u4e1c
p1048
sVPYInitial
p1049
VSFSY
p1050
sVRemarkName
p1051
g52
sVStarFriend
p1052
I0
sVSex
p1053
I0
sVIsOwner
p1054
I0
sVHideInputBarFlag
p1055
I0
sVChatRoomId
p1056
I0
sVEncryChatRoomId
p1057
g52
sVAttrStatus
p1058
I0
sVStatues
p1059
I0
stp1060
Rp1061
I1
bag34
(g846
g39
(dp1062
VUserName
p1063
V@37e31a6b4646c4dc97bebd5df2745fb4
p1064
sVCity
p1065
V\u6d4e\u5357
p1066
sVSnsFlag
p1067
I0
sVDisplayName
p1068
g52
sVUniFriend
p1069
I0
sVMemberCount
p1070
I0
sVOwnerUin
p1071
I0
sVMemberList
p1072
g50
sVAlias
p1073
g52
sVPYQuanPin
p1074
Vbaigehuidi
p1075
sVSignature
p1076
V\u767d\u9e3d\u60e0\u9012\u4e3a\u5feb\u9012\u7269\u6d41\u4e1a\u52a1\u7684\u7f51\u4e0a\u4e0b\u5355\u5e73\u53f0\u3002\u4e0e\u4e2d\u90ae\u3001\u987a\u4e30\u3001\u5fb7\u90a6\u3001\u5706\u901a\u3001\u5b85\u6025\u9001\u7b49\u4e00\u7ebf\u901f\u8fd0\u4f01\u4e1a\u5f62\u6210\u5168\u56fd\u5408\u4f5c\u9635\u8425\u3002\u7528\u6237\u53ef\u5728\u7ebf\u5bf9\u6bd4\u4e0b\u5355\uff0c\u4eab\u53d7\u5e73\u53f0\u8865\u8d34\u3002\u4e0b\u5355\u540e\u5ba2\u6237\u9759\u5f85\u5feb\u9012\u5458\u63fd\u4ef6\u3002
p1077
sVRemarkPYInitial
p1078
g52
sVContactFlag
p1079
I3
sVUin
p1080
I0
sVNickName
p1081
V\u767d\u9e3d\u60e0\u9012
p1082
sVAppAccountFlag
p1083
I0
sVVerifyFlag
p1084
I24
sVRemarkPYQuanPin
p1085
g52
sVHeadImgUrl
p1086
V/cgi-bin/mmwebwx-bin/webwxgeticon?seq=673719895&username=@37e31a6b4646c4dc97bebd5df2745fb4&skey=@crypt_49509d7f_5797530a8c75c6dccd6e945666089a78
p1087
sVKeyWord
p1088
Vgh_
p1089
sVProvince
p1090
V\u5c71\u4e1c
p1091
sVPYInitial
p1092
VBGHD
p1093
sVRemarkName
p1094
g52
sVStarFriend
p1095
I0
sVSex
p1096
I0
sVIsOwner
p1097
I0
sVHideInputBarFlag
p1098
I0
sVChatRoomId
p1099
I0
sVEncryChatRoomId
p1100
g52
sVAttrStatus
p1101
I0
sVStatues
p1102
I0
stp1103
Rp1104
I1
batp1105
Rp1106
I1
bssS'loginInfo'
p1107
(dp1108
S'SyncKey'
p1109
(dp1110
VCount
p1111
I7
sVList
p1112
(lp1113
(dp1114
VVal
p1115
I673719894
sVKey
p1116
I1
sa(dp1117
VVal
p1118
I673719925
sVKey
p1119
I2
sa(dp1120
VVal
p1121
I673719895
sVKey
p1122
I3
sa(dp1123
VVal
p1124
I673719849
sVKey
p1125
I11
sa(dp1126
VVal
p1127
I1559633902
sVKey
p1128
I201
sa(dp1129
VVal
p1130
I1559631602
sVKey
p1131
I1000
sa(dp1132
VVal
p1133
I1559631675
sVKey
p1134
I1001
sassS'syncUrl'
p1135
S'https://webpush.wx2.qq.com/cgi-bin/mmwebwx-bin'
p1136
sS'skey'
p1137
V@crypt_49509d7f_5797530a8c75c6dccd6e945666089a78
p1138
sS'wxuin'
p1139
V200509586
p1140
sS'synckey'
p1141
S'1_673719894|2_673719925|3_673719895|11_673719849|201_1559633902|1000_1559631602|1001_1559631675'
p1142
sS'url'
p1143
Vhttps://wx2.qq.com/cgi-bin/mmwebwx-bin
p1144
sS'pass_ticket'
p1145
VcrWr3Xcpg20sEviGMLJzLoVLFCdaze8PFQJVKDh8x6U%3D
p1146
sS'wxsid'
p1147
VTsMICUH8rWdmb/sr
p1148
sS'InviteStartCount'
p1149
I40
sS'User'
p1150
g34
(g38
g39
(dp1151
g41
g31
sg42
g43
sg44
g43
sg45
I0
sg47
g50
sg51
g52
sg53
g52
sg77
I1
sg55
I0
sg56
I0
sg57
g43
sg58
g43
sg59
g52
sg60
g52
sg61
I0
sg62
I0
sg63
I1
sg64
g43
sg65
I0
sg68
I0
sg66
I0
sg67
I0
sg46
I0
sg69
g43
sg70
g52
sg71
I0
sg72
g73
sg74
g52
sg75
g76
sg54
I200509586
sg78
I0
sg79
I0
stp1152
Rp1153
I1
bsS'fileUrl'
p1154
S'https://file.wx2.qq.com/cgi-bin/mmwebwx-bin'
p1155
sS'BaseRequest'
p1156
(dp1157
S'Sid'
p1158
g1148
sS'Skey'
p1159
g1138
sS'DeviceID'
p1160
g1146
sg54
g1140
ssS'deviceid'
p1161
S'e023695996069891'
p1162
ss.