(dp0
S'cookies'
p1
(dp2
S'wxloadtime'
p3
S'1558427790'
p4
sS'webwx_data_ticket'
p5
S'gSfAZTs7ycnO6PjuOzzyX4YN'
p6
sS'wxuin'
p7
S'200509586'
p8
sS'login_frequency'
p9
S'2'
p10
sS'MM_WX_NOTIFY_STATE'
p11
S'1'
p12
sS'MM_WX_SOUND_STATE'
p13
g12
sS'webwx_auth_ticket'
p14
S'CIsBEPOOg9kHGoABpYwxpstwTyaa21UQPkNmONYIH4IXdR+mvQhXhNcfxgpudv/mV+faiZGE1WmBWkpvgPviqDOQXCC4VDG1/Aw3yGKZOlMKjcYhEsTwhwMzLQIg1hf5UpgZ9yoQ6Bro8LfPfdLYRdtQ4eqZjaj4MJ8+XFRlmP7QpAwQipWmtxXckK0='
p15
sS'last_wxuin'
p16
S'200509586'
p17
sS'webwxuvid'
p18
S'd67c82d1011316d7673811e3409b28781876bbba4c1b52acfab654de17b1e8998401369bfd8f88a4f7be1b8079c6640d'
p19
sS'wxpluginkey'
p20
S'1558426885'
p21
sS'wxsid'
p22
S'583ICBmrr+OXA2ZA'
p23
sS'mm_lang'
p24
S'zh_CN'
p25
ssS'version'
p26
S'1.3.10'
p27
sS'storage'
p28
(dp29
S'userName'
p30
V@7df888f0ee6d2bd48bbc21b53880c9f3642146dd7dd6a9d25b3f10f12889acc3
p31
sS'lastInputUserName'
p32
NsS'memberList'
p33
ccopy_reg
_reconstructor
p34
(citchat.storage.templates
ContactList
p35
c__builtin__
list
p36
(lp37
g34
(citchat.storage.templates
User
p38
c__builtin__
dict
p39
(dp40
S'UserName'
p41
g31
sS'City'
p42
S''
p43
sS'DisplayName'
p44
g43
sS'UniFriend'
p45
I0
sS'OwnerUin'
p46
I0
sS'MemberList'
p47
g34
(g35
g36
(lp48
tp49
Rp50
I1
bsS'PYQuanPin'
p51
V
p52
sS'RemarkPYInitial'
p53
g52
sS'Uin'
p54
I200509586
sS'AppAccountFlag'
p55
I0
sS'VerifyFlag'
p56
I0
sS'Province'
p57
g43
sS'KeyWord'
p58
g43
sS'RemarkName'
p59
g52
sS'PYInitial'
p60
g52
sS'ChatRoomId'
p61
I0
sS'HideInputBarFlag'
p62
I0
sVHeadImgFlag
p63
I1
sS'EncryChatRoomId'
p64
g43
sS'AttrStatus'
p65
I0
sS'SnsFlag'
p66
I0
sS'MemberCount'
p67
I0
sVWebWxPluginSwitch
p68
I0
sS'Alias'
p69
g43
sS'Signature'
p70
g52
sS'ContactFlag'
p71
I0
sS'NickName'
p72
V\u673a\u5668\u4eba\u5c0f\u80d6
p73
sS'RemarkPYQuanPin'
p74
g52
sS'HeadImgUrl'
p75
V/cgi-bin/mmwebwx-bin/webwxgeticon?seq=1770270605&username=@7df888f0ee6d2bd48bbc21b53880c9f3642146dd7dd6a9d25b3f10f12889acc3&skey=@crypt_49509d7f_f3549e09c174408522ef186ac2b6b55e
p76
sS'Sex'
p77
I1
sS'StarFriend'
p78
I0
sS'Statues'
p79
I0
stp80
Rp81
I1
bag34
(g38
g39
(dp82
VUserName
p83
V@8d6534e4bd040c2cee2f4e38e36b3b12
p84
sVCity
p85
g52
sVSnsFlag
p86
I17
sVDisplayName
p87
g52
sVUniFriend
p88
I0
sVMemberCount
p89
I0
sVOwnerUin
p90
I0
sVMemberList
p91
g50
sVAlias
p92
g52
sVPYQuanPin
p93
VCXY
p94
sVSignature
p95
V\u7b49\u98ce\u4e5f\u7b49\u4f60\u3002
p96
sVRemarkPYInitial
p97
VXYKTX
p98
sVContactFlag
p99
I1
sVUin
p100
I0
sVNickName
p101
V-C_XY-
p102
sVAppAccountFlag
p103
I0
sVVerifyFlag
p104
I0
sVRemarkPYQuanPin
p105
Vxinyongkataoxian
p106
sVHeadImgUrl
p107
V/cgi-bin/mmwebwx-bin/webwxgeticon?seq=673710066&username=@8d6534e4bd040c2cee2f4e38e36b3b12&skey=@crypt_49509d7f_f3549e09c174408522ef186ac2b6b55e
p108
sVKeyWord
p109
Vwux
p110
sVProvince
p111
g52
sVPYInitial
p112
VCXY
p113
sVRemarkName
p114
V\u4fe1\u7528\u5361\u5957\u73b0
p115
sVIsOwner
p116
I0
sVSex
p117
I2
sVStarFriend
p118
I0
sVHideInputBarFlag
p119
I0
sVChatRoomId
p120
I0
sVEncryChatRoomId
p121
g52
sVAttrStatus
p122
I111719
sVStatues
p123
I0
stp124
Rp125
I1
bag34
(g38
g39
(dp126
VUserName
p127
V@ab566955e21c4c14bbe3b5afb1220f619b23acb3a0cca855bdf67a11322733a4
p128
sVCity
p129
V\u53a6\u95e8
p130
sVSnsFlag
p131
I1
sVDisplayName
p132
g52
sVUniFriend
p133
I0
sVMemberCount
p134
I0
sVOwnerUin
p135
I0
sVMemberList
p136
g50
sVAlias
p137
g52
sVPYQuanPin
p138
Vfeisehuiyi
p139
sVSignature
p140
V\u505a\u4e2a\u6e29\u67d4\uff0c\u9738\u6c14\u7684\uff0c\u6dd1\u5973\U0001f643\U0001f643
p141
sVRemarkPYInitial
p142
g52
sVContactFlag
p143
I1
sVUin
p144
I0
sVNickName
p145
V\u83f2\u8272\u56de\u5fc6
p146
sVAppAccountFlag
p147
I0
sVVerifyFlag
p148
I0
sVRemarkPYQuanPin
p149
g52
sVHeadImgUrl
p150
V/cgi-bin/mmwebwx-bin/webwxgeticon?seq=673715277&username=@ab566955e21c4c14bbe3b5afb1220f619b23acb3a0cca855bdf67a11322733a4&skey=@crypt_49509d7f_f3549e09c174408522ef186ac2b6b55e
p151
sVKeyWord
p152
g52
sVProvince
p153
V\u798f\u5efa
p154
sVPYInitial
p155
VFSHY
p156
sVRemarkName
p157
g52
sVIsOwner
p158
I0
sVSex
p159
I2
sVStarFriend
p160
I0
sVHideInputBarFlag
p161
I0
sVChatRoomId
p162
I0
sVEncryChatRoomId
p163
g52
sVAttrStatus
p164
I102589
sVStatues
p165
I0
stp166
Rp167
I1
bag34
(g38
g39
(dp168
VUserName
p169
V@548a86315a7dc57578f2e62bf465992c15e41d931a6965badd580786c5122039
p170
sVCity
p171
g52
sVSnsFlag
p172
I1
sVDisplayName
p173
g52
sVUniFriend
p174
I0
sVMemberCount
p175
I0
sVOwnerUin
p176
I0
sVMemberList
p177
g50
sVAlias
p178
g52
sVPYQuanPin
p179
VMolly
p180
sVSignature
p181
V\u5c3d\u4eba\u4e8b\u542c\u5929\u610f\uff01
p182
sVRemarkPYInitial
p183
g52
sVContactFlag
p184
I1
sVUin
p185
I0
sVNickName
p186
VMolly
p187
sVAppAccountFlag
p188
I0
sVVerifyFlag
p189
I0
sVRemarkPYQuanPin
p190
g52
sVHeadImgUrl
p191
V/cgi-bin/mmwebwx-bin/webwxgeticon?seq=673715616&username=@548a86315a7dc57578f2e62bf465992c15e41d931a6965badd580786c5122039&skey=@crypt_49509d7f_f3549e09c174408522ef186ac2b6b55e
p192
sVKeyWord
p193
g52
sVProvince
p194
g52
sVPYInitial
p195
VMOLLY
p196
sVRemarkName
p197
g52
sVIsOwner
p198
I0
sVSex
p199
I2
sVStarFriend
p200
I0
sVHideInputBarFlag
p201
I0
sVChatRoomId
p202
I0
sVEncryChatRoomId
p203
g52
sVAttrStatus
p204
I234083
sVStatues
p205
I0
stp206
Rp207
I1
bag34
(g38
g39
(dp208
VUserName
p209
V@d7a205dbe801561cbfb4b947f6d741d7059680d770c873510d72d4e6eba1e16f
p210
sVCity
p211
g52
sVSnsFlag
p212
I1
sVDisplayName
p213
g52
sVUniFriend
p214
I0
sVMemberCount
p215
I0
sVOwnerUin
p216
I0
sVMemberList
p217
g50
sVAlias
p218
g52
sVPYQuanPin
p219
Vchuanguoliushui
p220
sVSignature
p221
V\u53ea\u4e3a\u4e00\u4eba\u7559
p222
sVRemarkPYInitial
p223
g52
sVContactFlag
p224
I1
sVUin
p225
I0
sVNickName
p226
V\u7a7f\u8fc7\u6d41\u6c34
p227
sVAppAccountFlag
p228
I0
sVVerifyFlag
p229
I0
sVRemarkPYQuanPin
p230
g52
sVHeadImgUrl
p231
V/cgi-bin/mmwebwx-bin/webwxgeticon?seq=673714836&username=@d7a205dbe801561cbfb4b947f6d741d7059680d770c873510d72d4e6eba1e16f&skey=@crypt_49509d7f_f3549e09c174408522ef186ac2b6b55e
p232
sVKeyWord
p233
g52
sVProvince
p234
VKowloon City
p235
sVPYInitial
p236
VCGLS
p237
sVRemarkName
p238
g52
sVIsOwner
p239
I0
sVSex
p240
I1
sVStarFriend
p241
I0
sVHideInputBarFlag
p242
I0
sVChatRoomId
p243
I0
sVEncryChatRoomId
p244
g52
sVAttrStatus
p245
I33690405
sVStatues
p246
I0
stp247
Rp248
I1
bag34
(g38
g39
(dp249
VUserName
p250
V@a4a90975a40074ebca1c5b6e50d72eb7416b8d1a85d35efcea3bfc931aab2752
p251
sVCity
p252
V\u6d66\u4e1c\u65b0\u533a
p253
sVSnsFlag
p254
I1
sVDisplayName
p255
g52
sVUniFriend
p256
I0
sVMemberCount
p257
I0
sVOwnerUin
p258
I0
sVMemberList
p259
g50
sVAlias
p260
g52
sVPYQuanPin
p261
Vyannispanclassemojiemoji1f485span?
p262
sVSignature
p263
V\u4f60\u82e5\u76db\u5f00\uff0c\u8774\u8776\u81ea\u6765\u2026\u2026
p264
sVRemarkPYInitial
p265
g52
sVContactFlag
p266
I1
sVUin
p267
I0
sVNickName
p268
V\u71d5\u59ae\U0001f485\U0001f3fb
p269
sVAppAccountFlag
p270
I0
sVVerifyFlag
p271
I0
sVRemarkPYQuanPin
p272
g52
sVHeadImgUrl
p273
V/cgi-bin/mmwebwx-bin/webwxgeticon?seq=673715724&username=@a4a90975a40074ebca1c5b6e50d72eb7416b8d1a85d35efcea3bfc931aab2752&skey=@crypt_49509d7f_f3549e09c174408522ef186ac2b6b55e
p274
sVKeyWord
p275
g52
sVProvince
p276
V\u4e0a\u6d77
p277
sVPYInitial
p278
VYNSPANCLASSEMOJIEMOJI1F485SPAN?
p279
sVRemarkName
p280
g52
sVIsOwner
p281
I0
sVSex
p282
I2
sVStarFriend
p283
I0
sVHideInputBarFlag
p284
I0
sVChatRoomId
p285
I0
sVEncryChatRoomId
p286
g52
sVAttrStatus
p287
I103205
sVStatues
p288
I0
stp289
Rp290
I1
bag34
(g38
g39
(dp291
VUserName
p292
V@f22173b2751e25990a3816e15b388cb413e312596a353535ff47d0fa5c99614d
p293
sVCity
p294
g52
sVSnsFlag
p295
I1
sVDisplayName
p296
g52
sVUniFriend
p297
I0
sVMemberCount
p298
I0
sVOwnerUin
p299
I0
sVMemberList
p300
g50
sVAlias
p301
g52
sVPYQuanPin
p302
Vmeiniang
p303
sVSignature
p304
g52
sVRemarkPYInitial
p305
g52
sVContactFlag
p306
I3
sVUin
p307
I0
sVNickName
p308
V\u5a9a\u5a18
p309
sVAppAccountFlag
p310
I0
sVVerifyFlag
p311
I0
sVRemarkPYQuanPin
p312
g52
sVHeadImgUrl
p313
V/cgi-bin/mmwebwx-bin/webwxgeticon?seq=673716400&username=@f22173b2751e25990a3816e15b388cb413e312596a353535ff47d0fa5c99614d&skey=@crypt_49509d7f_f3549e09c174408522ef186ac2b6b55e
p314
sVKeyWord
p315
g52
sVProvince
p316
g52
sVPYInitial
p317
VMN
p318
sVRemarkName
p319
g52
sVIsOwner
p320
I0
sVSex
p321
I1
sVStarFriend
p322
I0
sVHideInputBarFlag
p323
I0
sVChatRoomId
p324
I0
sVEncryChatRoomId
p325
g52
sVAttrStatus
p326
I234081
sVStatues
p327
I0
stp328
Rp329
I1
bag34
(g38
g39
(dp330
VUserName
p331
V@921b3c9ec5ef7dda657b7246f4e2796a3806841fa11806ea9861970368e4e636
p332
sVCity
p333
g52
sVSnsFlag
p334
I1
sVDisplayName
p335
g52
sVUniFriend
p336
I0
sVMemberCount
p337
I0
sVOwnerUin
p338
I0
sVMemberList
p339
g50
sVAlias
p340
g52
sVPYQuanPin
p341
VAkuaidiyouhuiquanbudingjigengxin
p342
sVSignature
p343
V\u963f\u8fea\u8fbe\u65af\u7ae5\u88c5  \u65ad\u7801\u7279\u4ef7
p344
sVRemarkPYInitial
p345
g52
sVContactFlag
p346
I3
sVUin
p347
I0
sVNickName
p348
VA\u5feb\u9012\u4f18\u60e0\u5238 \u4e0d\u5b9a\u671f\u66f4\u65b0
p349
sVAppAccountFlag
p350
I0
sVVerifyFlag
p351
I0
sVRemarkPYQuanPin
p352
g52
sVHeadImgUrl
p353
V/cgi-bin/mmwebwx-bin/webwxgeticon?seq=673716439&username=@921b3c9ec5ef7dda657b7246f4e2796a3806841fa11806ea9861970368e4e636&skey=@crypt_49509d7f_f3549e09c174408522ef186ac2b6b55e
p354
sVKeyWord
p355
g52
sVProvince
p356
g52
sVPYInitial
p357
VAKDYHQBDJGX
p358
sVRemarkName
p359
g52
sVIsOwner
p360
I0
sVSex
p361
I1
sVStarFriend
p362
I0
sVHideInputBarFlag
p363
I0
sVChatRoomId
p364
I0
sVEncryChatRoomId
p365
g52
sVAttrStatus
p366
I135205
sVStatues
p367
I0
stp368
Rp369
I1
bag34
(g38
g39
(dp370
VUserName
p371
V@1ea75e2230a3844cf1b80eedbaf93641
p372
sVCity
p373
V\u4e1c\u57ce
p374
sVSnsFlag
p375
I17
sVDisplayName
p376
g52
sVUniFriend
p377
I0
sVMemberCount
p378
I0
sVOwnerUin
p379
I0
sVMemberList
p380
g50
sVAlias
p381
g52
sVPYQuanPin
p382
Vpengcheng
p383
sVSignature
p384
V\u672a\u6765\u4e0d\u8fce\uff0c\u5f53\u65f6\u4e0d\u6742\uff0c\u8fc7\u5f80\u4e0d\u604b
p385
sVRemarkPYInitial
p386
g52
sVContactFlag
p387
I3
sVUin
p388
I0
sVNickName
p389
V\u9e4f\u7a0b
p390
sVAppAccountFlag
p391
I0
sVVerifyFlag
p392
I0
sVRemarkPYQuanPin
p393
g52
sVHeadImgUrl
p394
V/cgi-bin/mmwebwx-bin/webwxgeticon?seq=669180196&username=@1ea75e2230a3844cf1b80eedbaf93641&skey=@crypt_49509d7f_f3549e09c174408522ef186ac2b6b55e
p395
sVKeyWord
p396
Vwar
p397
sVProvince
p398
V\u5317\u4eac
p399
sVPYInitial
p400
VPC
p401
sVRemarkName
p402
g52
sVIsOwner
p403
I0
sVSex
p404
I1
sVStarFriend
p405
I0
sVHideInputBarFlag
p406
I0
sVChatRoomId
p407
I0
sVEncryChatRoomId
p408
g52
sVAttrStatus
p409
I33691111
sVStatues
p410
I0
stp411
Rp412
I1
bag34
(g38
g39
(dp413
VUserName
p414
V@47c97162d6e22382308bf9f2a8d25ba59c7e462ff5d742fe1a70cae2893293f0
p415
sVCity
p416
V\u90af\u90f8
p417
sVSnsFlag
p418
I1
sVDisplayName
p419
g52
sVUniFriend
p420
I0
sVMemberCount
p421
I0
sVOwnerUin
p422
I0
sVMemberList
p423
g50
sVAlias
p424
g52
sVPYQuanPin
p425
Vniming
p426
sVSignature
p427
V<span class="emoji emoji1f63a"></span> <span class="emoji emoji1f63a"></span> <span class="emoji emoji1f63a"></span> <span class="emoji emoji1f63a"></span> <span class="emoji emoji1f63a"></span>
p428
sVRemarkPYInitial
p429
g52
sVContactFlag
p430
I3
sVUin
p431
I0
sVNickName
p432
V\u533f\u540d
p433
sVAppAccountFlag
p434
I0
sVVerifyFlag
p435
I0
sVRemarkPYQuanPin
p436
g52
sVHeadImgUrl
p437
V/cgi-bin/mmwebwx-bin/webwxgeticon?seq=673718011&username=@47c97162d6e22382308bf9f2a8d25ba59c7e462ff5d742fe1a70cae2893293f0&skey=@crypt_49509d7f_f3549e09c174408522ef186ac2b6b55e
p438
sVKeyWord
p439
g52
sVProvince
p440
V\u6cb3\u5317
p441
sVPYInitial
p442
VNM
p443
sVRemarkName
p444
g52
sVIsOwner
p445
I0
sVSex
p446
I1
sVStarFriend
p447
I0
sVHideInputBarFlag
p448
I0
sVChatRoomId
p449
I0
sVEncryChatRoomId
p450
g52
sVAttrStatus
p451
I33657149
sVStatues
p452
I0
stp453
Rp454
I1
bag34
(g38
g39
(dp455
VUserName
p456
V@f67532dca6b79d29df9b7c7ff2f9ec2bcd8d13e02ddfe89bd549d78c4bb29815
p457
sVCity
p458
V\u90af\u90f8
p459
sVSnsFlag
p460
I1
sVDisplayName
p461
g52
sVUniFriend
p462
I0
sVMemberCount
p463
I0
sVOwnerUin
p464
I0
sVMemberList
p465
g50
sVAlias
p466
g52
sVPYQuanPin
p467
Vyuyuchaojikeaispanclassemojiemoji1f495span
p468
sVSignature
p469
V\u5b87\u5b87\u4e0d\u6536\u4e8c\u624b\u5783\u573e\u3002
p470
sVRemarkPYInitial
p471
g52
sVContactFlag
p472
I3
sVUin
p473
I0
sVNickName
p474
V\u5b87\u5b87\u7092\u9e21\u53ef\u7231\U0001f495
p475
sVAppAccountFlag
p476
I0
sVVerifyFlag
p477
I0
sVRemarkPYQuanPin
p478
g52
sVHeadImgUrl
p479
V/cgi-bin/mmwebwx-bin/webwxgeticon?seq=673718624&username=@f67532dca6b79d29df9b7c7ff2f9ec2bcd8d13e02ddfe89bd549d78c4bb29815&skey=@crypt_49509d7f_f3549e09c174408522ef186ac2b6b55e
p480
sVKeyWord
p481
g52
sVProvince
p482
V\u6cb3\u5317
p483
sVPYInitial
p484
VYYCJKASPANCLASSEMOJIEMOJI1F495SPAN
p485
sVRemarkName
p486
g52
sVIsOwner
p487
I0
sVSex
p488
I2
sVStarFriend
p489
I0
sVHideInputBarFlag
p490
I0
sVChatRoomId
p491
I0
sVEncryChatRoomId
p492
g52
sVAttrStatus
p493
I4645
sVStatues
p494
I0
stp495
Rp496
I1
bag34
(g38
g39
(dp497
VUserName
p498
V@5938f7c93aee16ee164042bf47c0e14a
p499
sVCity
p500
V\u65e0\u9521
p501
sVSnsFlag
p502
I177
sVDisplayName
p503
g52
sVUniFriend
p504
I0
sVMemberCount
p505
I0
sVOwnerUin
p506
I0
sVMemberList
p507
g50
sVAlias
p508
g52
sVPYQuanPin
p509
VjietouebaZip
p510
sVSignature
p511
VStreet Bully\u521b\u59cb\u4eba\u3001\u72d7\u4e0d\u61c2\u521b\u59cb\u4eba\uff0c\u72d7\u884c\u4e3a\u5b66\u3001\u5fc3\u7406\u5b66\u7814\u7a76\u8005
p512
sVRemarkPYInitial
p513
g52
sVContactFlag
p514
I1
sVUin
p515
I0
sVNickName
p516
V\u8857\u982d\u60e1\u9738\u3010Zip\u3011
p517
sVAppAccountFlag
p518
I0
sVVerifyFlag
p519
I0
sVRemarkPYQuanPin
p520
g52
sVHeadImgUrl
p521
V/cgi-bin/mmwebwx-bin/webwxgeticon?seq=673713460&username=@5938f7c93aee16ee164042bf47c0e14a&skey=@crypt_49509d7f_f3549e09c174408522ef186ac2b6b55e
p522
sVKeyWord
p523
Vtr8
p524
sVProvince
p525
V\u6c5f\u82cf
p526
sVPYInitial
p527
VJTEBZIP
p528
sVRemarkName
p529
g52
sVIsOwner
p530
I0
sVSex
p531
I1
sVStarFriend
p532
I0
sVHideInputBarFlag
p533
I0
sVChatRoomId
p534
I0
sVEncryChatRoomId
p535
g52
sVAttrStatus
p536
I2147564455
sVStatues
p537
I0
stp538
Rp539
I1
bag34
(g38
g39
(dp540
VUserName
p541
V@9e2fda1241e4caac670b1fb55845a8253c2fce4679229249be33d0c183bd6db9
p542
sVCity
p543
V\u5305\u5934
p544
sVSnsFlag
p545
I1
sVDisplayName
p546
g52
sVUniFriend
p547
I0
sVMemberCount
p548
I0
sVOwnerUin
p549
I0
sVMemberList
p550
g50
sVAlias
p551
g52
sVPYQuanPin
p552
Vxiaoqing
p553
sVSignature
p554
g52
sVRemarkPYInitial
p555
g52
sVContactFlag
p556
I3
sVUin
p557
I0
sVNickName
p558
V\u5c0f\u9752
p559
sVAppAccountFlag
p560
I0
sVVerifyFlag
p561
I0
sVRemarkPYQuanPin
p562
g52
sVHeadImgUrl
p563
V/cgi-bin/mmwebwx-bin/webwxgeticon?seq=673718930&username=@9e2fda1241e4caac670b1fb55845a8253c2fce4679229249be33d0c183bd6db9&skey=@crypt_49509d7f_f3549e09c174408522ef186ac2b6b55e
p564
sVKeyWord
p565
g52
sVProvince
p566
V\u5185\u8499\u53e4
p567
sVPYInitial
p568
VXQ
p569
sVRemarkName
p570
g52
sVIsOwner
p571
I0
sVSex
p572
I1
sVStarFriend
p573
I0
sVHideInputBarFlag
p574
I0
sVChatRoomId
p575
I0
sVEncryChatRoomId
p576
g52
sVAttrStatus
p577
I234109
sVStatues
p578
I0
stp579
Rp580
I1
bag34
(g38
g39
(dp581
VUserName
p582
V@a262ea5334d630501a23f92f70e1858f82fbcd26243b5ae0045568767f6277ec
p583
sVCity
p584
V\u6df1\u5733
p585
sVSnsFlag
p586
I49
sVDisplayName
p587
g52
sVUniFriend
p588
I0
sVMemberCount
p589
I0
sVOwnerUin
p590
I0
sVMemberList
p591
g50
sVAlias
p592
g52
sVPYQuanPin
p593
Vfanjiamianspanclassemojiemoji1f345span
p594
sVSignature
p595
V    
p596
sVRemarkPYInitial
p597
g52
sVContactFlag
p598
I1
sVUin
p599
I0
sVNickName
p600
V\u756a\u8304\u9762\U0001f345
p601
sVAppAccountFlag
p602
I0
sVVerifyFlag
p603
I0
sVRemarkPYQuanPin
p604
g52
sVHeadImgUrl
p605
V/cgi-bin/mmwebwx-bin/webwxgeticon?seq=673718173&username=@a262ea5334d630501a23f92f70e1858f82fbcd26243b5ae0045568767f6277ec&skey=@crypt_49509d7f_f3549e09c174408522ef186ac2b6b55e
p606
sVKeyWord
p607
g52
sVProvince
p608
V\u5e7f\u4e1c
p609
sVPYInitial
p610
VFJMSPANCLASSEMOJIEMOJI1F345SPAN
p611
sVRemarkName
p612
g52
sVIsOwner
p613
I0
sVSex
p614
I1
sVStarFriend
p615
I0
sVHideInputBarFlag
p616
I0
sVChatRoomId
p617
I0
sVEncryChatRoomId
p618
g52
sVAttrStatus
p619
I100539
sVStatues
p620
I0
stp621
Rp622
I1
bag34
(g38
g39
(dp623
VUserName
p624
V@7b791d3f8d4b21ebfe6d556e591d2d321c4b8ddcff26fac60bb325210f237f5d
p625
sVCity
p626
VOthers
p627
sVSnsFlag
p628
I1
sVDisplayName
p629
g52
sVUniFriend
p630
I0
sVMemberCount
p631
I0
sVOwnerUin
p632
I0
sVMemberList
p633
g50
sVAlias
p634
g52
sVPYQuanPin
p635
Vabbyhuanerspanclassemojiemoji1f48bspanspanclassemojiemoji1f6baspan
p636
sVSignature
p637
V\u8ba9\u8721\u70db\u4ee3\u66ff\u6240\u6709\u706f \u8ba9\u97f3\u4e50\u4ee3\u66ff\u8bdd\u8bed\u58f0 \u6b64\u65f6\u65e0\u58f0\u80dc\u6709\u58f0
p638
sVRemarkPYInitial
p639
g52
sVContactFlag
p640
I1
sVUin
p641
I0
sVNickName
p642
Vabby\u6b22\u513f\U0001f48b\U0001f6ba
p643
sVAppAccountFlag
p644
I0
sVVerifyFlag
p645
I0
sVRemarkPYQuanPin
p646
g52
sVHeadImgUrl
p647
V/cgi-bin/mmwebwx-bin/webwxgeticon?seq=673718560&username=@7b791d3f8d4b21ebfe6d556e591d2d321c4b8ddcff26fac60bb325210f237f5d&skey=@crypt_49509d7f_f3549e09c174408522ef186ac2b6b55e
p648
sVKeyWord
p649
g52
sVProvince
p650
VKuala Lumpur
p651
sVPYInitial
p652
VABBYHESPANCLASSEMOJIEMOJI1F48BSPANSPANCLASSEMOJIEMOJI1F6BASPAN
p653
sVRemarkName
p654
g52
sVIsOwner
p655
I0
sVSex
p656
I2
sVStarFriend
p657
I0
sVHideInputBarFlag
p658
I0
sVChatRoomId
p659
I0
sVEncryChatRoomId
p660
g52
sVAttrStatus
p661
I33656865
sVStatues
p662
I0
stp663
Rp664
I1
batp665
Rp666
I1
bsS'chatroomList'
p667
g34
(g35
g36
(lp668
g34
(citchat.storage.templates
Chatroom
p669
g39
(dp670
VUserName
p671
V@@fd150c9935f135ab78f0e4932d507c7a95b4796d1b6abe8a1c79caaa59ca6f3d
p672
sVCity
p673
g52
sVDisplayName
p674
g52
sVUniFriend
p675
I0
sS'Self'
p676
g34
(g38
g39
(dp677
g41
g31
sg42
g43
sg44
g43
sg45
I0
sg46
I0
sg47
g34
(g35
g36
(lp678
tp679
Rp680
I1
bsg51
g52
sg53
g52
sg54
I200509586
sg55
I0
sg56
I0
sg57
g43
sg58
g43
sg59
g52
sg60
g52
sg61
I0
sg62
I0
sg63
I1
sg64
g43
sg65
I0
sg66
I0
sg67
I0
sg68
I0
sg69
g43
sg70
g52
sg71
I0
sg72
g73
sg74
g52
sg75
g76
sg77
I1
sg78
I0
sg79
I0
stp681
Rp682
I1
bsVMemberList
p683
g34
(g35
g36
(lp684
tp685
Rp686
I1
bsVPYQuanPin
p687
g52
sVRemarkPYInitial
p688
g52
sVSex
p689
I0
sVAppAccountFlag
p690
I0
sVVerifyFlag
p691
I0
sVProvince
p692
g52
sVKeyWord
p693
g52
sVRemarkName
p694
g52
sVPYInitial
p695
g52
sVIsOwner
p696
I0
sVChatRoomId
p697
I0
sVHideInputBarFlag
p698
I0
sVEncryChatRoomId
p699
g52
sVAttrStatus
p700
I0
sVSnsFlag
p701
I0
sVMemberCount
p702
I477
sVOwnerUin
p703
I0
sVAlias
p704
g52
sS'IsAdmin'
p705
NsVSignature
p706
g52
sVContactFlag
p707
I0
sVNickName
p708
VRedis\u6280\u672f\u4ea4\u6d41\u7fa42
p709
sVRemarkPYQuanPin
p710
g52
sVHeadImgUrl
p711
V/cgi-bin/mmwebwx-bin/webwxgetheadimg?seq=0&username=@@fd150c9935f135ab78f0e4932d507c7a95b4796d1b6abe8a1c79caaa59ca6f3d&skey=@crypt_49509d7f_f3549e09c174408522ef186ac2b6b55e
p712
sVUin
p713
I0
sVStarFriend
p714
I0
sVStatues
p715
I1
stp716
Rp717
I1
bag34
(g669
g39
(dp718
VUserName
p719
V@@f05be6085d1796e21fd622ee3dd7cb39a11b3a01f9c228ce8282a1b680d6629b
p720
sVCity
p721
g52
sVDisplayName
p722
g52
sVUniFriend
p723
I0
sg676
g34
(g38
g39
(dp724
g41
g31
sg42
g43
sg44
g43
sg45
I0
sg46
I0
sg47
g34
(g35
g36
(lp725
tp726
Rp727
I1
bsg51
g52
sg53
g52
sg54
I200509586
sg55
I0
sg56
I0
sg57
g43
sg58
g43
sg59
g52
sg60
g52
sg61
I0
sg62
I0
sg63
I1
sg64
g43
sg65
I0
sg66
I0
sg67
I0
sg68
I0
sg69
g43
sg70
g52
sg71
I0
sg72
g73
sg74
g52
sg75
g76
sg77
I1
sg78
I0
sg79
I0
stp728
Rp729
I1
bsVMemberList
p730
g34
(g35
g36
(lp731
tp732
Rp733
I1
bsVPYQuanPin
p734
g52
sVRemarkPYInitial
p735
g52
sVSex
p736
I0
sVAppAccountFlag
p737
I0
sVVerifyFlag
p738
I0
sVProvince
p739
g52
sVKeyWord
p740
g52
sVRemarkName
p741
g52
sVPYInitial
p742
g52
sVIsOwner
p743
I0
sVChatRoomId
p744
I0
sVHideInputBarFlag
p745
I0
sVEncryChatRoomId
p746
g52
sVAttrStatus
p747
I0
sVSnsFlag
p748
I0
sVMemberCount
p749
I498
sVOwnerUin
p750
I0
sVAlias
p751
g52
sg705
NsVSignature
p752
g52
sVContactFlag
p753
I2
sVNickName
p754
VRedis\u6280\u672f\u4ea4\u6d41\u7fa4
p755
sVRemarkPYQuanPin
p756
g52
sVHeadImgUrl
p757
V/cgi-bin/mmwebwx-bin/webwxgetheadimg?seq=673719058&username=@@f05be6085d1796e21fd622ee3dd7cb39a11b3a01f9c228ce8282a1b680d6629b&skey=@crypt_49509d7f_f3549e09c174408522ef186ac2b6b55e
p758
sVUin
p759
I0
sVStarFriend
p760
I0
sVStatues
p761
I1
stp762
Rp763
I1
bag34
(g669
g39
(dp764
VUserName
p765
V@7df888f0ee6d2bd48bbc21b53880c9f3642146dd7dd6a9d25b3f10f12889acc3
p766
sVCity
p767
g52
sVDisplayName
p768
g52
sVUniFriend
p769
I0
sg676
g34
(g38
g39
(dp770
g41
g31
sg42
g43
sg44
g43
sg45
I0
sg46
I0
sg47
g34
(g35
g36
(lp771
tp772
Rp773
I1
bsg51
g52
sg53
g52
sg54
I200509586
sg55
I0
sg56
I0
sg57
g43
sg58
g43
sg59
g52
sg60
g52
sg61
I0
sg62
I0
sg63
I1
sg64
g43
sg65
I0
sg66
I0
sg67
I0
sg68
I0
sg69
g43
sg70
g52
sg71
I0
sg72
g73
sg74
g52
sg75
g76
sg77
I1
sg78
I0
sg79
I0
stp774
Rp775
I1
bsVMemberList
p776
g34
(g35
g36
(lp777
tp778
Rp779
I1
bsVPYQuanPin
p780
g52
sVRemarkPYInitial
p781
g52
sVSex
p782
I0
sVAppAccountFlag
p783
I0
sVVerifyFlag
p784
I0
sVProvince
p785
g52
sVKeyWord
p786
g52
sVRemarkName
p787
g52
sVPYInitial
p788
g52
sVIsOwner
p789
I0
sVChatRoomId
p790
I0
sVHideInputBarFlag
p791
I0
sVEncryChatRoomId
p792
g52
sVAttrStatus
p793
I0
sVSnsFlag
p794
I0
sVMemberCount
p795
I0
sVOwnerUin
p796
I0
sVAlias
p797
g52
sg705
NsVSignature
p798
g52
sVContactFlag
p799
I0
sVNickName
p800
g52
sVRemarkPYQuanPin
p801
g52
sVHeadImgUrl
p802
g52
sVUin
p803
I0
sVStarFriend
p804
I0
sVStatues
p805
I0
stp806
Rp807
I1
batp808
Rp809
I1
bsS'nickName'
p810
g73
sS'mpList'
p811
g34
(g35
g36
(lp812
g34
(citchat.storage.templates
MassivePlatform
p813
g39
(dp814
VUserName
p815
V@a650bdefac85187485f616d113d9da89
p816
sVCity
p817
V\u6df1\u5733
p818
sVSnsFlag
p819
I0
sVDisplayName
p820
g52
sVUniFriend
p821
I0
sVMemberCount
p822
I0
sVOwnerUin
p823
I0
sVMemberList
p824
g50
sVAlias
p825
g52
sVPYQuanPin
p826
Vfengchaozhinenggui
p827
sVSignature
p828
V\u5173\u6ce8\u4e30\u5de2\u670d\u52a1\u53f7\uff0c\u7b2c\u4e00\u65f6\u95f4\u63a5\u6536\u60a8\u7684\u5feb\u4ef6\u7269\u6d41\u63d0\u9192\uff01\u63d0\u4f9b24\u5c0f\u65f6\u81ea\u52a9\u5bc4\u5feb\u9012\u3001\u7535\u5546\u8d2d\u7269\u3001\u6682\u5b58\u7269\u54c1\u3001\u5a92\u4f53\u4e92\u52a8\u7b49\u4e00\u7ad9\u5f0f\u751f\u6d3b\u670d\u52a1\uff0c\u8ba9\u751f\u6d3b\u66f4\u7b80\u5355\uff01
p829
sVRemarkPYInitial
p830
g52
sVContactFlag
p831
I3
sVUin
p832
I0
sVNickName
p833
V\u4e30\u5de2\u667a\u80fd\u67dc
p834
sVAppAccountFlag
p835
I0
sVVerifyFlag
p836
I24
sVRemarkPYQuanPin
p837
g52
sVHeadImgUrl
p838
V/cgi-bin/mmwebwx-bin/webwxgeticon?seq=673711737&username=@a650bdefac85187485f616d113d9da89&skey=@crypt_49509d7f_f3549e09c174408522ef186ac2b6b55e
p839
sVKeyWord
p840
Vgh_
p841
sVProvince
p842
V\u5e7f\u4e1c
p843
sVPYInitial
p844
VFCZNG
p845
sVRemarkName
p846
g52
sVIsOwner
p847
I0
sVSex
p848
I0
sVStarFriend
p849
I0
sVHideInputBarFlag
p850
I0
sVChatRoomId
p851
I0
sVEncryChatRoomId
p852
g52
sVAttrStatus
p853
I0
sVStatues
p854
I0
stp855
Rp856
I1
bag34
(g813
g39
(dp857
VUserName
p858
V@fd7d4f51ac8410645ef555dcdb8b0022
p859
sVCity
p860
V\u5e7f\u5dde
p861
sVSnsFlag
p862
I0
sVDisplayName
p863
g52
sVUniFriend
p864
I0
sVMemberCount
p865
I0
sVOwnerUin
p866
I0
sVMemberList
p867
g50
sVAlias
p868
g52
sVPYQuanPin
p869
Vyikushaonv
p870
sVSignature
p871
V\u5173\u6ce8\u4e0d\u4e86\uff1f \u8bf7\u641c\u7d22\u5173\u6ce8\uff1a\u5947\u8da3\u62a5\u793e\u65b0\u53f7
p872
sVRemarkPYInitial
p873
g52
sVContactFlag
p874
I3
sVUin
p875
I0
sVNickName
p876
V\u4e00\u5e93\u5c11\u5973
p877
sVAppAccountFlag
p878
I0
sVVerifyFlag
p879
I8
sVRemarkPYQuanPin
p880
g52
sVHeadImgUrl
p881
V/cgi-bin/mmwebwx-bin/webwxgeticon?seq=673712037&username=@fd7d4f51ac8410645ef555dcdb8b0022&skey=@crypt_49509d7f_f3549e09c174408522ef186ac2b6b55e
p882
sVKeyWord
p883
Vgh_
p884
sVProvince
p885
V\u5e7f\u4e1c
p886
sVPYInitial
p887
VYKSN
p888
sVRemarkName
p889
g52
sVIsOwner
p890
I0
sVSex
p891
I0
sVStarFriend
p892
I0
sVHideInputBarFlag
p893
I0
sVChatRoomId
p894
I0
sVEncryChatRoomId
p895
g52
sVAttrStatus
p896
I0
sVStatues
p897
I0
stp898
Rp899
I1
bag34
(g813
g39
(dp900
VUserName
p901
V@5e4712eada207f4308d86d262d993059
p902
sVCity
p903
V\u6df1\u5733
p904
sVSnsFlag
p905
I0
sVDisplayName
p906
g52
sVUniFriend
p907
I0
sVMemberCount
p908
I0
sVOwnerUin
p909
I0
sVMemberList
p910
g50
sVAlias
p911
g52
sVPYQuanPin
p912
Vqiyueyingku
p913
sVSignature
p914
V\u56e0\u4e3a\u7231\u7535\u5f71\uff0c\u6240\u4ee5\u4e0d\u5bc2\u5bde\u3002
p915
sVRemarkPYInitial
p916
g52
sVContactFlag
p917
I3
sVUin
p918
I0
sVNickName
p919
V\u4e03\u6708\u5f71\u5e93
p920
sVAppAccountFlag
p921
I0
sVVerifyFlag
p922
I24
sVRemarkPYQuanPin
p923
g52
sVHeadImgUrl
p924
V/cgi-bin/mmwebwx-bin/webwxgeticon?seq=673715022&username=@5e4712eada207f4308d86d262d993059&skey=@crypt_49509d7f_f3549e09c174408522ef186ac2b6b55e
p925
sVKeyWord
p926
Vgh_
p927
sVProvince
p928
V\u5e7f\u4e1c
p929
sVPYInitial
p930
VQYYK
p931
sVRemarkName
p932
g52
sVIsOwner
p933
I0
sVSex
p934
I0
sVStarFriend
p935
I0
sVHideInputBarFlag
p936
I0
sVChatRoomId
p937
I0
sVEncryChatRoomId
p938
g52
sVAttrStatus
p939
I0
sVStatues
p940
I0
stp941
Rp942
I1
bag34
(g813
g39
(dp943
VUserName
p944
V@3442e14ef8847fc6bf066bc917b6379d
p945
sVCity
p946
V\u9752\u6d66
p947
sVSnsFlag
p948
I0
sVDisplayName
p949
g52
sVUniFriend
p950
I0
sVMemberCount
p951
I0
sVOwnerUin
p952
I0
sVMemberList
p953
g50
sVAlias
p954
g52
sVPYQuanPin
p955
Vdebangkuaidi
p956
sVSignature
p957
V\u5173\u6ce8\u7acb\u4eab2\u52305\u5143\u4f18\u60e0\u5238\uff0c\u5b9e\u65f6\u83b7\u53d6\u8d27\u7269\u52a8\u6001
p958
sVRemarkPYInitial
p959
g52
sVContactFlag
p960
I3
sVUin
p961
I0
sVNickName
p962
V\u5fb7\u90a6\u5feb\u9012
p963
sVAppAccountFlag
p964
I0
sVVerifyFlag
p965
I24
sVRemarkPYQuanPin
p966
g52
sVHeadImgUrl
p967
V/cgi-bin/mmwebwx-bin/webwxgeticon?seq=673716437&username=@3442e14ef8847fc6bf066bc917b6379d&skey=@crypt_49509d7f_f3549e09c174408522ef186ac2b6b55e
p968
sVKeyWord
p969
Vgh_
p970
sVProvince
p971
V\u4e0a\u6d77
p972
sVPYInitial
p973
VDBKD
p974
sVRemarkName
p975
g52
sVIsOwner
p976
I0
sVSex
p977
I0
sVStarFriend
p978
I0
sVHideInputBarFlag
p979
I0
sVChatRoomId
p980
I0
sVEncryChatRoomId
p981
g52
sVAttrStatus
p982
I0
sVStatues
p983
I0
stp984
Rp985
I1
batp986
Rp987
I1
bssS'loginInfo'
p988
(dp989
S'SyncKey'
p990
(dp991
VCount
p992
I7
sVList
p993
(lp994
(dp995
VVal
p996
I673719134
sVKey
p997
I1
sa(dp998
VVal
p999
I673719140
sVKey
p1000
I2
sa(dp1001
VVal
p1002
I673719137
sVKey
p1003
I3
sa(dp1004
VVal
p1005
I673719089
sVKey
p1006
I11
sa(dp1007
VVal
p1008
I1558427793
sVKey
p1009
I201
sa(dp1010
VVal
p1011
I1558426885
sVKey
p1012
I1000
sa(dp1013
VVal
p1014
I1558423395
sVKey
p1015
I1001
sassS'syncUrl'
p1016
S'https://webpush.wx2.qq.com/cgi-bin/mmwebwx-bin'
p1017
sS'skey'
p1018
V@crypt_49509d7f_f3549e09c174408522ef186ac2b6b55e
p1019
sS'wxuin'
p1020
V200509586
p1021
sS'synckey'
p1022
S'1_673719134|2_673719140|3_673719137|11_673719089|201_1558427793|1000_1558426885|1001_1558423395'
p1023
sS'url'
p1024
Vhttps://wx2.qq.com/cgi-bin/mmwebwx-bin
p1025
sS'pass_ticket'
p1026
VgXdVccTfAU4Jpq9hkU%2FhXnOo9pL8lKtgltZta9RZ4mg%3D
p1027
sS'wxsid'
p1028
V583ICBmrr+OXA2ZA
p1029
sS'InviteStartCount'
p1030
I40
sS'deviceid'
p1031
S'e175161862647527'
p1032
sS'fileUrl'
p1033
S'https://file.wx2.qq.com/cgi-bin/mmwebwx-bin'
p1034
sS'BaseRequest'
p1035
(dp1036
g54
g1021
sS'Skey'
p1037
g1019
sS'DeviceID'
p1038
g1027
sS'Sid'
p1039
g1029
ssS'User'
p1040
g34
(g38
g39
(dp1041
g41
g31
sg42
g43
sg44
g43
sg45
I0
sg47
g50
sg51
g52
sg53
g52
sg77
I1
sg55
I0
sg56
I0
sg57
g43
sg58
g43
sg59
g52
sg60
g52
sg61
I0
sg62
I0
sg63
I1
sg64
g43
sg65
I0
sg68
I0
sg66
I0
sg67
I0
sg46
I0
sg69
g43
sg70
g52
sg71
I0
sg72
g73
sg74
g52
sg75
g76
sg54
I200509586
sg78
I0
sg79
I0
stp1042
Rp1043
I1
bss.