(dp0
S'cookies'
p1
(dp2
S'wxloadtime'
p3
S'1572519917'
p4
sS'webwx_data_ticket'
p5
S'gSdbZ20QPTg4aYo/H1DqNLvr'
p6
sS'wxuin'
p7
S'200509586'
p8
sS'login_frequency'
p9
S'2'
p10
sS'MM_WX_NOTIFY_STATE'
p11
S'1'
p12
sS'MM_WX_SOUND_STATE'
p13
g12
sS'webwx_auth_ticket'
p14
S'CIsBELyO09oGGoABq/pwKtd2emPvqbOdX0JYCRyUKB2qlYLxh1QhYG5FOLIfUH8drPRbAawR9U9YXvLb+sDWBpBVc3D/Ul7S6qGWKPX5pLFWseKQczhqcb3NH1fPvDWC6EF9UupMtL40hGGEuj6HgHd/KF4kIrYCV2x6HrgXYJ1IAwQ+jPWIrn7GY7g='
p15
sS'last_wxuin'
p16
S'200509586'
p17
sS'webwxuvid'
p18
S'ef16bd48961c4320b665ac296596e4e62612cd35a3b55d1decfecc71b76ece76abf4a7bdfb71b03a30e1dd2ec32ea226'
p19
sS'wxpluginkey'
p20
S'1571142613_expired'
p21
sS'wxsid'
p22
S'OEVB+Jc7lVAzDA4K'
p23
sS'mm_lang'
p24
S'zh_CN'
p25
ssS'version'
p26
S'1.3.10'
p27
sS'storage'
p28
(dp29
S'userName'
p30
V@4a7b19b349e0dafada835b07099d93561904921300d68862abf87824ccd0b102
p31
sS'lastInputUserName'
p32
NsS'memberList'
p33
ccopy_reg
_reconstructor
p34
(citchat.storage.templates
ContactList
p35
c__builtin__
list
p36
(lp37
g34
(citchat.storage.templates
User
p38
c__builtin__
dict
p39
(dp40
S'UserName'
p41
g31
sS'City'
p42
S''
p43
sS'DisplayName'
p44
g43
sS'UniFriend'
p45
I0
sS'OwnerUin'
p46
I0
sS'MemberList'
p47
g34
(g35
g36
(lp48
tp49
Rp50
I1
bsS'PYQuanPin'
p51
V
p52
sS'RemarkPYInitial'
p53
g52
sS'Uin'
p54
I200509586
sS'AppAccountFlag'
p55
I0
sS'VerifyFlag'
p56
I0
sS'Province'
p57
g43
sS'KeyWord'
p58
g43
sS'RemarkName'
p59
g52
sS'PYInitial'
p60
g52
sS'ChatRoomId'
p61
I0
sS'HideInputBarFlag'
p62
I0
sVHeadImgFlag
p63
I1
sS'EncryChatRoomId'
p64
g43
sS'AttrStatus'
p65
I0
sS'SnsFlag'
p66
I0
sS'MemberCount'
p67
I0
sVWebWxPluginSwitch
p68
I0
sS'Alias'
p69
g43
sS'Signature'
p70
g52
sS'ContactFlag'
p71
I0
sS'NickName'
p72
V\u673a\u5668\u4eba\u5c0f\u80d6
p73
sS'RemarkPYQuanPin'
p74
g52
sS'HeadImgUrl'
p75
V/cgi-bin/mmwebwx-bin/webwxgeticon?seq=1864803859&username=@4a7b19b349e0dafada835b07099d93561904921300d68862abf87824ccd0b102&skey=@crypt_49509d7f_89cd3fdc347b28daf685b4c73bbef143
p76
sS'Sex'
p77
I1
sS'StarFriend'
p78
I0
sS'Statues'
p79
I0
stp80
Rp81
I1
bag34
(g38
g39
(dp82
VUserName
p83
V@eff936b1f0bf41c7a3dc2cd4648d355e236701d023f6621b7a00f98e58f20829
p84
sVCity
p85
g52
sVSnsFlag
p86
I1
sVDisplayName
p87
g52
sVUniFriend
p88
I0
sVMemberCount
p89
I0
sVOwnerUin
p90
I0
sVMemberList
p91
g50
sVAlias
p92
g52
sVPYQuanPin
p93
Vqingchen
p94
sVSignature
p95
V\u5907\u7528\u8054\u7cfb\u65b9\u5f0f\uff0cQQ1094506491
p96
sVRemarkPYInitial
p97
g52
sVContactFlag
p98
I3
sVUin
p99
I0
sVNickName
p100
V\u6e05\u5c18
p101
sVAppAccountFlag
p102
I0
sVVerifyFlag
p103
I0
sVRemarkPYQuanPin
p104
g52
sVHeadImgUrl
p105
V/cgi-bin/mmwebwx-bin/webwxgeticon?seq=673728000&username=@eff936b1f0bf41c7a3dc2cd4648d355e236701d023f6621b7a00f98e58f20829&skey=@crypt_49509d7f_89cd3fdc347b28daf685b4c73bbef143
p106
sVKeyWord
p107
g52
sVProvince
p108
g52
sVPYInitial
p109
VQC
p110
sVRemarkName
p111
g52
sVIsOwner
p112
I0
sVSex
p113
I0
sVStarFriend
p114
I0
sVHideInputBarFlag
p115
I0
sVChatRoomId
p116
I0
sVEncryChatRoomId
p117
g52
sVAttrStatus
p118
I102437
sVStatues
p119
I0
stp120
Rp121
I1
bag34
(g38
g39
(dp122
VUserName
p123
V@dbed2c0e898f7ef2fdccfe5f2f7f30886efee01b13db96451561fb87f1d6b492
p124
sVCity
p125
g52
sVSnsFlag
p126
I1
sVDisplayName
p127
g52
sVUniFriend
p128
I0
sVMemberCount
p129
I0
sVOwnerUin
p130
I0
sVMemberList
p131
g50
sVAlias
p132
g52
sVPYQuanPin
p133
Vchuanguoliushui
p134
sVSignature
p135
V\u53ea\u4e3a\u4e00\u4eba\u7559
p136
sVRemarkPYInitial
p137
g52
sVContactFlag
p138
I1
sVUin
p139
I0
sVNickName
p140
V\u7a7f\u8fc7\u6d41\u6c34
p141
sVAppAccountFlag
p142
I0
sVVerifyFlag
p143
I0
sVRemarkPYQuanPin
p144
g52
sVHeadImgUrl
p145
V/cgi-bin/mmwebwx-bin/webwxgeticon?seq=673714836&username=@dbed2c0e898f7ef2fdccfe5f2f7f30886efee01b13db96451561fb87f1d6b492&skey=@crypt_49509d7f_89cd3fdc347b28daf685b4c73bbef143
p146
sVKeyWord
p147
g52
sVProvince
p148
VKowloon City
p149
sVPYInitial
p150
VCGLS
p151
sVRemarkName
p152
g52
sVIsOwner
p153
I0
sVSex
p154
I1
sVStarFriend
p155
I0
sVHideInputBarFlag
p156
I0
sVChatRoomId
p157
I0
sVEncryChatRoomId
p158
g52
sVAttrStatus
p159
I33690405
sVStatues
p160
I0
stp161
Rp162
I1
bag34
(g38
g39
(dp163
VUserName
p164
V@f30ebefa45cc02ae9e8eadd3bae334647d66f43836b2cbce500019a424e69eaf
p165
sVCity
p166
g52
sVSnsFlag
p167
I1
sVDisplayName
p168
g52
sVUniFriend
p169
I0
sVMemberCount
p170
I0
sVOwnerUin
p171
I0
sVMemberList
p172
g50
sVAlias
p173
g52
sVPYQuanPin
p174
VAkuaidiyouhuiquanbudingjigengxin
p175
sVSignature
p176
V\u963f\u8fea\u8fbe\u65af\u7ae5\u88c5  \u65ad\u7801\u7279\u4ef7
p177
sVRemarkPYInitial
p178
g52
sVContactFlag
p179
I3
sVUin
p180
I0
sVNickName
p181
VA\u5feb\u9012\u4f18\u60e0\u5238 \u4e0d\u5b9a\u671f\u66f4\u65b0
p182
sVAppAccountFlag
p183
I0
sVVerifyFlag
p184
I0
sVRemarkPYQuanPin
p185
g52
sVHeadImgUrl
p186
V/cgi-bin/mmwebwx-bin/webwxgeticon?seq=673716439&username=@f30ebefa45cc02ae9e8eadd3bae334647d66f43836b2cbce500019a424e69eaf&skey=@crypt_49509d7f_89cd3fdc347b28daf685b4c73bbef143
p187
sVKeyWord
p188
g52
sVProvince
p189
g52
sVPYInitial
p190
VAKDYHQBDJGX
p191
sVRemarkName
p192
g52
sVIsOwner
p193
I0
sVSex
p194
I1
sVStarFriend
p195
I0
sVHideInputBarFlag
p196
I0
sVChatRoomId
p197
I0
sVEncryChatRoomId
p198
g52
sVAttrStatus
p199
I135201
sVStatues
p200
I0
stp201
Rp202
I1
bag34
(g38
g39
(dp203
VUserName
p204
V@7fc7fa87794dce22dc24ea558199095bc279cef37fae2394bc4b8efdb0c07c9c
p205
sVCity
p206
g52
sVSnsFlag
p207
I1
sVDisplayName
p208
g52
sVUniFriend
p209
I0
sVMemberCount
p210
I0
sVOwnerUin
p211
I0
sVMemberList
p212
g50
sVAlias
p213
g52
sVPYQuanPin
p214
Vbanjialvyou
p215
sVSignature
p216
g52
sVRemarkPYInitial
p217
g52
sVContactFlag
p218
I3
sVUin
p219
I0
sVNickName
p220
V\u534a\u4ef7\u65c5\u6e38
p221
sVAppAccountFlag
p222
I0
sVVerifyFlag
p223
I0
sVRemarkPYQuanPin
p224
g52
sVHeadImgUrl
p225
V/cgi-bin/mmwebwx-bin/webwxgeticon?seq=673722419&username=@7fc7fa87794dce22dc24ea558199095bc279cef37fae2394bc4b8efdb0c07c9c&skey=@crypt_49509d7f_89cd3fdc347b28daf685b4c73bbef143
p226
sVKeyWord
p227
g52
sVProvince
p228
g52
sVPYInitial
p229
VBJLY
p230
sVRemarkName
p231
g52
sVIsOwner
p232
I0
sVSex
p233
I0
sVStarFriend
p234
I0
sVHideInputBarFlag
p235
I0
sVChatRoomId
p236
I0
sVEncryChatRoomId
p237
g52
sVAttrStatus
p238
I135269
sVStatues
p239
I0
stp240
Rp241
I1
bag34
(g38
g39
(dp242
VUserName
p243
V@c9b000a9069d215143031ad85b33acc6
p244
sVCity
p245
V\u4e1c\u57ce
p246
sVSnsFlag
p247
I17
sVDisplayName
p248
g52
sVUniFriend
p249
I0
sVMemberCount
p250
I0
sVOwnerUin
p251
I0
sVMemberList
p252
g50
sVAlias
p253
g52
sVPYQuanPin
p254
Vpengcheng
p255
sVSignature
p256
V\u672a\u6765\u4e0d\u8fce\uff0c\u5f53\u65f6\u4e0d\u6742\uff0c\u8fc7\u5f80\u4e0d\u604b
p257
sVRemarkPYInitial
p258
g52
sVContactFlag
p259
I3
sVUin
p260
I0
sVNickName
p261
V\u9e4f\u7a0b
p262
sVAppAccountFlag
p263
I0
sVVerifyFlag
p264
I0
sVRemarkPYQuanPin
p265
g52
sVHeadImgUrl
p266
V/cgi-bin/mmwebwx-bin/webwxgeticon?seq=669180196&username=@c9b000a9069d215143031ad85b33acc6&skey=@crypt_49509d7f_89cd3fdc347b28daf685b4c73bbef143
p267
sVKeyWord
p268
Vwar
p269
sVProvince
p270
V\u5317\u4eac
p271
sVPYInitial
p272
VPC
p273
sVRemarkName
p274
g52
sVIsOwner
p275
I0
sVSex
p276
I1
sVStarFriend
p277
I0
sVHideInputBarFlag
p278
I0
sVChatRoomId
p279
I0
sVEncryChatRoomId
p280
g52
sVAttrStatus
p281
I33691111
sVStatues
p282
I0
stp283
Rp284
I1
bag34
(g38
g39
(dp285
VUserName
p286
V@b84cbdc8a12462cd46f6b0e376bdc3f0663599a63b2767d11c10b0353e462f9b
p287
sVCity
p288
g52
sVSnsFlag
p289
I1
sVDisplayName
p290
g52
sVUniFriend
p291
I0
sVMemberCount
p292
I0
sVOwnerUin
p293
I0
sVMemberList
p294
g50
sVAlias
p295
g52
sVPYQuanPin
p296
VMolly
p297
sVSignature
p298
V\u5c3d\u4eba\u4e8b\u542c\u5929\u610f\uff01
p299
sVRemarkPYInitial
p300
g52
sVContactFlag
p301
I1
sVUin
p302
I0
sVNickName
p303
VMolly
p304
sVAppAccountFlag
p305
I0
sVVerifyFlag
p306
I0
sVRemarkPYQuanPin
p307
g52
sVHeadImgUrl
p308
V/cgi-bin/mmwebwx-bin/webwxgeticon?seq=673715616&username=@b84cbdc8a12462cd46f6b0e376bdc3f0663599a63b2767d11c10b0353e462f9b&skey=@crypt_49509d7f_89cd3fdc347b28daf685b4c73bbef143
p309
sVKeyWord
p310
g52
sVProvince
p311
g52
sVPYInitial
p312
VMOLLY
p313
sVRemarkName
p314
g52
sVIsOwner
p315
I0
sVSex
p316
I2
sVStarFriend
p317
I0
sVHideInputBarFlag
p318
I0
sVChatRoomId
p319
I0
sVEncryChatRoomId
p320
g52
sVAttrStatus
p321
I234083
sVStatues
p322
I0
stp323
Rp324
I1
bag34
(g38
g39
(dp325
VUserName
p326
V@cfa6681463fbf05eccab556d49cc28660a202dd3364809893001663b25f9028e
p327
sVCity
p328
V\u5305\u5934
p329
sVSnsFlag
p330
I1
sVDisplayName
p331
g52
sVUniFriend
p332
I0
sVMemberCount
p333
I0
sVOwnerUin
p334
I0
sVMemberList
p335
g50
sVAlias
p336
g52
sVPYQuanPin
p337
Vxiaoqing
p338
sVSignature
p339
g52
sVRemarkPYInitial
p340
g52
sVContactFlag
p341
I1
sVUin
p342
I0
sVNickName
p343
V\u5c0f\u9752
p344
sVAppAccountFlag
p345
I0
sVVerifyFlag
p346
I0
sVRemarkPYQuanPin
p347
g52
sVHeadImgUrl
p348
V/cgi-bin/mmwebwx-bin/webwxgeticon?seq=673718930&username=@cfa6681463fbf05eccab556d49cc28660a202dd3364809893001663b25f9028e&skey=@crypt_49509d7f_89cd3fdc347b28daf685b4c73bbef143
p349
sVKeyWord
p350
g52
sVProvince
p351
V\u5185\u8499\u53e4
p352
sVPYInitial
p353
VXQ
p354
sVRemarkName
p355
g52
sVIsOwner
p356
I0
sVSex
p357
I1
sVStarFriend
p358
I0
sVHideInputBarFlag
p359
I0
sVChatRoomId
p360
I0
sVEncryChatRoomId
p361
g52
sVAttrStatus
p362
I234109
sVStatues
p363
I0
stp364
Rp365
I1
bag34
(g38
g39
(dp366
VUserName
p367
V@726120a64a0efa2f247865e22acf5c2a2c053a2d2662782ddc9155e307bb9d2d
p368
sVCity
p369
V\u90af\u90f8
p370
sVSnsFlag
p371
I1
sVDisplayName
p372
g52
sVUniFriend
p373
I0
sVMemberCount
p374
I0
sVOwnerUin
p375
I0
sVMemberList
p376
g50
sVAlias
p377
g52
sVPYQuanPin
p378
Vningbeisenwu
p379
sVSignature
p380
V\u5b87\u5b87\u4e0d\u6536\u4e8c\u624b\u5783\u573e\u3002
p381
sVRemarkPYInitial
p382
g52
sVContactFlag
p383
I1
sVUin
p384
I0
sVNickName
p385
V\u67e0\u5317\u68ee\u5c4b\u3002
p386
sVAppAccountFlag
p387
I0
sVVerifyFlag
p388
I0
sVRemarkPYQuanPin
p389
g52
sVHeadImgUrl
p390
V/cgi-bin/mmwebwx-bin/webwxgeticon?seq=673721821&username=@726120a64a0efa2f247865e22acf5c2a2c053a2d2662782ddc9155e307bb9d2d&skey=@crypt_49509d7f_89cd3fdc347b28daf685b4c73bbef143
p391
sVKeyWord
p392
g52
sVProvince
p393
V\u6cb3\u5317
p394
sVPYInitial
p395
VNBSW
p396
sVRemarkName
p397
g52
sVIsOwner
p398
I0
sVSex
p399
I2
sVStarFriend
p400
I0
sVHideInputBarFlag
p401
I0
sVChatRoomId
p402
I0
sVEncryChatRoomId
p403
g52
sVAttrStatus
p404
I102945
sVStatues
p405
I0
stp406
Rp407
I1
bag34
(g38
g39
(dp408
VUserName
p409
V@71c1df167e61f2ce8799170f8417af1f
p410
sVCity
p411
V\u65e0\u9521
p412
sVSnsFlag
p413
I177
sVDisplayName
p414
g52
sVUniFriend
p415
I0
sVMemberCount
p416
I0
sVOwnerUin
p417
I0
sVMemberList
p418
g50
sVAlias
p419
g52
sVPYQuanPin
p420
VjietouebaZip
p421
sVSignature
p422
VStreet Bully &amp; \u72d7\u4e0d\u61c2\u521b\u59cb\u4eba
p423
sVRemarkPYInitial
p424
g52
sVContactFlag
p425
I1
sVUin
p426
I0
sVNickName
p427
V\u8857\u982d\u60e1\u9738\u3010Zip\u3011
p428
sVAppAccountFlag
p429
I0
sVVerifyFlag
p430
I0
sVRemarkPYQuanPin
p431
g52
sVHeadImgUrl
p432
V/cgi-bin/mmwebwx-bin/webwxgeticon?seq=673713460&username=@71c1df167e61f2ce8799170f8417af1f&skey=@crypt_49509d7f_89cd3fdc347b28daf685b4c73bbef143
p433
sVKeyWord
p434
Vtr8
p435
sVProvince
p436
V\u6c5f\u82cf
p437
sVPYInitial
p438
VJTEBZIP
p439
sVRemarkName
p440
g52
sVIsOwner
p441
I0
sVSex
p442
I1
sVStarFriend
p443
I0
sVHideInputBarFlag
p444
I0
sVChatRoomId
p445
I0
sVEncryChatRoomId
p446
g52
sVAttrStatus
p447
I2147564455
sVStatues
p448
I0
stp449
Rp450
I1
bag34
(g38
g39
(dp451
VUserName
p452
V@5fed42158b9ecbacfc54ff453c13e8c0
p453
sVCity
p454
g52
sVSnsFlag
p455
I17
sVDisplayName
p456
g52
sVUniFriend
p457
I0
sVMemberCount
p458
I0
sVOwnerUin
p459
I0
sVMemberList
p460
g50
sVAlias
p461
g52
sVPYQuanPin
p462
VCXY
p463
sVSignature
p464
V\u7b49\u98ce\u4e5f\u7b49\u4f60\u3002
p465
sVRemarkPYInitial
p466
VXYKTX
p467
sVContactFlag
p468
I1
sVUin
p469
I0
sVNickName
p470
V-C_XY-
p471
sVAppAccountFlag
p472
I0
sVVerifyFlag
p473
I0
sVRemarkPYQuanPin
p474
Vxinyongkataoxian
p475
sVHeadImgUrl
p476
V/cgi-bin/mmwebwx-bin/webwxgeticon?seq=673710066&username=@5fed42158b9ecbacfc54ff453c13e8c0&skey=@crypt_49509d7f_89cd3fdc347b28daf685b4c73bbef143
p477
sVKeyWord
p478
Vwux
p479
sVProvince
p480
g52
sVPYInitial
p481
VCXY
p482
sVRemarkName
p483
V\u4fe1\u7528\u5361\u5957\u73b0
p484
sVIsOwner
p485
I0
sVSex
p486
I2
sVStarFriend
p487
I0
sVHideInputBarFlag
p488
I0
sVChatRoomId
p489
I0
sVEncryChatRoomId
p490
g52
sVAttrStatus
p491
I111719
sVStatues
p492
I0
stp493
Rp494
I1
bag34
(g38
g39
(dp495
VUserName
p496
V@13b7f135a8d790c05254637a0cc6f5cef06f963787c64f7f26f37b0359401cb4
p497
sVCity
p498
g52
sVSnsFlag
p499
I1
sVDisplayName
p500
g52
sVUniFriend
p501
I0
sVMemberCount
p502
I0
sVOwnerUin
p503
I0
sVMemberList
p504
g50
sVAlias
p505
g52
sVPYQuanPin
p506
Vspanclassemojiemoji1f451spanHoiYispanclassemojiemoji1f451span
p507
sVSignature
p508
V\u4eba\u751f\u5efa\u8bae\uff1aKeep it real<span class="emoji emoji2764"></span>\ufe0f\u2003\u2003\u2003\u2003\u2003\u2003\u2003\u2003 \u2003\u05b4\u05b4\u000a\u05b4
p509
sVRemarkPYInitial
p510
g52
sVContactFlag
p511
I1
sVUin
p512
I0
sVNickName
p513
V\U0001f451HoiYi\U0001f451
p514
sVAppAccountFlag
p515
I0
sVVerifyFlag
p516
I0
sVRemarkPYQuanPin
p517
g52
sVHeadImgUrl
p518
V/cgi-bin/mmwebwx-bin/webwxgeticon?seq=673722685&username=@13b7f135a8d790c05254637a0cc6f5cef06f963787c64f7f26f37b0359401cb4&skey=@crypt_49509d7f_89cd3fdc347b28daf685b4c73bbef143
p519
sVKeyWord
p520
g52
sVProvince
p521
g52
sVPYInitial
p522
VSPANCLASSEMOJIEMOJI1F451SPANHOIYISPANCLASSEMOJIEMOJI1F451SPAN
p523
sVRemarkName
p524
g52
sVIsOwner
p525
I0
sVSex
p526
I0
sVStarFriend
p527
I0
sVHideInputBarFlag
p528
I0
sVChatRoomId
p529
I0
sVEncryChatRoomId
p530
g52
sVAttrStatus
p531
I105253
sVStatues
p532
I0
stp533
Rp534
I1
bag34
(g38
g39
(dp535
VUserName
p536
V@35936a99e15dcf101c84ca5db05aca6c8454dcad16bf5877a838546fbd583ad9
p537
sVCity
p538
g52
sVSnsFlag
p539
I1
sVDisplayName
p540
g52
sVUniFriend
p541
I0
sVMemberCount
p542
I0
sVOwnerUin
p543
I0
sVMemberList
p544
g50
sVAlias
p545
g52
sVPYQuanPin
p546
VSimpler?
p547
sVSignature
p548
VHierarchy
p549
sVRemarkPYInitial
p550
g52
sVContactFlag
p551
I1
sVUin
p552
I0
sVNickName
p553
VSimpler\U0001f408
p554
sVAppAccountFlag
p555
I0
sVVerifyFlag
p556
I0
sVRemarkPYQuanPin
p557
g52
sVHeadImgUrl
p558
V/cgi-bin/mmwebwx-bin/webwxgeticon?seq=673719582&username=@35936a99e15dcf101c84ca5db05aca6c8454dcad16bf5877a838546fbd583ad9&skey=@crypt_49509d7f_89cd3fdc347b28daf685b4c73bbef143
p559
sVKeyWord
p560
g52
sVProvince
p561
g52
sVPYInitial
p562
VSIMPLER?
p563
sVRemarkName
p564
g52
sVIsOwner
p565
I0
sVSex
p566
I2
sVStarFriend
p567
I0
sVHideInputBarFlag
p568
I0
sVChatRoomId
p569
I0
sVEncryChatRoomId
p570
g52
sVAttrStatus
p571
I234277
sVStatues
p572
I0
stp573
Rp574
I1
bag34
(g38
g39
(dp575
VUserName
p576
V@dd64c272479793a33966f6c87fb15c3ca23066e7ffd2b48055f92df4cb117a00
p577
sVCity
p578
g52
sVSnsFlag
p579
I1
sVDisplayName
p580
g52
sVUniFriend
p581
I0
sVMemberCount
p582
I0
sVOwnerUin
p583
I0
sVMemberList
p584
g50
sVAlias
p585
g52
sVPYQuanPin
p586
Vqinghuida2019
p587
sVSignature
p588
V\u8bda\u5fc3\u6b63\u610f\uff0c\u505a\u5fc3\u5e95\u8ba4\u4e3a\u6b63\u786e\u7684\u4e8b
p589
sVRemarkPYInitial
p590
VCLAIRTINDER
p591
sVContactFlag
p592
I1
sVUin
p593
I0
sVNickName
p594
V\u8bf7\u56de\u7b542019
p595
sVAppAccountFlag
p596
I0
sVVerifyFlag
p597
I0
sVRemarkPYQuanPin
p598
VClairTinder
p599
sVHeadImgUrl
p600
V/cgi-bin/mmwebwx-bin/webwxgeticon?seq=673719286&username=@dd64c272479793a33966f6c87fb15c3ca23066e7ffd2b48055f92df4cb117a00&skey=@crypt_49509d7f_89cd3fdc347b28daf685b4c73bbef143
p601
sVKeyWord
p602
g52
sVProvince
p603
g52
sVPYInitial
p604
VQHD2019
p605
sVRemarkName
p606
VClair Tinder
p607
sVIsOwner
p608
I0
sVSex
p609
I0
sVStarFriend
p610
I0
sVHideInputBarFlag
p611
I0
sVChatRoomId
p612
I0
sVEncryChatRoomId
p613
g52
sVAttrStatus
p614
I102693
sVStatues
p615
I0
stp616
Rp617
I1
bag34
(g38
g39
(dp618
VUserName
p619
V@1807682ce7a0c0762bba646156a126e6c6fdffdc22a642c1c1de56e6a5febd84
p620
sVCity
p621
VMelaka
p622
sVSnsFlag
p623
I1
sVDisplayName
p624
g52
sVUniFriend
p625
I0
sVMemberCount
p626
I0
sVOwnerUin
p627
I0
sVMemberList
p628
g50
sVAlias
p629
g52
sVPYQuanPin
p630
VAbbyspanclassemojiemoji1f495spanLee
p631
sVSignature
p632
V\u5982\u82e5\u4f60\u80fd\u501f\u6211\u62e5\u62b1\u4e88\u6211\u6e29\u6696\uff0c\u6211\u613f\u8fd8\u4f60\u4e00\u4e16\u966a\u4f34<span class="emoji emoji1f493"></span><span class="emoji emoji1f493"></span>
p633
sVRemarkPYInitial
p634
g52
sVContactFlag
p635
I1
sVUin
p636
I0
sVNickName
p637
VAbby\U0001f495Lee
p638
sVAppAccountFlag
p639
I0
sVVerifyFlag
p640
I0
sVRemarkPYQuanPin
p641
g52
sVHeadImgUrl
p642
V/cgi-bin/mmwebwx-bin/webwxgeticon?seq=673727218&username=@1807682ce7a0c0762bba646156a126e6c6fdffdc22a642c1c1de56e6a5febd84&skey=@crypt_49509d7f_89cd3fdc347b28daf685b4c73bbef143
p643
sVKeyWord
p644
g52
sVProvince
p645
VMalacca
p646
sVPYInitial
p647
VABBYSPANCLASSEMOJIEMOJI1F495SPANLEE
p648
sVRemarkName
p649
g52
sVIsOwner
p650
I0
sVSex
p651
I2
sVStarFriend
p652
I0
sVHideInputBarFlag
p653
I0
sVChatRoomId
p654
I0
sVEncryChatRoomId
p655
g52
sVAttrStatus
p656
I33656865
sVStatues
p657
I0
stp658
Rp659
I1
bag34
(g38
g39
(dp660
VUserName
p661
V@a5e239673c8cac0d7f91d8db813408608550983a2de2380a87eb7898a59a6b9e
p662
sVCity
p663
V\u90af\u90f8
p664
sVSnsFlag
p665
I1
sVDisplayName
p666
g52
sVUniFriend
p667
I0
sVMemberCount
p668
I0
sVOwnerUin
p669
I0
sVMemberList
p670
g50
sVAlias
p671
g52
sVPYQuanPin
p672
Vniming
p673
sVSignature
p674
V<span class="emoji emoji1f63a"></span> <span class="emoji emoji1f63a"></span> <span class="emoji emoji1f63a"></span> <span class="emoji emoji1f63a"></span> <span class="emoji emoji1f63a"></span>
p675
sVRemarkPYInitial
p676
g52
sVContactFlag
p677
I1
sVUin
p678
I0
sVNickName
p679
V\u533f\u540d
p680
sVAppAccountFlag
p681
I0
sVVerifyFlag
p682
I0
sVRemarkPYQuanPin
p683
g52
sVHeadImgUrl
p684
V/cgi-bin/mmwebwx-bin/webwxgeticon?seq=673727308&username=@a5e239673c8cac0d7f91d8db813408608550983a2de2380a87eb7898a59a6b9e&skey=@crypt_49509d7f_89cd3fdc347b28daf685b4c73bbef143
p685
sVKeyWord
p686
g52
sVProvince
p687
V\u6cb3\u5317
p688
sVPYInitial
p689
VNM
p690
sVRemarkName
p691
g52
sVIsOwner
p692
I0
sVSex
p693
I1
sVStarFriend
p694
I0
sVHideInputBarFlag
p695
I0
sVChatRoomId
p696
I0
sVEncryChatRoomId
p697
g52
sVAttrStatus
p698
I33657021
sVStatues
p699
I0
stp700
Rp701
I1
bag34
(g38
g39
(dp702
VUserName
p703
V@d6411eb58b6e0f181bcb2688980a0bdcfd2850ef67fd36aed5d5936c13953407
p704
sVCity
p705
g52
sVSnsFlag
p706
I1
sVDisplayName
p707
g52
sVUniFriend
p708
I0
sVMemberCount
p709
I0
sVOwnerUin
p710
I0
sVMemberList
p711
g50
sVAlias
p712
g52
sVPYQuanPin
p713
VBellashanspanclassemojiemoji1f48bspan
p714
sVSignature
p715
VYou're the world to me, and dreaming on\U0001f942
p716
sVRemarkPYInitial
p717
g52
sVContactFlag
p718
I1
sVUin
p719
I0
sVNickName
p720
VBella\u73ca\U0001f48b
p721
sVAppAccountFlag
p722
I0
sVVerifyFlag
p723
I0
sVRemarkPYQuanPin
p724
g52
sVHeadImgUrl
p725
V/cgi-bin/mmwebwx-bin/webwxgeticon?seq=673727652&username=@d6411eb58b6e0f181bcb2688980a0bdcfd2850ef67fd36aed5d5936c13953407&skey=@crypt_49509d7f_89cd3fdc347b28daf685b4c73bbef143
p726
sVKeyWord
p727
g52
sVProvince
p728
VTuen Mun
p729
sVPYInitial
p730
VBELLASSPANCLASSEMOJIEMOJI1F48BSPAN
p731
sVRemarkName
p732
g52
sVIsOwner
p733
I0
sVSex
p734
I2
sVStarFriend
p735
I0
sVHideInputBarFlag
p736
I0
sVChatRoomId
p737
I0
sVEncryChatRoomId
p738
g52
sVAttrStatus
p739
I234277
sVStatues
p740
I0
stp741
Rp742
I1
bag34
(g38
g39
(dp743
VUserName
p744
V@44e656abab82c6269bc389a227397e7f321b282489f08f9ba603ae285861c79c
p745
sVCity
p746
V\u6b66\u6c49
p747
sVSnsFlag
p748
I1
sVDisplayName
p749
g52
sVUniFriend
p750
I0
sVMemberCount
p751
I0
sVOwnerUin
p752
I0
sVMemberList
p753
g50
sVAlias
p754
g52
sVPYQuanPin
p755
V0
p756
sVSignature
p757
V<span class="emoji emoji2764"></span>\ufe0f
p758
sVRemarkPYInitial
p759
V0JP
p760
sVContactFlag
p761
I3
sVUin
p762
I0
sVNickName
p763
g756
sVAppAccountFlag
p764
I0
sVVerifyFlag
p765
I0
sVRemarkPYQuanPin
p766
V0jipiao
p767
sVHeadImgUrl
p768
V/cgi-bin/mmwebwx-bin/webwxgeticon?seq=673727237&username=@44e656abab82c6269bc389a227397e7f321b282489f08f9ba603ae285861c79c&skey=@crypt_49509d7f_89cd3fdc347b28daf685b4c73bbef143
p769
sVKeyWord
p770
g52
sVProvince
p771
V\u6e56\u5317
p772
sVPYInitial
p773
g756
sVRemarkName
p774
V0 \u673a\u7968
p775
sVIsOwner
p776
I0
sVSex
p777
I2
sVStarFriend
p778
I0
sVHideInputBarFlag
p779
I0
sVChatRoomId
p780
I0
sVEncryChatRoomId
p781
g52
sVAttrStatus
p782
I236027
sVStatues
p783
I0
stp784
Rp785
I1
bag34
(g38
g39
(dp786
VUserName
p787
V@db5e82e45b2312fe500d53ab084bb7b381293dd5edf76ff057a476b3bc9158fd
p788
sVCity
p789
V\u6d77\u6dc0
p790
sVSnsFlag
p791
I1
sVDisplayName
p792
g52
sVUniFriend
p793
I0
sVMemberCount
p794
I0
sVOwnerUin
p795
I0
sVMemberList
p796
g50
sVAlias
p797
g52
sVPYQuanPin
p798
Vdiermeng
p799
sVSignature
p800
V\u9189\u5367\u6c99\u573a\u541b\u83ab\u7b11
p801
sVRemarkPYInitial
p802
g52
sVContactFlag
p803
I1
sVUin
p804
I0
sVNickName
p805
V\u7b2c\u4e8c\u68a6
p806
sVAppAccountFlag
p807
I0
sVVerifyFlag
p808
I0
sVRemarkPYQuanPin
p809
g52
sVHeadImgUrl
p810
V/cgi-bin/mmwebwx-bin/webwxgeticon?seq=673725344&username=@db5e82e45b2312fe500d53ab084bb7b381293dd5edf76ff057a476b3bc9158fd&skey=@crypt_49509d7f_89cd3fdc347b28daf685b4c73bbef143
p811
sVKeyWord
p812
g52
sVProvince
p813
V\u5317\u4eac
p814
sVPYInitial
p815
VDEM
p816
sVRemarkName
p817
g52
sVIsOwner
p818
I0
sVSex
p819
I2
sVStarFriend
p820
I0
sVHideInputBarFlag
p821
I0
sVChatRoomId
p822
I0
sVEncryChatRoomId
p823
g52
sVAttrStatus
p824
I236323
sVStatues
p825
I0
stp826
Rp827
I1
bag34
(g38
g39
(dp828
VUserName
p829
V@a2383ed9f82c57fa893e226bffe0466c0036f896e6551473d8e1c2633a91cebc
p830
sVCity
p831
g52
sVSnsFlag
p832
I1
sVDisplayName
p833
g52
sVUniFriend
p834
I0
sVMemberCount
p835
I0
sVOwnerUin
p836
I0
sVMemberList
p837
g50
sVAlias
p838
g52
sVPYQuanPin
p839
Vruhigruhig
p840
sVSignature
p841
g52
sVRemarkPYInitial
p842
g52
sVContactFlag
p843
I3
sVUin
p844
I0
sVNickName
p845
Vruhigruhig
p846
sVAppAccountFlag
p847
I0
sVVerifyFlag
p848
I0
sVRemarkPYQuanPin
p849
g52
sVHeadImgUrl
p850
V/cgi-bin/mmwebwx-bin/webwxgeticon?seq=673727830&username=@a2383ed9f82c57fa893e226bffe0466c0036f896e6551473d8e1c2633a91cebc&skey=@crypt_49509d7f_89cd3fdc347b28daf685b4c73bbef143
p851
sVKeyWord
p852
g52
sVProvince
p853
g52
sVPYInitial
p854
VRUHIGRUHIG
p855
sVRemarkName
p856
g52
sVIsOwner
p857
I0
sVSex
p858
I0
sVStarFriend
p859
I0
sVHideInputBarFlag
p860
I0
sVChatRoomId
p861
I0
sVEncryChatRoomId
p862
g52
sVAttrStatus
p863
I234277
sVStatues
p864
I0
stp865
Rp866
I1
bag34
(g38
g39
(dp867
VUserName
p868
V@dcbddeea7feaab5b218fef04fa9f9e4a678d940b7075fe6fdaa971d92c262113
p869
sVCity
p870
V\u671d\u9633
p871
sVSnsFlag
p872
I1
sVDisplayName
p873
g52
sVUniFriend
p874
I0
sVMemberCount
p875
I0
sVOwnerUin
p876
I0
sVMemberList
p877
g50
sVAlias
p878
g52
sVPYQuanPin
p879
Vzhishixuexi
p880
sVSignature
p881
V\u5907\u6ce8\u6765\u610f+\u54ea\u91cc\u770b\u5230\u5fae\u4fe1\u53f7\uff0c\u4e0d\u5907\u6ce8\u4e0d\u901a\u8fc7
p882
sVRemarkPYInitial
p883
g52
sVContactFlag
p884
I3
sVUin
p885
I0
sVNickName
p886
V\u77e5\u8bc6\u5b66\u4e60
p887
sVAppAccountFlag
p888
I0
sVVerifyFlag
p889
I0
sVRemarkPYQuanPin
p890
g52
sVHeadImgUrl
p891
V/cgi-bin/mmwebwx-bin/webwxgeticon?seq=673727834&username=@dcbddeea7feaab5b218fef04fa9f9e4a678d940b7075fe6fdaa971d92c262113&skey=@crypt_49509d7f_89cd3fdc347b28daf685b4c73bbef143
p892
sVKeyWord
p893
g52
sVProvince
p894
V\u5317\u4eac
p895
sVPYInitial
p896
VZSXX
p897
sVRemarkName
p898
g52
sVIsOwner
p899
I0
sVSex
p900
I2
sVStarFriend
p901
I0
sVHideInputBarFlag
p902
I0
sVChatRoomId
p903
I0
sVEncryChatRoomId
p904
g52
sVAttrStatus
p905
I4645
sVStatues
p906
I0
stp907
Rp908
I1
bag34
(g38
g39
(dp909
VUserName
p910
V@fbe8ebc4116957429390a90e6e28ed799f82a2baa305b5f86a3300ce3f0230f2
p911
sVCity
p912
V\u5e7f\u5dde
p913
sVSnsFlag
p914
I1
sVDisplayName
p915
g52
sVUniFriend
p916
I0
sVMemberCount
p917
I0
sVOwnerUin
p918
I0
sVMemberList
p919
g50
sVAlias
p920
g52
sVPYQuanPin
p921
VAzhengshubanli
p922
sVSignature
p923
V\u8d28\u91cf\u4e0e\u8bda\u4fe1\u5e76\u5b58\uff01\u62db\u4ee3\u7406\uff01
p924
sVRemarkPYInitial
p925
g52
sVContactFlag
p926
I3
sVUin
p927
I0
sVNickName
p928
VA\u8bc1\u4e66\u529e\u7406
p929
sVAppAccountFlag
p930
I0
sVVerifyFlag
p931
I0
sVRemarkPYQuanPin
p932
g52
sVHeadImgUrl
p933
V/cgi-bin/mmwebwx-bin/webwxgeticon?seq=673727928&username=@fbe8ebc4116957429390a90e6e28ed799f82a2baa305b5f86a3300ce3f0230f2&skey=@crypt_49509d7f_89cd3fdc347b28daf685b4c73bbef143
p934
sVKeyWord
p935
g52
sVProvince
p936
V\u5e7f\u4e1c
p937
sVPYInitial
p938
VAZSBL
p939
sVRemarkName
p940
g52
sVIsOwner
p941
I0
sVSex
p942
I1
sVStarFriend
p943
I0
sVHideInputBarFlag
p944
I0
sVChatRoomId
p945
I0
sVEncryChatRoomId
p946
g52
sVAttrStatus
p947
I5049
sVStatues
p948
I0
stp949
Rp950
I1
bag34
(g38
g39
(dp951
VUserName
p952
V@b9fc1ff6db8845592a6244357211763fc5ac1a1dd4140c563a8b205ca0dc5187
p953
sVCity
p954
g52
sVSnsFlag
p955
I1
sVDisplayName
p956
g52
sVUniFriend
p957
I0
sVMemberCount
p958
I0
sVOwnerUin
p959
I0
sVMemberList
p960
g50
sVAlias
p961
g52
sVPYQuanPin
p962
VKIKI
p963
sVSignature
p964
g52
sVRemarkPYInitial
p965
g52
sVContactFlag
p966
I1
sVUin
p967
I0
sVNickName
p968
VKIKI
p969
sVAppAccountFlag
p970
I0
sVVerifyFlag
p971
I0
sVRemarkPYQuanPin
p972
g52
sVHeadImgUrl
p973
V/cgi-bin/mmwebwx-bin/webwxgeticon?seq=673727888&username=@b9fc1ff6db8845592a6244357211763fc5ac1a1dd4140c563a8b205ca0dc5187&skey=@crypt_49509d7f_89cd3fdc347b28daf685b4c73bbef143
p974
sVKeyWord
p975
g52
sVProvince
p976
g52
sVPYInitial
p977
VKIKI
p978
sVRemarkName
p979
g52
sVIsOwner
p980
I0
sVSex
p981
I2
sVStarFriend
p982
I0
sVHideInputBarFlag
p983
I0
sVChatRoomId
p984
I0
sVEncryChatRoomId
p985
g52
sVAttrStatus
p986
I104485
sVStatues
p987
I0
stp988
Rp989
I1
batp990
Rp991
I1
bsS'chatroomList'
p992
g34
(g35
g36
(lp993
g34
(citchat.storage.templates
Chatroom
p994
g39
(dp995
VUserName
p996
V@@91766be97ce91256466119a10f72f9dfee15c2d25c893662e92e07a8da184a59
p997
sVCity
p998
g52
sVDisplayName
p999
g52
sVUniFriend
p1000
I0
sS'Self'
p1001
g34
(g38
g39
(dp1002
g41
g31
sg42
g43
sg44
g43
sg45
I0
sg46
I0
sg47
g34
(g35
g36
(lp1003
tp1004
Rp1005
I1
bsg51
g52
sg53
g52
sg54
I200509586
sg55
I0
sg56
I0
sg57
g43
sg58
g43
sg59
g52
sg60
g52
sg61
I0
sg62
I0
sg63
I1
sg64
g43
sg65
I0
sg66
I0
sg67
I0
sg68
I0
sg69
g43
sg70
g52
sg71
I0
sg72
g73
sg74
g52
sg75
g76
sg77
I1
sg78
I0
sg79
I0
stp1006
Rp1007
I1
bsVMemberList
p1008
g34
(g35
g36
(lp1009
tp1010
Rp1011
I1
bsVPYQuanPin
p1012
g52
sVRemarkPYInitial
p1013
g52
sVSex
p1014
I0
sVAppAccountFlag
p1015
I0
sVVerifyFlag
p1016
I0
sVProvince
p1017
g52
sVKeyWord
p1018
g52
sVRemarkName
p1019
g52
sVPYInitial
p1020
g52
sVIsOwner
p1021
I0
sVChatRoomId
p1022
I0
sVHideInputBarFlag
p1023
I0
sVEncryChatRoomId
p1024
g52
sVAttrStatus
p1025
I0
sVSnsFlag
p1026
I0
sVMemberCount
p1027
I500
sVOwnerUin
p1028
I0
sVAlias
p1029
g52
sS'IsAdmin'
p1030
NsVSignature
p1031
g52
sVContactFlag
p1032
I0
sVNickName
p1033
VRedis\u6280\u672f\u4ea4\u6d41\u7fa42
p1034
sVRemarkPYQuanPin
p1035
g52
sVHeadImgUrl
p1036
V/cgi-bin/mmwebwx-bin/webwxgetheadimg?seq=0&username=@@91766be97ce91256466119a10f72f9dfee15c2d25c893662e92e07a8da184a59&skey=@crypt_49509d7f_89cd3fdc347b28daf685b4c73bbef143
p1037
sVUin
p1038
I0
sVStarFriend
p1039
I0
sVStatues
p1040
I1
stp1041
Rp1042
I1
bag34
(g994
g39
(dp1043
VUserName
p1044
V@@88f9844ccc6d7be8be39ea083cee3c831d67b1a05ee8774026fcdab4a7029307
p1045
sVCity
p1046
g52
sVDisplayName
p1047
g52
sVUniFriend
p1048
I0
sg1001
g34
(g38
g39
(dp1049
g41
g31
sg42
g43
sg44
g43
sg45
I0
sg46
I0
sg47
g34
(g35
g36
(lp1050
tp1051
Rp1052
I1
bsg51
g52
sg53
g52
sg54
I200509586
sg55
I0
sg56
I0
sg57
g43
sg58
g43
sg59
g52
sg60
g52
sg61
I0
sg62
I0
sg63
I1
sg64
g43
sg65
I0
sg66
I0
sg67
I0
sg68
I0
sg69
g43
sg70
g52
sg71
I0
sg72
g73
sg74
g52
sg75
g76
sg77
I1
sg78
I0
sg79
I0
stp1053
Rp1054
I1
bsVMemberList
p1055
g34
(g35
g36
(lp1056
tp1057
Rp1058
I1
bsVPYQuanPin
p1059
g52
sVRemarkPYInitial
p1060
g52
sVSex
p1061
I0
sVAppAccountFlag
p1062
I0
sVVerifyFlag
p1063
I0
sVProvince
p1064
g52
sVKeyWord
p1065
g52
sVRemarkName
p1066
g52
sVPYInitial
p1067
g52
sVIsOwner
p1068
I0
sVChatRoomId
p1069
I0
sVHideInputBarFlag
p1070
I0
sVEncryChatRoomId
p1071
g52
sVAttrStatus
p1072
I0
sVSnsFlag
p1073
I0
sVMemberCount
p1074
I497
sVOwnerUin
p1075
I0
sVAlias
p1076
g52
sg1030
NsVSignature
p1077
g52
sVContactFlag
p1078
I2
sVNickName
p1079
VRedis\u6280\u672f\u4ea4\u6d41\u7fa4
p1080
sVRemarkPYQuanPin
p1081
g52
sVHeadImgUrl
p1082
V/cgi-bin/mmwebwx-bin/webwxgetheadimg?seq=673727717&username=@@88f9844ccc6d7be8be39ea083cee3c831d67b1a05ee8774026fcdab4a7029307&skey=@crypt_49509d7f_89cd3fdc347b28daf685b4c73bbef143
p1083
sVUin
p1084
I0
sVStarFriend
p1085
I0
sVStatues
p1086
I1
stp1087
Rp1088
I1
batp1089
Rp1090
I1
bsS'nickName'
p1091
g73
sS'mpList'
p1092
g34
(g35
g36
(lp1093
g34
(citchat.storage.templates
MassivePlatform
p1094
g39
(dp1095
VUserName
p1096
V@5e53292632402fcc57d4157dfcb265d8
p1097
sVCity
p1098
V\u5e7f\u5dde
p1099
sVSnsFlag
p1100
I0
sVDisplayName
p1101
g52
sVUniFriend
p1102
I0
sVMemberCount
p1103
I0
sVOwnerUin
p1104
I0
sVMemberList
p1105
g50
sVAlias
p1106
g52
sVPYQuanPin
p1107
Vguanaiguijuanbot
p1108
sVSignature
p1109
V\u8fd9\u91cc\u6709\u4f60\u7684\u524d\u4efb\u3002
p1110
sVRemarkPYInitial
p1111
g52
sVContactFlag
p1112
I3
sVUin
p1113
I0
sVNickName
p1114
V\u5173\u7231\u8d35\u5708bot
p1115
sVAppAccountFlag
p1116
I0
sVVerifyFlag
p1117
I8
sVRemarkPYQuanPin
p1118
g52
sVHeadImgUrl
p1119
V/cgi-bin/mmwebwx-bin/webwxgeticon?seq=673727200&username=@5e53292632402fcc57d4157dfcb265d8&skey=@crypt_49509d7f_89cd3fdc347b28daf685b4c73bbef143
p1120
sVKeyWord
p1121
Vgh_
p1122
sVProvince
p1123
V\u5e7f\u4e1c
p1124
sVPYInitial
p1125
VGAGJBOT
p1126
sVRemarkName
p1127
g52
sVIsOwner
p1128
I0
sVSex
p1129
I0
sVStarFriend
p1130
I0
sVHideInputBarFlag
p1131
I0
sVChatRoomId
p1132
I0
sVEncryChatRoomId
p1133
g52
sVAttrStatus
p1134
I0
sVStatues
p1135
I0
stp1136
Rp1137
I1
bag34
(g1094
g39
(dp1138
VUserName
p1139
V@06983769418977ba46f13a06f1a521e2
p1140
sVCity
p1141
V\u5e7f\u5dde
p1142
sVSnsFlag
p1143
I0
sVDisplayName
p1144
g52
sVUniFriend
p1145
I0
sVMemberCount
p1146
I0
sVOwnerUin
p1147
I0
sVMemberList
p1148
g50
sVAlias
p1149
g52
sVPYQuanPin
p1150
Vyikushaonv
p1151
sVSignature
p1152
V\u5173\u6ce8\u4e0d\u4e86\uff1f \u8bf7\u641c\u7d22\u5173\u6ce8\uff1a\u5947\u8da3\u62a5\u793e\u65b0\u53f7
p1153
sVRemarkPYInitial
p1154
g52
sVContactFlag
p1155
I3
sVUin
p1156
I0
sVNickName
p1157
V\u4e00\u5e93\u5c11\u5973
p1158
sVAppAccountFlag
p1159
I0
sVVerifyFlag
p1160
I8
sVRemarkPYQuanPin
p1161
g52
sVHeadImgUrl
p1162
V/cgi-bin/mmwebwx-bin/webwxgeticon?seq=673712037&username=@06983769418977ba46f13a06f1a521e2&skey=@crypt_49509d7f_89cd3fdc347b28daf685b4c73bbef143
p1163
sVKeyWord
p1164
Vgh_
p1165
sVProvince
p1166
V\u5e7f\u4e1c
p1167
sVPYInitial
p1168
VYKSN
p1169
sVRemarkName
p1170
g52
sVIsOwner
p1171
I0
sVSex
p1172
I0
sVStarFriend
p1173
I0
sVHideInputBarFlag
p1174
I0
sVChatRoomId
p1175
I0
sVEncryChatRoomId
p1176
g52
sVAttrStatus
p1177
I0
sVStatues
p1178
I0
stp1179
Rp1180
I1
bag34
(g1094
g39
(dp1181
VUserName
p1182
V@bc6272249d9343990766da36e209f569
p1183
sVCity
p1184
V\u6df1\u5733
p1185
sVSnsFlag
p1186
I0
sVDisplayName
p1187
g52
sVUniFriend
p1188
I0
sVMemberCount
p1189
I0
sVOwnerUin
p1190
I0
sVMemberList
p1191
g50
sVAlias
p1192
g52
sVPYQuanPin
p1193
Vshunfengsuyun
p1194
sVSignature
p1195
V\u5feb\u4ef6\u4fe1\u606f\u5b9e\u65f6\u6536\uff0c\u4f1a\u5458\u6743\u76ca\u7b49\u4f60\u62ff\u3002\u987a\u4e30\u901f\u8fd0\u51fa\u54c1\uff0c\u4e00\u6b3e\u63d0\u4f9b\u5728\u7ebf\u5bc4\u4ef6\u3001\u4e00\u5c0f\u65f6\u4e0a\u95e8\u3001\u5feb\u9012\u5355\u53f7\u67e5\u8be2\u3001\u7f51\u70b9\u67e5\u8be2\u3001\u8fd0\u8d39\u67e5\u8be2\u7b49\u76f8\u5173\u670d\u52a1\u7684\u5feb\u9012\u7269\u6d41\u516c\u4f17\u53f7\u3002\u67e5\u5feb\u9012\u3001\u5bc4\u5feb\u9012\u7528\u987a\u4e30\uff0c\u4e0d\u6b62\u662f\u5feb\u3002
p1196
sVRemarkPYInitial
p1197
g52
sVContactFlag
p1198
I3
sVUin
p1199
I0
sVNickName
p1200
V\u987a\u4e30\u901f\u8fd0
p1201
sVAppAccountFlag
p1202
I0
sVVerifyFlag
p1203
I24
sVRemarkPYQuanPin
p1204
g52
sVHeadImgUrl
p1205
V/cgi-bin/mmwebwx-bin/webwxgeticon?seq=673719418&username=@bc6272249d9343990766da36e209f569&skey=@crypt_49509d7f_89cd3fdc347b28daf685b4c73bbef143
p1206
sVKeyWord
p1207
Vgh_
p1208
sVProvince
p1209
V\u5e7f\u4e1c
p1210
sVPYInitial
p1211
VSFSY
p1212
sVRemarkName
p1213
g52
sVIsOwner
p1214
I0
sVSex
p1215
I0
sVStarFriend
p1216
I0
sVHideInputBarFlag
p1217
I0
sVChatRoomId
p1218
I0
sVEncryChatRoomId
p1219
g52
sVAttrStatus
p1220
I0
sVStatues
p1221
I0
stp1222
Rp1223
I1
bag34
(g1094
g39
(dp1224
VUserName
p1225
V@f2688511b4d8e23106485678421ce53f
p1226
sVCity
p1227
V\u6d4e\u5357
p1228
sVSnsFlag
p1229
I0
sVDisplayName
p1230
g52
sVUniFriend
p1231
I0
sVMemberCount
p1232
I0
sVOwnerUin
p1233
I0
sVMemberList
p1234
g50
sVAlias
p1235
g52
sVPYQuanPin
p1236
Vbaigehuidi
p1237
sVSignature
p1238
V\u767d\u9e3d\u60e0\u9012\u4e3a\u5feb\u9012\u7269\u6d41\u4e1a\u52a1\u7684\u7f51\u4e0a\u4e0b\u5355\u5e73\u53f0\u3002\u4e0e\u4e2d\u90ae\u3001\u987a\u4e30\u3001\u5fb7\u90a6\u3001\u5706\u901a\u3001\u5b85\u6025\u9001\u7b49\u4e00\u7ebf\u901f\u8fd0\u4f01\u4e1a\u5f62\u6210\u5168\u56fd\u5408\u4f5c\u9635\u8425\u3002\u7528\u6237\u53ef\u5728\u7ebf\u5bf9\u6bd4\u4e0b\u5355\uff0c\u4eab\u53d7\u5e73\u53f0\u8865\u8d34\u3002\u4e0b\u5355\u540e\u5ba2\u6237\u9759\u5f85\u5feb\u9012\u5458\u63fd\u4ef6\u3002
p1239
sVRemarkPYInitial
p1240
g52
sVContactFlag
p1241
I3
sVUin
p1242
I0
sVNickName
p1243
V\u767d\u9e3d\u60e0\u9012
p1244
sVAppAccountFlag
p1245
I0
sVVerifyFlag
p1246
I24
sVRemarkPYQuanPin
p1247
g52
sVHeadImgUrl
p1248
V/cgi-bin/mmwebwx-bin/webwxgeticon?seq=673719895&username=@f2688511b4d8e23106485678421ce53f&skey=@crypt_49509d7f_89cd3fdc347b28daf685b4c73bbef143
p1249
sVKeyWord
p1250
Vgh_
p1251
sVProvince
p1252
V\u5c71\u4e1c
p1253
sVPYInitial
p1254
VBGHD
p1255
sVRemarkName
p1256
g52
sVIsOwner
p1257
I0
sVSex
p1258
I0
sVStarFriend
p1259
I0
sVHideInputBarFlag
p1260
I0
sVChatRoomId
p1261
I0
sVEncryChatRoomId
p1262
g52
sVAttrStatus
p1263
I0
sVStatues
p1264
I0
stp1265
Rp1266
I1
batp1267
Rp1268
I1
bssS'loginInfo'
p1269
(dp1270
S'SyncKey'
p1271
(dp1272
VCount
p1273
I4
sVList
p1274
(lp1275
(dp1276
VVal
p1277
I673728011
sVKey
p1278
I1
sa(dp1279
VVal
p1280
I673728020
sVKey
p1281
I2
sa(dp1282
VVal
p1283
I673728013
sVKey
p1284
I3
sa(dp1285
VVal
p1286
I1572508681
sVKey
p1287
I1000
sassS'syncUrl'
p1288
S'https://webpush.wx2.qq.com/cgi-bin/mmwebwx-bin'
p1289
sS'skey'
p1290
V@crypt_49509d7f_89cd3fdc347b28daf685b4c73bbef143
p1291
sS'wxuin'
p1292
V200509586
p1293
sS'synckey'
p1294
S'1_673728011|2_673728020|3_673728013|1000_1572508681'
p1295
sS'url'
p1296
Vhttps://wx2.qq.com/cgi-bin/mmwebwx-bin
p1297
sS'pass_ticket'
p1298
VidBNRDSKb7amr9XbZeD%2BDokTpcH7gFvB%2B0p16KDOPFk%3D
p1299
sS'deviceid'
p1300
S'e654706609592532'
p1301
sS'wxsid'
p1302
VOEVB+Jc7lVAzDA4K
p1303
sS'InviteStartCount'
p1304
I40
sS'fileUrl'
p1305
S'https://file.wx2.qq.com/cgi-bin/mmwebwx-bin'
p1306
sS'BaseRequest'
p1307
(dp1308
g54
g1293
sS'Skey'
p1309
g1291
sS'DeviceID'
p1310
g1299
sS'Sid'
p1311
g1303
ssS'User'
p1312
g34
(g38
g39
(dp1313
g41
g31
sg42
g43
sg44
g43
sg45
I0
sg47
g50
sg51
g52
sg53
g52
sg77
I1
sg55
I0
sg56
I0
sg57
g43
sg58
g43
sg59
g52
sg60
g52
sg61
I0
sg62
I0
sg63
I1
sg64
g43
sg65
I0
sg68
I0
sg66
I0
sg67
I0
sg46
I0
sg69
g43
sg70
g52
sg71
I0
sg72
g73
sg74
g52
sg75
g76
sg54
I200509586
sg78
I0
sg79
I0
stp1314
Rp1315
I1
bss.