(dp0
S'cookies'
p1
(dp2
S'wxloadtime'
p3
S'1578007633'
p4
sS'webwx_data_ticket'
p5
S'gSeXKedjWDPVngQVulJ/f1Lt'
p6
sS'wxuin'
p7
S'200509586'
p8
sS'login_frequency'
p9
S'2'
p10
sS'MM_WX_NOTIFY_STATE'
p11
S'1'
p12
sS'MM_WX_SOUND_STATE'
p13
g12
sS'webwx_auth_ticket'
p14
S'CIsBEMiOl88HGoAB2jUcn5j+fqkk84IS4E++jjzMg3cwyQwSm3/07Xo5NOMCUCYaVA7wwkuqao9+UdN9aBILHtb90zapLYrpNW+9Zvu49+Vcs+zNsKewVeFqN7gniEOZ+JgvmQe5s08UqadAZXtVJrS9YunUXQRNDCJyGhLnKEQX8AazuUYyxifdxHw='
p15
sS'last_wxuin'
p16
S'200509586'
p17
sS'webwxuvid'
p18
S'7bc2a89d20b203ad95d74514a7dfab6ec46cac045c40d3118f340fce6896deab9f28c91328a9b2629574281a7277dec5'
p19
sS'wxpluginkey'
p20
S'1577947206_expired'
p21
sS'wxsid'
p22
S'Hq0laSyK4eVd5gpC'
p23
sS'mm_lang'
p24
S'zh_CN'
p25
ssS'version'
p26
S'1.3.10'
p27
sS'storage'
p28
(dp29
S'userName'
p30
V@ce19c75ee5fe59b318bcbe109cbd8a7641bf506092932fd1c7e5d1c38a39eb17
p31
sS'lastInputUserName'
p32
NsS'memberList'
p33
ccopy_reg
_reconstructor
p34
(citchat.storage.templates
ContactList
p35
c__builtin__
list
p36
(lp37
g34
(citchat.storage.templates
User
p38
c__builtin__
dict
p39
(dp40
S'UserName'
p41
g31
sS'City'
p42
S''
p43
sS'DisplayName'
p44
g43
sS'UniFriend'
p45
I0
sS'OwnerUin'
p46
I0
sS'MemberList'
p47
g34
(g35
g36
(lp48
tp49
Rp50
I1
bsS'PYQuanPin'
p51
V
p52
sS'RemarkPYInitial'
p53
g52
sS'Uin'
p54
I200509586
sS'AppAccountFlag'
p55
I0
sS'VerifyFlag'
p56
I0
sS'Province'
p57
g43
sS'KeyWord'
p58
g43
sS'RemarkName'
p59
g52
sS'PYInitial'
p60
g52
sS'ChatRoomId'
p61
I0
sS'HideInputBarFlag'
p62
I0
sVHeadImgFlag
p63
I1
sS'EncryChatRoomId'
p64
g43
sS'AttrStatus'
p65
I0
sS'SnsFlag'
p66
I0
sS'MemberCount'
p67
I0
sVWebWxPluginSwitch
p68
I0
sS'Alias'
p69
g43
sS'Signature'
p70
g52
sS'ContactFlag'
p71
I0
sS'NickName'
p72
V\u673a\u5668\u4eba\u5c0f\u80d6
p73
sS'RemarkPYQuanPin'
p74
g52
sS'HeadImgUrl'
p75
V/cgi-bin/mmwebwx-bin/webwxgeticon?seq=1848254556&username=@ce19c75ee5fe59b318bcbe109cbd8a7641bf506092932fd1c7e5d1c38a39eb17&skey=@crypt_49509d7f_1a2544ff4d524cd6dacf52c99cf6833f
p76
sS'Sex'
p77
I1
sS'StarFriend'
p78
I0
sS'Statues'
p79
I0
stp80
Rp81
I1
bag34
(g38
g39
(dp82
VUserName
p83
V@50d9e59a94499efd691d489022876f14e033f541e37e3baea8f8bb79c395376c
p84
sVCity
p85
g52
sVSnsFlag
p86
I1
sVDisplayName
p87
g52
sVUniFriend
p88
I0
sVMemberCount
p89
I0
sVOwnerUin
p90
I0
sVMemberList
p91
g50
sVAlias
p92
g52
sVPYQuanPin
p93
Vchuanguoliushui
p94
sVSignature
p95
V\u53ea\u4e3a\u4e00\u4eba\u7559
p96
sVRemarkPYInitial
p97
g52
sVContactFlag
p98
I1
sVUin
p99
I0
sVNickName
p100
V\u7a7f\u8fc7\u6d41\u6c34
p101
sVAppAccountFlag
p102
I0
sVVerifyFlag
p103
I0
sVRemarkPYQuanPin
p104
g52
sVHeadImgUrl
p105
V/cgi-bin/mmwebwx-bin/webwxgeticon?seq=673714836&username=@50d9e59a94499efd691d489022876f14e033f541e37e3baea8f8bb79c395376c&skey=@crypt_49509d7f_1a2544ff4d524cd6dacf52c99cf6833f
p106
sVKeyWord
p107
g52
sVProvince
p108
VKowloon City
p109
sVPYInitial
p110
VCGLS
p111
sVRemarkName
p112
g52
sVIsOwner
p113
I0
sVSex
p114
I1
sVStarFriend
p115
I0
sVHideInputBarFlag
p116
I0
sVChatRoomId
p117
I0
sVEncryChatRoomId
p118
g52
sVAttrStatus
p119
I33689893
sVStatues
p120
I0
stp121
Rp122
I1
bag34
(g38
g39
(dp123
VUserName
p124
V@a21c1076b7c4c8f339ea686e3b628d8a34172ada7683f23254afe925c75c43b5
p125
sVCity
p126
g52
sVSnsFlag
p127
I1
sVDisplayName
p128
g52
sVUniFriend
p129
I0
sVMemberCount
p130
I0
sVOwnerUin
p131
I0
sVMemberList
p132
g50
sVAlias
p133
g52
sVPYQuanPin
p134
VAkuaidiyouhuiquanbudingjigengxin
p135
sVSignature
p136
V\u963f\u8fea\u8fbe\u65af\u7ae5\u88c5  \u65ad\u7801\u7279\u4ef7
p137
sVRemarkPYInitial
p138
g52
sVContactFlag
p139
I3
sVUin
p140
I0
sVNickName
p141
VA\u5feb\u9012\u4f18\u60e0\u5238 \u4e0d\u5b9a\u671f\u66f4\u65b0
p142
sVAppAccountFlag
p143
I0
sVVerifyFlag
p144
I0
sVRemarkPYQuanPin
p145
g52
sVHeadImgUrl
p146
V/cgi-bin/mmwebwx-bin/webwxgeticon?seq=673716439&username=@a21c1076b7c4c8f339ea686e3b628d8a34172ada7683f23254afe925c75c43b5&skey=@crypt_49509d7f_1a2544ff4d524cd6dacf52c99cf6833f
p147
sVKeyWord
p148
g52
sVProvince
p149
g52
sVPYInitial
p150
VAKDYHQBDJGX
p151
sVRemarkName
p152
g52
sVIsOwner
p153
I0
sVSex
p154
I1
sVStarFriend
p155
I0
sVHideInputBarFlag
p156
I0
sVChatRoomId
p157
I0
sVEncryChatRoomId
p158
g52
sVAttrStatus
p159
I135201
sVStatues
p160
I0
stp161
Rp162
I1
bag34
(g38
g39
(dp163
VUserName
p164
V@99e47b5bdc299e05ff2d1905d51ddf102f318a13d8d6c6b7041c72d1b797ca0b
p165
sVCity
p166
g52
sVSnsFlag
p167
I257
sVDisplayName
p168
g52
sVUniFriend
p169
I0
sVMemberCount
p170
I0
sVOwnerUin
p171
I0
sVMemberList
p172
g50
sVAlias
p173
g52
sVPYQuanPin
p174
Vbanjialvyou
p175
sVSignature
p176
g52
sVRemarkPYInitial
p177
g52
sVContactFlag
p178
I3
sVUin
p179
I0
sVNickName
p180
V\u534a\u4ef7\u65c5\u6e38
p181
sVAppAccountFlag
p182
I0
sVVerifyFlag
p183
I0
sVRemarkPYQuanPin
p184
g52
sVHeadImgUrl
p185
V/cgi-bin/mmwebwx-bin/webwxgeticon?seq=673722419&username=@99e47b5bdc299e05ff2d1905d51ddf102f318a13d8d6c6b7041c72d1b797ca0b&skey=@crypt_49509d7f_1a2544ff4d524cd6dacf52c99cf6833f
p186
sVKeyWord
p187
g52
sVProvince
p188
g52
sVPYInitial
p189
VBJLY
p190
sVRemarkName
p191
g52
sVIsOwner
p192
I0
sVSex
p193
I0
sVStarFriend
p194
I0
sVHideInputBarFlag
p195
I0
sVChatRoomId
p196
I0
sVEncryChatRoomId
p197
g52
sVAttrStatus
p198
I135269
sVStatues
p199
I0
stp200
Rp201
I1
bag34
(g38
g39
(dp202
VUserName
p203
V@ff11d3df4d499057a5f2075535473211
p204
sVCity
p205
V\u4e1c\u57ce
p206
sVSnsFlag
p207
I17
sVDisplayName
p208
g52
sVUniFriend
p209
I0
sVMemberCount
p210
I0
sVOwnerUin
p211
I0
sVMemberList
p212
g50
sVAlias
p213
g52
sVPYQuanPin
p214
Vpengcheng
p215
sVSignature
p216
V\u672a\u6765\u4e0d\u8fce\uff0c\u5f53\u65f6\u4e0d\u6742\uff0c\u8fc7\u5f80\u4e0d\u604b
p217
sVRemarkPYInitial
p218
g52
sVContactFlag
p219
I3
sVUin
p220
I0
sVNickName
p221
V\u9e4f\u7a0b
p222
sVAppAccountFlag
p223
I0
sVVerifyFlag
p224
I0
sVRemarkPYQuanPin
p225
g52
sVHeadImgUrl
p226
V/cgi-bin/mmwebwx-bin/webwxgeticon?seq=669180196&username=@ff11d3df4d499057a5f2075535473211&skey=@crypt_49509d7f_1a2544ff4d524cd6dacf52c99cf6833f
p227
sVKeyWord
p228
Vwar
p229
sVProvince
p230
V\u5317\u4eac
p231
sVPYInitial
p232
VPC
p233
sVRemarkName
p234
g52
sVIsOwner
p235
I0
sVSex
p236
I1
sVStarFriend
p237
I0
sVHideInputBarFlag
p238
I0
sVChatRoomId
p239
I0
sVEncryChatRoomId
p240
g52
sVAttrStatus
p241
I33789415
sVStatues
p242
I0
stp243
Rp244
I1
bag34
(g38
g39
(dp245
VUserName
p246
V@c9ac8977332fa9c1762923188e3a37a7d5a11633e2ad551570b3e534af6949bd
p247
sVCity
p248
g52
sVSnsFlag
p249
I1
sVDisplayName
p250
g52
sVUniFriend
p251
I0
sVMemberCount
p252
I0
sVOwnerUin
p253
I0
sVMemberList
p254
g50
sVAlias
p255
g52
sVPYQuanPin
p256
VMolly
p257
sVSignature
p258
V\u5c3d\u4eba\u4e8b\u542c\u5929\u610f\uff01
p259
sVRemarkPYInitial
p260
g52
sVContactFlag
p261
I1
sVUin
p262
I0
sVNickName
p263
VMolly
p264
sVAppAccountFlag
p265
I0
sVVerifyFlag
p266
I0
sVRemarkPYQuanPin
p267
g52
sVHeadImgUrl
p268
V/cgi-bin/mmwebwx-bin/webwxgeticon?seq=673715616&username=@c9ac8977332fa9c1762923188e3a37a7d5a11633e2ad551570b3e534af6949bd&skey=@crypt_49509d7f_1a2544ff4d524cd6dacf52c99cf6833f
p269
sVKeyWord
p270
g52
sVProvince
p271
g52
sVPYInitial
p272
VMOLLY
p273
sVRemarkName
p274
g52
sVIsOwner
p275
I0
sVSex
p276
I2
sVStarFriend
p277
I0
sVHideInputBarFlag
p278
I0
sVChatRoomId
p279
I0
sVEncryChatRoomId
p280
g52
sVAttrStatus
p281
I234083
sVStatues
p282
I0
stp283
Rp284
I1
bag34
(g38
g39
(dp285
VUserName
p286
V@8d5a77d76f51634569731f383fed93cf42f3e2f19f3c3f957ed92f6dc5a87600
p287
sVCity
p288
V\u5305\u5934
p289
sVSnsFlag
p290
I1
sVDisplayName
p291
g52
sVUniFriend
p292
I0
sVMemberCount
p293
I0
sVOwnerUin
p294
I0
sVMemberList
p295
g50
sVAlias
p296
g52
sVPYQuanPin
p297
Vxiaoqing
p298
sVSignature
p299
g52
sVRemarkPYInitial
p300
g52
sVContactFlag
p301
I1
sVUin
p302
I0
sVNickName
p303
V\u5c0f\u9752
p304
sVAppAccountFlag
p305
I0
sVVerifyFlag
p306
I0
sVRemarkPYQuanPin
p307
g52
sVHeadImgUrl
p308
V/cgi-bin/mmwebwx-bin/webwxgeticon?seq=673718930&username=@8d5a77d76f51634569731f383fed93cf42f3e2f19f3c3f957ed92f6dc5a87600&skey=@crypt_49509d7f_1a2544ff4d524cd6dacf52c99cf6833f
p309
sVKeyWord
p310
g52
sVProvince
p311
V\u5185\u8499\u53e4
p312
sVPYInitial
p313
VXQ
p314
sVRemarkName
p315
g52
sVIsOwner
p316
I0
sVSex
p317
I1
sVStarFriend
p318
I0
sVHideInputBarFlag
p319
I0
sVChatRoomId
p320
I0
sVEncryChatRoomId
p321
g52
sVAttrStatus
p322
I234109
sVStatues
p323
I0
stp324
Rp325
I1
bag34
(g38
g39
(dp326
VUserName
p327
V@56d3e7006e3e15ecc17ec14ec457a3d5906cc8710f06ab097f33837649509866
p328
sVCity
p329
V\u90af\u90f8
p330
sVSnsFlag
p331
I1
sVDisplayName
p332
g52
sVUniFriend
p333
I0
sVMemberCount
p334
I0
sVOwnerUin
p335
I0
sVMemberList
p336
g50
sVAlias
p337
g52
sVPYQuanPin
p338
Vningbeisenwu
p339
sVSignature
p340
V\u5b87\u5b87\u4e0d\u6536\u4e8c\u624b\u5783\u573e\u3002
p341
sVRemarkPYInitial
p342
g52
sVContactFlag
p343
I1
sVUin
p344
I0
sVNickName
p345
V\u67e0\u5317\u68ee\u5c4b\u3002
p346
sVAppAccountFlag
p347
I0
sVVerifyFlag
p348
I0
sVRemarkPYQuanPin
p349
g52
sVHeadImgUrl
p350
V/cgi-bin/mmwebwx-bin/webwxgeticon?seq=673721821&username=@56d3e7006e3e15ecc17ec14ec457a3d5906cc8710f06ab097f33837649509866&skey=@crypt_49509d7f_1a2544ff4d524cd6dacf52c99cf6833f
p351
sVKeyWord
p352
g52
sVProvince
p353
V\u6cb3\u5317
p354
sVPYInitial
p355
VNBSW
p356
sVRemarkName
p357
g52
sVIsOwner
p358
I0
sVSex
p359
I2
sVStarFriend
p360
I0
sVHideInputBarFlag
p361
I0
sVChatRoomId
p362
I0
sVEncryChatRoomId
p363
g52
sVAttrStatus
p364
I102945
sVStatues
p365
I0
stp366
Rp367
I1
bag34
(g38
g39
(dp368
VUserName
p369
V@864f81f35552522caced99e4071df3f0
p370
sVCity
p371
g52
sVSnsFlag
p372
I273
sVDisplayName
p373
g52
sVUniFriend
p374
I0
sVMemberCount
p375
I0
sVOwnerUin
p376
I0
sVMemberList
p377
g50
sVAlias
p378
g52
sVPYQuanPin
p379
VCXY
p380
sVSignature
p381
V\u7b49\u98ce\u4e5f\u7b49\u4f60\u3002
p382
sVRemarkPYInitial
p383
VXYKTX
p384
sVContactFlag
p385
I1
sVUin
p386
I0
sVNickName
p387
V-C_XY-
p388
sVAppAccountFlag
p389
I0
sVVerifyFlag
p390
I0
sVRemarkPYQuanPin
p391
Vxinyongkataoxian
p392
sVHeadImgUrl
p393
V/cgi-bin/mmwebwx-bin/webwxgeticon?seq=673710066&username=@864f81f35552522caced99e4071df3f0&skey=@crypt_49509d7f_1a2544ff4d524cd6dacf52c99cf6833f
p394
sVKeyWord
p395
Vwux
p396
sVProvince
p397
g52
sVPYInitial
p398
VCXY
p399
sVRemarkName
p400
V\u4fe1\u7528\u5361\u5957\u73b0
p401
sVIsOwner
p402
I0
sVSex
p403
I2
sVStarFriend
p404
I0
sVHideInputBarFlag
p405
I0
sVChatRoomId
p406
I0
sVEncryChatRoomId
p407
g52
sVAttrStatus
p408
I111719
sVStatues
p409
I0
stp410
Rp411
I1
bag34
(g38
g39
(dp412
VUserName
p413
V@fd0013090712432edd913a589e3997ab2c5d9c98615eecf2379f25b29965fbe0
p414
sVCity
p415
V\u90af\u90f8
p416
sVSnsFlag
p417
I1
sVDisplayName
p418
g52
sVUniFriend
p419
I0
sVMemberCount
p420
I0
sVOwnerUin
p421
I0
sVMemberList
p422
g50
sVAlias
p423
g52
sVPYQuanPin
p424
Vniming
p425
sVSignature
p426
V<span class="emoji emoji1f63a"></span> <span class="emoji emoji1f63a"></span> <span class="emoji emoji1f63a"></span> <span class="emoji emoji1f63a"></span> <span class="emoji emoji1f63a"></span>
p427
sVRemarkPYInitial
p428
g52
sVContactFlag
p429
I1
sVUin
p430
I0
sVNickName
p431
V\u533f\u540d
p432
sVAppAccountFlag
p433
I0
sVVerifyFlag
p434
I0
sVRemarkPYQuanPin
p435
g52
sVHeadImgUrl
p436
V/cgi-bin/mmwebwx-bin/webwxgeticon?seq=673727308&username=@fd0013090712432edd913a589e3997ab2c5d9c98615eecf2379f25b29965fbe0&skey=@crypt_49509d7f_1a2544ff4d524cd6dacf52c99cf6833f
p437
sVKeyWord
p438
g52
sVProvince
p439
V\u6cb3\u5317
p440
sVPYInitial
p441
VNM
p442
sVRemarkName
p443
g52
sVIsOwner
p444
I0
sVSex
p445
I1
sVStarFriend
p446
I0
sVHideInputBarFlag
p447
I0
sVChatRoomId
p448
I0
sVEncryChatRoomId
p449
g52
sVAttrStatus
p450
I33657021
sVStatues
p451
I0
stp452
Rp453
I1
bag34
(g38
g39
(dp454
VUserName
p455
V@9ffed5fc9cd50cf9374a7343e0ff8379c680b1e5346536f5d34d5e86f968b88f
p456
sVCity
p457
g52
sVSnsFlag
p458
I1
sVDisplayName
p459
g52
sVUniFriend
p460
I0
sVMemberCount
p461
I0
sVOwnerUin
p462
I0
sVMemberList
p463
g50
sVAlias
p464
g52
sVPYQuanPin
p465
VBellashanspanclassemojiemoji1f48bspan
p466
sVSignature
p467
VYou're the world to me, and dreaming on\U0001f942
p468
sVRemarkPYInitial
p469
g52
sVContactFlag
p470
I1
sVUin
p471
I0
sVNickName
p472
VBella\u73ca\U0001f48b
p473
sVAppAccountFlag
p474
I0
sVVerifyFlag
p475
I0
sVRemarkPYQuanPin
p476
g52
sVHeadImgUrl
p477
V/cgi-bin/mmwebwx-bin/webwxgeticon?seq=673727652&username=@9ffed5fc9cd50cf9374a7343e0ff8379c680b1e5346536f5d34d5e86f968b88f&skey=@crypt_49509d7f_1a2544ff4d524cd6dacf52c99cf6833f
p478
sVKeyWord
p479
g52
sVProvince
p480
VTuen Mun
p481
sVPYInitial
p482
VBELLASSPANCLASSEMOJIEMOJI1F48BSPAN
p483
sVRemarkName
p484
g52
sVIsOwner
p485
I0
sVSex
p486
I2
sVStarFriend
p487
I0
sVHideInputBarFlag
p488
I0
sVChatRoomId
p489
I0
sVEncryChatRoomId
p490
g52
sVAttrStatus
p491
I234277
sVStatues
p492
I0
stp493
Rp494
I1
bag34
(g38
g39
(dp495
VUserName
p496
V@38b5d4596cd5234ba10cc263d6fbe21f0358f0d46f6deb0e58d9c22a52a578c3
p497
sVCity
p498
V\u671d\u9633
p499
sVSnsFlag
p500
I1
sVDisplayName
p501
g52
sVUniFriend
p502
I0
sVMemberCount
p503
I0
sVOwnerUin
p504
I0
sVMemberList
p505
g50
sVAlias
p506
g52
sVPYQuanPin
p507
Vzhishixuexi
p508
sVSignature
p509
V\u5907\u6ce8\u6765\u610f+\u54ea\u91cc\u770b\u5230\u5fae\u4fe1\u53f7\uff0c\u4e0d\u5907\u6ce8\u4e0d\u901a\u8fc7
p510
sVRemarkPYInitial
p511
g52
sVContactFlag
p512
I3
sVUin
p513
I0
sVNickName
p514
V\u77e5\u8bc6\u5b66\u4e60
p515
sVAppAccountFlag
p516
I0
sVVerifyFlag
p517
I0
sVRemarkPYQuanPin
p518
g52
sVHeadImgUrl
p519
V/cgi-bin/mmwebwx-bin/webwxgeticon?seq=673727834&username=@38b5d4596cd5234ba10cc263d6fbe21f0358f0d46f6deb0e58d9c22a52a578c3&skey=@crypt_49509d7f_1a2544ff4d524cd6dacf52c99cf6833f
p520
sVKeyWord
p521
g52
sVProvince
p522
V\u5317\u4eac
p523
sVPYInitial
p524
VZSXX
p525
sVRemarkName
p526
g52
sVIsOwner
p527
I0
sVSex
p528
I2
sVStarFriend
p529
I0
sVHideInputBarFlag
p530
I0
sVChatRoomId
p531
I0
sVEncryChatRoomId
p532
g52
sVAttrStatus
p533
I4645
sVStatues
p534
I0
stp535
Rp536
I1
bag34
(g38
g39
(dp537
VUserName
p538
V@25ae81b30579417fdd879264ec3ab96a91584bd9fb06832a2ddff0ec1a1d43eb
p539
sVCity
p540
g52
sVSnsFlag
p541
I1
sVDisplayName
p542
g52
sVUniFriend
p543
I0
sVMemberCount
p544
I0
sVOwnerUin
p545
I0
sVMemberList
p546
g50
sVAlias
p547
g52
sVPYQuanPin
p548
Vqingchen
p549
sVSignature
p550
V\u5907\u7528\u8054\u7cfb\u65b9\u5f0f\uff0cQQ1094506491
p551
sVRemarkPYInitial
p552
g52
sVContactFlag
p553
I3
sVUin
p554
I0
sVNickName
p555
V\u6e05\u5c18
p556
sVAppAccountFlag
p557
I0
sVVerifyFlag
p558
I0
sVRemarkPYQuanPin
p559
g52
sVHeadImgUrl
p560
V/cgi-bin/mmwebwx-bin/webwxgeticon?seq=673728000&username=@25ae81b30579417fdd879264ec3ab96a91584bd9fb06832a2ddff0ec1a1d43eb&skey=@crypt_49509d7f_1a2544ff4d524cd6dacf52c99cf6833f
p561
sVKeyWord
p562
g52
sVProvince
p563
g52
sVPYInitial
p564
VQC
p565
sVRemarkName
p566
g52
sVIsOwner
p567
I0
sVSex
p568
I1
sVStarFriend
p569
I0
sVHideInputBarFlag
p570
I0
sVChatRoomId
p571
I0
sVEncryChatRoomId
p572
g52
sVAttrStatus
p573
I102437
sVStatues
p574
I0
stp575
Rp576
I1
bag34
(g38
g39
(dp577
VUserName
p578
V@268e654f83d0a1a96338cc552937cb05e087f0afe5ceca8c76816e9aa3ec75a8
p579
sVCity
p580
g52
sVSnsFlag
p581
I1
sVDisplayName
p582
g52
sVUniFriend
p583
I0
sVMemberCount
p584
I0
sVOwnerUin
p585
I0
sVMemberList
p586
g50
sVAlias
p587
g52
sVPYQuanPin
p588
Vspanclassemojiemoji1f451spanHoiYispanclassemojiemoji1f451span
p589
sVSignature
p590
V\u4eba\u751f\u5efa\u8bae\uff1aKeep it real<span class="emoji emoji2764"></span>\ufe0f\u2003\u2003\u2003\u2003\u2003\u2003\u2003\u2003 \u2003\u05b4\u05b4\u000a\u05b4
p591
sVRemarkPYInitial
p592
g52
sVContactFlag
p593
I1
sVUin
p594
I0
sVNickName
p595
V\U0001f451HoiYi\U0001f451
p596
sVAppAccountFlag
p597
I0
sVVerifyFlag
p598
I0
sVRemarkPYQuanPin
p599
g52
sVHeadImgUrl
p600
V/cgi-bin/mmwebwx-bin/webwxgeticon?seq=673722685&username=@268e654f83d0a1a96338cc552937cb05e087f0afe5ceca8c76816e9aa3ec75a8&skey=@crypt_49509d7f_1a2544ff4d524cd6dacf52c99cf6833f
p601
sVKeyWord
p602
g52
sVProvince
p603
g52
sVPYInitial
p604
VSPANCLASSEMOJIEMOJI1F451SPANHOIYISPANCLASSEMOJIEMOJI1F451SPAN
p605
sVRemarkName
p606
g52
sVIsOwner
p607
I0
sVSex
p608
I0
sVStarFriend
p609
I0
sVHideInputBarFlag
p610
I0
sVChatRoomId
p611
I0
sVEncryChatRoomId
p612
g52
sVAttrStatus
p613
I105253
sVStatues
p614
I0
stp615
Rp616
I1
bag34
(g38
g39
(dp617
VUserName
p618
V@843a4a8c1cee2a3972596c7fcfdee974377b74cebb8620675c8a9cb533a1ec12
p619
sVCity
p620
g52
sVSnsFlag
p621
I257
sVDisplayName
p622
g52
sVUniFriend
p623
I0
sVMemberCount
p624
I0
sVOwnerUin
p625
I0
sVMemberList
p626
g50
sVAlias
p627
g52
sVPYQuanPin
p628
VKIKI
p629
sVSignature
p630
g52
sVRemarkPYInitial
p631
g52
sVContactFlag
p632
I1
sVUin
p633
I0
sVNickName
p634
VKIKI
p635
sVAppAccountFlag
p636
I0
sVVerifyFlag
p637
I0
sVRemarkPYQuanPin
p638
g52
sVHeadImgUrl
p639
V/cgi-bin/mmwebwx-bin/webwxgeticon?seq=673728477&username=@843a4a8c1cee2a3972596c7fcfdee974377b74cebb8620675c8a9cb533a1ec12&skey=@crypt_49509d7f_1a2544ff4d524cd6dacf52c99cf6833f
p640
sVKeyWord
p641
g52
sVProvince
p642
g52
sVPYInitial
p643
VKIKI
p644
sVRemarkName
p645
g52
sVIsOwner
p646
I0
sVSex
p647
I2
sVStarFriend
p648
I0
sVHideInputBarFlag
p649
I0
sVChatRoomId
p650
I0
sVEncryChatRoomId
p651
g52
sVAttrStatus
p652
I104485
sVStatues
p653
I0
stp654
Rp655
I1
bag34
(g38
g39
(dp656
VUserName
p657
V@4178ba087d78544a00a56fad016f26aef541028fc13d776dbd196add83986f2f
p658
sVCity
p659
V\u5e7f\u5dde
p660
sVSnsFlag
p661
I1
sVDisplayName
p662
g52
sVUniFriend
p663
I0
sVMemberCount
p664
I0
sVOwnerUin
p665
I0
sVMemberList
p666
g50
sVAlias
p667
g52
sVPYQuanPin
p668
VAzhengshubanli
p669
sVSignature
p670
V\u8d28\u91cf\u4e0e\u8bda\u4fe1\u5e76\u5b58\uff01\u62db\u4ee3\u7406\uff01
p671
sVRemarkPYInitial
p672
g52
sVContactFlag
p673
I3
sVUin
p674
I0
sVNickName
p675
VA\u8bc1\u4e66\u529e\u7406
p676
sVAppAccountFlag
p677
I0
sVVerifyFlag
p678
I0
sVRemarkPYQuanPin
p679
g52
sVHeadImgUrl
p680
V/cgi-bin/mmwebwx-bin/webwxgeticon?seq=673727928&username=@4178ba087d78544a00a56fad016f26aef541028fc13d776dbd196add83986f2f&skey=@crypt_49509d7f_1a2544ff4d524cd6dacf52c99cf6833f
p681
sVKeyWord
p682
g52
sVProvince
p683
V\u5e7f\u4e1c
p684
sVPYInitial
p685
VAZSBL
p686
sVRemarkName
p687
g52
sVIsOwner
p688
I0
sVSex
p689
I1
sVStarFriend
p690
I0
sVHideInputBarFlag
p691
I0
sVChatRoomId
p692
I0
sVEncryChatRoomId
p693
g52
sVAttrStatus
p694
I4961
sVStatues
p695
I0
stp696
Rp697
I1
bag34
(g38
g39
(dp698
VUserName
p699
V@c42e796bf05dbe1eb12247d118fe5d2e
p700
sVCity
p701
V\u65e0\u9521
p702
sVSnsFlag
p703
I433
sVDisplayName
p704
g52
sVUniFriend
p705
I0
sVMemberCount
p706
I0
sVOwnerUin
p707
I0
sVMemberList
p708
g50
sVAlias
p709
g52
sVPYQuanPin
p710
VjietouebaZip
p711
sVSignature
p712
VStreet Bully &amp; \u72d7\u4e0d\u61c2\u521b\u59cb\u4eba
p713
sVRemarkPYInitial
p714
g52
sVContactFlag
p715
I1
sVUin
p716
I0
sVNickName
p717
V\u8857\u982d\u60e1\u9738\u3010Zip\u3011
p718
sVAppAccountFlag
p719
I0
sVVerifyFlag
p720
I0
sVRemarkPYQuanPin
p721
g52
sVHeadImgUrl
p722
V/cgi-bin/mmwebwx-bin/webwxgeticon?seq=673713460&username=@c42e796bf05dbe1eb12247d118fe5d2e&skey=@crypt_49509d7f_1a2544ff4d524cd6dacf52c99cf6833f
p723
sVKeyWord
p724
Vtr8
p725
sVProvince
p726
V\u6c5f\u82cf
p727
sVPYInitial
p728
VJTEBZIP
p729
sVRemarkName
p730
g52
sVIsOwner
p731
I0
sVSex
p732
I1
sVStarFriend
p733
I0
sVHideInputBarFlag
p734
I0
sVChatRoomId
p735
I0
sVEncryChatRoomId
p736
g52
sVAttrStatus
p737
I2147564455
sVStatues
p738
I0
stp739
Rp740
I1
bag34
(g38
g39
(dp741
VUserName
p742
V@4aae1eb670fdf93f7a240eca4210a9dae816d7d315cbc6341d4f60c0e15e5241
p743
sVCity
p744
V\u6b66\u6c49
p745
sVSnsFlag
p746
I1
sVDisplayName
p747
g52
sVUniFriend
p748
I0
sVMemberCount
p749
I0
sVOwnerUin
p750
I0
sVMemberList
p751
g50
sVAlias
p752
g52
sVPYQuanPin
p753
V0
p754
sVSignature
p755
V<span class="emoji emoji2764"></span>\ufe0f
p756
sVRemarkPYInitial
p757
V0JP
p758
sVContactFlag
p759
I3
sVUin
p760
I0
sVNickName
p761
g754
sVAppAccountFlag
p762
I0
sVVerifyFlag
p763
I0
sVRemarkPYQuanPin
p764
V0jipiao
p765
sVHeadImgUrl
p766
V/cgi-bin/mmwebwx-bin/webwxgeticon?seq=673728965&username=@4aae1eb670fdf93f7a240eca4210a9dae816d7d315cbc6341d4f60c0e15e5241&skey=@crypt_49509d7f_1a2544ff4d524cd6dacf52c99cf6833f
p767
sVKeyWord
p768
g52
sVProvince
p769
V\u6e56\u5317
p770
sVPYInitial
p771
g754
sVRemarkName
p772
V0 \u673a\u7968
p773
sVIsOwner
p774
I0
sVSex
p775
I2
sVStarFriend
p776
I0
sVHideInputBarFlag
p777
I0
sVChatRoomId
p778
I0
sVEncryChatRoomId
p779
g52
sVAttrStatus
p780
I236027
sVStatues
p781
I0
stp782
Rp783
I1
bag34
(g38
g39
(dp784
VUserName
p785
V@3e0bde26f58171a1e0212a27024fdc55a08bc4048d5354694e3f9422105d5de3
p786
sVCity
p787
V\u6d77\u6dc0
p788
sVSnsFlag
p789
I1
sVDisplayName
p790
g52
sVUniFriend
p791
I0
sVMemberCount
p792
I0
sVOwnerUin
p793
I0
sVMemberList
p794
g50
sVAlias
p795
g52
sVPYQuanPin
p796
Vdiermeng
p797
sVSignature
p798
V\u6b32\u4e70\u6842\u82b1\u540c\u8f7d\u9152
p799
sVRemarkPYInitial
p800
g52
sVContactFlag
p801
I1
sVUin
p802
I0
sVNickName
p803
V\u7b2c\u4e8c\u68a6
p804
sVAppAccountFlag
p805
I0
sVVerifyFlag
p806
I0
sVRemarkPYQuanPin
p807
g52
sVHeadImgUrl
p808
V/cgi-bin/mmwebwx-bin/webwxgeticon?seq=673728178&username=@3e0bde26f58171a1e0212a27024fdc55a08bc4048d5354694e3f9422105d5de3&skey=@crypt_49509d7f_1a2544ff4d524cd6dacf52c99cf6833f
p809
sVKeyWord
p810
g52
sVProvince
p811
V\u5317\u4eac
p812
sVPYInitial
p813
VDEM
p814
sVRemarkName
p815
g52
sVIsOwner
p816
I0
sVSex
p817
I2
sVStarFriend
p818
I0
sVHideInputBarFlag
p819
I0
sVChatRoomId
p820
I0
sVEncryChatRoomId
p821
g52
sVAttrStatus
p822
I236323
sVStatues
p823
I0
stp824
Rp825
I1
bag34
(g38
g39
(dp826
VUserName
p827
V@878ba3afc3d40c640107fd7db4c1396b497f6bdf45af2b2b4555414d825037a9
p828
sVCity
p829
g52
sVSnsFlag
p830
I257
sVDisplayName
p831
g52
sVUniFriend
p832
I0
sVMemberCount
p833
I0
sVOwnerUin
p834
I0
sVMemberList
p835
g50
sVAlias
p836
g52
sVPYQuanPin
p837
Vruhigruhig
p838
sVSignature
p839
g52
sVRemarkPYInitial
p840
g52
sVContactFlag
p841
I3
sVUin
p842
I0
sVNickName
p843
Vruhigruhig
p844
sVAppAccountFlag
p845
I0
sVVerifyFlag
p846
I0
sVRemarkPYQuanPin
p847
g52
sVHeadImgUrl
p848
V/cgi-bin/mmwebwx-bin/webwxgeticon?seq=673727830&username=@878ba3afc3d40c640107fd7db4c1396b497f6bdf45af2b2b4555414d825037a9&skey=@crypt_49509d7f_1a2544ff4d524cd6dacf52c99cf6833f
p849
sVKeyWord
p850
g52
sVProvince
p851
g52
sVPYInitial
p852
VRUHIGRUHIG
p853
sVRemarkName
p854
g52
sVIsOwner
p855
I0
sVSex
p856
I0
sVStarFriend
p857
I0
sVHideInputBarFlag
p858
I0
sVChatRoomId
p859
I0
sVEncryChatRoomId
p860
g52
sVAttrStatus
p861
I234277
sVStatues
p862
I0
stp863
Rp864
I1
bag34
(g38
g39
(dp865
VUserName
p866
V@8bb99597e30558a1fdaa9944c4027d5da8613f881f74b8febe0a6ce2b813109e
p867
sVCity
p868
g52
sVSnsFlag
p869
I1
sVDisplayName
p870
g52
sVUniFriend
p871
I0
sVMemberCount
p872
I0
sVOwnerUin
p873
I0
sVMemberList
p874
g50
sVAlias
p875
g52
sVPYQuanPin
p876
Vqinghuida2020
p877
sVSignature
p878
V\u8bda\u5fc3\u6b63\u610f\uff0c\u505a\u5fc3\u5e95\u8ba4\u4e3a\u6b63\u786e\u7684\u4e8b
p879
sVRemarkPYInitial
p880
VCLAIRTINDER
p881
sVContactFlag
p882
I1
sVUin
p883
I0
sVNickName
p884
V\u8bf7\u56de\u7b542020
p885
sVAppAccountFlag
p886
I0
sVVerifyFlag
p887
I0
sVRemarkPYQuanPin
p888
VClairTinder
p889
sVHeadImgUrl
p890
V/cgi-bin/mmwebwx-bin/webwxgeticon?seq=673719286&username=@8bb99597e30558a1fdaa9944c4027d5da8613f881f74b8febe0a6ce2b813109e&skey=@crypt_49509d7f_1a2544ff4d524cd6dacf52c99cf6833f
p891
sVKeyWord
p892
g52
sVProvince
p893
g52
sVPYInitial
p894
VQHD2020
p895
sVRemarkName
p896
VClair Tinder
p897
sVIsOwner
p898
I0
sVSex
p899
I0
sVStarFriend
p900
I0
sVHideInputBarFlag
p901
I0
sVChatRoomId
p902
I0
sVEncryChatRoomId
p903
g52
sVAttrStatus
p904
I102693
sVStatues
p905
I0
stp906
Rp907
I1
bag34
(g38
g39
(dp908
VUserName
p909
V@5cf1c871e9b871aca122f38393511fce559ed84a587599792365b19e429353c8
p910
sVCity
p911
g52
sVSnsFlag
p912
I1
sVDisplayName
p913
g52
sVUniFriend
p914
I0
sVMemberCount
p915
I0
sVOwnerUin
p916
I0
sVMemberList
p917
g50
sVAlias
p918
g52
sVPYQuanPin
p919
VSimpler?
p920
sVSignature
p921
VHierarchy
p922
sVRemarkPYInitial
p923
g52
sVContactFlag
p924
I1
sVUin
p925
I0
sVNickName
p926
VSimpler\U0001f408
p927
sVAppAccountFlag
p928
I0
sVVerifyFlag
p929
I0
sVRemarkPYQuanPin
p930
g52
sVHeadImgUrl
p931
V/cgi-bin/mmwebwx-bin/webwxgeticon?seq=704170264&username=@5cf1c871e9b871aca122f38393511fce559ed84a587599792365b19e429353c8&skey=@crypt_49509d7f_1a2544ff4d524cd6dacf52c99cf6833f
p932
sVKeyWord
p933
g52
sVProvince
p934
g52
sVPYInitial
p935
VSIMPLER?
p936
sVRemarkName
p937
g52
sVIsOwner
p938
I0
sVSex
p939
I2
sVStarFriend
p940
I0
sVHideInputBarFlag
p941
I0
sVChatRoomId
p942
I0
sVEncryChatRoomId
p943
g52
sVAttrStatus
p944
I234277
sVStatues
p945
I0
stp946
Rp947
I1
bag34
(g38
g39
(dp948
VUserName
p949
V@472df2b5e74c8ad37e20e671cbde39d97461a6a0c4c561c45a2c7d382d877dfa
p950
sVCity
p951
VMelaka
p952
sVSnsFlag
p953
I1
sVDisplayName
p954
g52
sVUniFriend
p955
I0
sVMemberCount
p956
I0
sVOwnerUin
p957
I0
sVMemberList
p958
g50
sVAlias
p959
g52
sVPYQuanPin
p960
VAbbyspanclassemojiemoji1f495spanLee
p961
sVSignature
p962
V\u5982\u82e5\u4f60\u80fd\u501f\u6211\u62e5\u62b1\u4e88\u6211\u6e29\u6696\uff0c\u6211\u613f\u8fd8\u4f60\u4e00\u4e16\u966a\u4f34<span class="emoji emoji1f493"></span><span class="emoji emoji1f493"></span>
p963
sVRemarkPYInitial
p964
g52
sVContactFlag
p965
I1
sVUin
p966
I0
sVNickName
p967
VAbby\U0001f495Lee
p968
sVAppAccountFlag
p969
I0
sVVerifyFlag
p970
I0
sVRemarkPYQuanPin
p971
g52
sVHeadImgUrl
p972
V/cgi-bin/mmwebwx-bin/webwxgeticon?seq=704170321&username=@472df2b5e74c8ad37e20e671cbde39d97461a6a0c4c561c45a2c7d382d877dfa&skey=@crypt_49509d7f_1a2544ff4d524cd6dacf52c99cf6833f
p973
sVKeyWord
p974
g52
sVProvince
p975
VMalacca
p976
sVPYInitial
p977
VABBYSPANCLASSEMOJIEMOJI1F495SPANLEE
p978
sVRemarkName
p979
g52
sVIsOwner
p980
I0
sVSex
p981
I2
sVStarFriend
p982
I0
sVHideInputBarFlag
p983
I0
sVChatRoomId
p984
I0
sVEncryChatRoomId
p985
g52
sVAttrStatus
p986
I33656865
sVStatues
p987
I0
stp988
Rp989
I1
batp990
Rp991
I1
bsS'chatroomList'
p992
g34
(g35
g36
(lp993
g34
(citchat.storage.templates
Chatroom
p994
g39
(dp995
VUserName
p996
V@@708c6ca924c869ec0d3cb1891a2a0b3e9a59215bf73829b0586aaa06c9612740
p997
sVCity
p998
g52
sVDisplayName
p999
g52
sVUniFriend
p1000
I0
sS'Self'
p1001
g34
(g38
g39
(dp1002
g41
g31
sg42
g43
sg44
g43
sg45
I0
sg46
I0
sg47
g34
(g35
g36
(lp1003
tp1004
Rp1005
I1
bsg51
g52
sg53
g52
sg54
I200509586
sg55
I0
sg56
I0
sg57
g43
sg58
g43
sg59
g52
sg60
g52
sg61
I0
sg62
I0
sg63
I1
sg64
g43
sg65
I0
sg66
I0
sg67
I0
sg68
I0
sg69
g43
sg70
g52
sg71
I0
sg72
g73
sg74
g52
sg75
g76
sg77
I1
sg78
I0
sg79
I0
stp1006
Rp1007
I1
bsVMemberList
p1008
g34
(g35
g36
(lp1009
tp1010
Rp1011
I1
bsVPYQuanPin
p1012
g52
sVRemarkPYInitial
p1013
g52
sVSex
p1014
I0
sVAppAccountFlag
p1015
I0
sVVerifyFlag
p1016
I0
sVProvince
p1017
g52
sVKeyWord
p1018
g52
sVRemarkName
p1019
g52
sVPYInitial
p1020
g52
sVIsOwner
p1021
I0
sVChatRoomId
p1022
I0
sVHideInputBarFlag
p1023
I0
sVEncryChatRoomId
p1024
g52
sVAttrStatus
p1025
I0
sVSnsFlag
p1026
I0
sVMemberCount
p1027
I500
sVOwnerUin
p1028
I0
sVAlias
p1029
g52
sS'IsAdmin'
p1030
NsVSignature
p1031
g52
sVContactFlag
p1032
I2
sVNickName
p1033
VRedis\u6280\u672f\u4ea4\u6d41\u7fa4
p1034
sVRemarkPYQuanPin
p1035
g52
sVHeadImgUrl
p1036
V/cgi-bin/mmwebwx-bin/webwxgetheadimg?seq=704170275&username=@@708c6ca924c869ec0d3cb1891a2a0b3e9a59215bf73829b0586aaa06c9612740&skey=@crypt_49509d7f_1a2544ff4d524cd6dacf52c99cf6833f
p1037
sVUin
p1038
I0
sVStarFriend
p1039
I0
sVStatues
p1040
I1
stp1041
Rp1042
I1
bag34
(g994
g39
(dp1043
VUserName
p1044
V@@193e506fe4ce5c951a347cb939bb34b471ec5faf74c779144456c50c9748c82c
p1045
sVCity
p1046
g52
sVDisplayName
p1047
g52
sVUniFriend
p1048
I0
sg1001
g34
(g38
g39
(dp1049
g41
g31
sg42
g43
sg44
g43
sg45
I0
sg46
I0
sg47
g34
(g35
g36
(lp1050
tp1051
Rp1052
I1
bsg51
g52
sg53
g52
sg54
I200509586
sg55
I0
sg56
I0
sg57
g43
sg58
g43
sg59
g52
sg60
g52
sg61
I0
sg62
I0
sg63
I1
sg64
g43
sg65
I0
sg66
I0
sg67
I0
sg68
I0
sg69
g43
sg70
g52
sg71
I0
sg72
g73
sg74
g52
sg75
g76
sg77
I1
sg78
I0
sg79
I0
stp1053
Rp1054
I1
bsVMemberList
p1055
g34
(g35
g36
(lp1056
tp1057
Rp1058
I1
bsVPYQuanPin
p1059
g52
sVRemarkPYInitial
p1060
g52
sVSex
p1061
I0
sVAppAccountFlag
p1062
I0
sVVerifyFlag
p1063
I0
sVProvince
p1064
g52
sVKeyWord
p1065
g52
sVRemarkName
p1066
g52
sVPYInitial
p1067
g52
sVIsOwner
p1068
I0
sVChatRoomId
p1069
I0
sVHideInputBarFlag
p1070
I0
sVEncryChatRoomId
p1071
g52
sVAttrStatus
p1072
I0
sVSnsFlag
p1073
I0
sVMemberCount
p1074
I499
sVOwnerUin
p1075
I0
sVAlias
p1076
g52
sg1030
NsVSignature
p1077
g52
sVContactFlag
p1078
I0
sVNickName
p1079
VRedis\u6280\u672f\u4ea4\u6d41\u7fa42
p1080
sVRemarkPYQuanPin
p1081
g52
sVHeadImgUrl
p1082
V/cgi-bin/mmwebwx-bin/webwxgetheadimg?seq=0&username=@@193e506fe4ce5c951a347cb939bb34b471ec5faf74c779144456c50c9748c82c&skey=@crypt_49509d7f_1a2544ff4d524cd6dacf52c99cf6833f
p1083
sVUin
p1084
I0
sVStarFriend
p1085
I0
sVStatues
p1086
I1
stp1087
Rp1088
I1
batp1089
Rp1090
I1
bsS'nickName'
p1091
g73
sS'mpList'
p1092
g34
(g35
g36
(lp1093
g34
(citchat.storage.templates
MassivePlatform
p1094
g39
(dp1095
VUserName
p1096
V@eb5ca9fbfed62e138328cd2f8f071d05
p1097
sVCity
p1098
V\u6d66\u4e1c\u65b0\u533a
p1099
sVSnsFlag
p1100
I0
sVDisplayName
p1101
g52
sVUniFriend
p1102
I0
sVMemberCount
p1103
I0
sVOwnerUin
p1104
I0
sVMemberList
p1105
g50
sVAlias
p1106
g52
sVPYQuanPin
p1107
Vmodunan
p1108
sVSignature
p1109
V\u56e1\u56e1\u65b0\u53f7\uff0c\u5176\u4ed6\u56db\u4e2a\u5b57\u5f00\u5934\u7684\u90fd\u662f\u5047\u7684\uff0c\u8bf7\u5927\u5bb6\u6ce8\u610f\u8bc6\u522b
p1110
sVRemarkPYInitial
p1111
g52
sVContactFlag
p1112
I3
sVUin
p1113
I0
sVNickName
p1114
V\u9b54\u90fd\u56e1
p1115
sVAppAccountFlag
p1116
I0
sVVerifyFlag
p1117
I8
sVRemarkPYQuanPin
p1118
g52
sVHeadImgUrl
p1119
V/cgi-bin/mmwebwx-bin/webwxgeticon?seq=673729335&username=@eb5ca9fbfed62e138328cd2f8f071d05&skey=@crypt_49509d7f_1a2544ff4d524cd6dacf52c99cf6833f
p1120
sVKeyWord
p1121
Vgh_
p1122
sVProvince
p1123
V\u4e0a\u6d77
p1124
sVPYInitial
p1125
VMDN
p1126
sVRemarkName
p1127
g52
sVIsOwner
p1128
I0
sVSex
p1129
I0
sVStarFriend
p1130
I0
sVHideInputBarFlag
p1131
I0
sVChatRoomId
p1132
I0
sVEncryChatRoomId
p1133
g52
sVAttrStatus
p1134
I0
sVStatues
p1135
I0
stp1136
Rp1137
I1
bag34
(g1094
g39
(dp1138
VUserName
p1139
V@8e1eb3713d293c2a3700b03ce7d8b18d
p1140
sVCity
p1141
V\u5e7f\u5dde
p1142
sVSnsFlag
p1143
I0
sVDisplayName
p1144
g52
sVUniFriend
p1145
I0
sVMemberCount
p1146
I0
sVOwnerUin
p1147
I0
sVMemberList
p1148
g50
sVAlias
p1149
g52
sVPYQuanPin
p1150
Vyikushaonv
p1151
sVSignature
p1152
V\u5173\u6ce8\u4e0d\u4e86\uff1f \u8bf7\u641c\u7d22\u5173\u6ce8\uff1a\u5947\u8da3\u62a5\u793e\u65b0\u53f7
p1153
sVRemarkPYInitial
p1154
g52
sVContactFlag
p1155
I3
sVUin
p1156
I0
sVNickName
p1157
V\u4e00\u5e93\u5c11\u5973
p1158
sVAppAccountFlag
p1159
I0
sVVerifyFlag
p1160
I8
sVRemarkPYQuanPin
p1161
g52
sVHeadImgUrl
p1162
V/cgi-bin/mmwebwx-bin/webwxgeticon?seq=673712037&username=@8e1eb3713d293c2a3700b03ce7d8b18d&skey=@crypt_49509d7f_1a2544ff4d524cd6dacf52c99cf6833f
p1163
sVKeyWord
p1164
Vgh_
p1165
sVProvince
p1166
V\u5e7f\u4e1c
p1167
sVPYInitial
p1168
VYKSN
p1169
sVRemarkName
p1170
g52
sVIsOwner
p1171
I0
sVSex
p1172
I0
sVStarFriend
p1173
I0
sVHideInputBarFlag
p1174
I0
sVChatRoomId
p1175
I0
sVEncryChatRoomId
p1176
g52
sVAttrStatus
p1177
I0
sVStatues
p1178
I0
stp1179
Rp1180
I1
bag34
(g1094
g39
(dp1181
VUserName
p1182
V@56dca6b8ff4b505e4ab0eb30c25238da
p1183
sVCity
p1184
V\u6df1\u5733
p1185
sVSnsFlag
p1186
I0
sVDisplayName
p1187
g52
sVUniFriend
p1188
I0
sVMemberCount
p1189
I0
sVOwnerUin
p1190
I0
sVMemberList
p1191
g50
sVAlias
p1192
g52
sVPYQuanPin
p1193
Vshunfengsuyun
p1194
sVSignature
p1195
V\u5feb\u4ef6\u4fe1\u606f\u5b9e\u65f6\u6536\uff0c\u4f1a\u5458\u6743\u76ca\u7b49\u4f60\u62ff\u3002\u987a\u4e30\u901f\u8fd0\u51fa\u54c1\uff0c\u4e00\u6b3e\u63d0\u4f9b\u5728\u7ebf\u5bc4\u4ef6\u3001\u4e00\u5c0f\u65f6\u4e0a\u95e8\u3001\u5feb\u9012\u5355\u53f7\u67e5\u8be2\u3001\u7f51\u70b9\u67e5\u8be2\u3001\u8fd0\u8d39\u67e5\u8be2\u7b49\u76f8\u5173\u670d\u52a1\u7684\u5feb\u9012\u7269\u6d41\u516c\u4f17\u53f7\u3002\u67e5\u5feb\u9012\u3001\u5bc4\u5feb\u9012\u7528\u987a\u4e30\uff0c\u4e0d\u6b62\u662f\u5feb\u3002
p1196
sVRemarkPYInitial
p1197
g52
sVContactFlag
p1198
I3
sVUin
p1199
I0
sVNickName
p1200
V\u987a\u4e30\u901f\u8fd0
p1201
sVAppAccountFlag
p1202
I0
sVVerifyFlag
p1203
I24
sVRemarkPYQuanPin
p1204
g52
sVHeadImgUrl
p1205
V/cgi-bin/mmwebwx-bin/webwxgeticon?seq=673719418&username=@56dca6b8ff4b505e4ab0eb30c25238da&skey=@crypt_49509d7f_1a2544ff4d524cd6dacf52c99cf6833f
p1206
sVKeyWord
p1207
Vgh_
p1208
sVProvince
p1209
V\u5e7f\u4e1c
p1210
sVPYInitial
p1211
VSFSY
p1212
sVRemarkName
p1213
g52
sVIsOwner
p1214
I0
sVSex
p1215
I0
sVStarFriend
p1216
I0
sVHideInputBarFlag
p1217
I0
sVChatRoomId
p1218
I0
sVEncryChatRoomId
p1219
g52
sVAttrStatus
p1220
I0
sVStatues
p1221
I0
stp1222
Rp1223
I1
bag34
(g1094
g39
(dp1224
VUserName
p1225
V@0f0ba578b66b547c3b1a8cbc3e4f9097
p1226
sVCity
p1227
V\u6d4e\u5357
p1228
sVSnsFlag
p1229
I0
sVDisplayName
p1230
g52
sVUniFriend
p1231
I0
sVMemberCount
p1232
I0
sVOwnerUin
p1233
I0
sVMemberList
p1234
g50
sVAlias
p1235
g52
sVPYQuanPin
p1236
Vbaigehuidi
p1237
sVSignature
p1238
V\u767d\u9e3d\u60e0\u9012\u4e3a\u5feb\u9012\u7269\u6d41\u4e1a\u52a1\u7684\u7f51\u4e0a\u4e0b\u5355\u5e73\u53f0\u3002\u4e0e\u4e2d\u90ae\u3001\u987a\u4e30\u3001\u5fb7\u90a6\u3001\u5706\u901a\u3001\u5b85\u6025\u9001\u7b49\u4e00\u7ebf\u901f\u8fd0\u4f01\u4e1a\u5f62\u6210\u5168\u56fd\u5408\u4f5c\u9635\u8425\u3002\u7528\u6237\u53ef\u5728\u7ebf\u5bf9\u6bd4\u4e0b\u5355\uff0c\u4eab\u53d7\u5e73\u53f0\u8865\u8d34\u3002\u4e0b\u5355\u540e\u5ba2\u6237\u9759\u5f85\u5feb\u9012\u5458\u63fd\u4ef6\u3002
p1239
sVRemarkPYInitial
p1240
g52
sVContactFlag
p1241
I3
sVUin
p1242
I0
sVNickName
p1243
V\u767d\u9e3d\u60e0\u9012
p1244
sVAppAccountFlag
p1245
I0
sVVerifyFlag
p1246
I24
sVRemarkPYQuanPin
p1247
g52
sVHeadImgUrl
p1248
V/cgi-bin/mmwebwx-bin/webwxgeticon?seq=673719895&username=@0f0ba578b66b547c3b1a8cbc3e4f9097&skey=@crypt_49509d7f_1a2544ff4d524cd6dacf52c99cf6833f
p1249
sVKeyWord
p1250
Vgh_
p1251
sVProvince
p1252
V\u5c71\u4e1c
p1253
sVPYInitial
p1254
VBGHD
p1255
sVRemarkName
p1256
g52
sVIsOwner
p1257
I0
sVSex
p1258
I0
sVStarFriend
p1259
I0
sVHideInputBarFlag
p1260
I0
sVChatRoomId
p1261
I0
sVEncryChatRoomId
p1262
g52
sVAttrStatus
p1263
I0
sVStatues
p1264
I0
stp1265
Rp1266
I1
bag34
(g1094
g39
(dp1267
VUserName
p1268
V@8dc5364aafe975e2182647101b85fbc3
p1269
sVCity
p1270
V\u5e7f\u5dde
p1271
sVSnsFlag
p1272
I0
sVDisplayName
p1273
g52
sVUniFriend
p1274
I0
sVMemberCount
p1275
I0
sVOwnerUin
p1276
I0
sVMemberList
p1277
g50
sVAlias
p1278
g52
sVPYQuanPin
p1279
Vchunliangqingnian
p1280
sVSignature
p1281
V\u8fd9\u91cc\u6709\u4f60\u7684\u524d\u4efb\u3002
p1282
sVRemarkPYInitial
p1283
g52
sVContactFlag
p1284
I3
sVUin
p1285
I0
sVNickName
p1286
V\u7eaf\u826f\u9752\u5e74
p1287
sVAppAccountFlag
p1288
I0
sVVerifyFlag
p1289
I8
sVRemarkPYQuanPin
p1290
g52
sVHeadImgUrl
p1291
V/cgi-bin/mmwebwx-bin/webwxgeticon?seq=673727200&username=@8dc5364aafe975e2182647101b85fbc3&skey=@crypt_49509d7f_1a2544ff4d524cd6dacf52c99cf6833f
p1292
sVKeyWord
p1293
Vgh_
p1294
sVProvince
p1295
V\u5e7f\u4e1c
p1296
sVPYInitial
p1297
VCLQN
p1298
sVRemarkName
p1299
g52
sVIsOwner
p1300
I0
sVSex
p1301
I0
sVStarFriend
p1302
I0
sVHideInputBarFlag
p1303
I0
sVChatRoomId
p1304
I0
sVEncryChatRoomId
p1305
g52
sVAttrStatus
p1306
I0
sVStatues
p1307
I0
stp1308
Rp1309
I1
bag34
(g1094
g39
(dp1310
VUserName
p1311
V@ab4dd9f83cc5d7e4c330065e9babbcb7
p1312
sVCity
p1313
V\u671d\u9633
p1314
sVSnsFlag
p1315
I0
sVDisplayName
p1316
g52
sVUniFriend
p1317
I0
sVMemberCount
p1318
I0
sVOwnerUin
p1319
I0
sVMemberList
p1320
g50
sVAlias
p1321
g52
sVPYQuanPin
p1322
Vjikeshijian
p1323
sVSignature
p1324
V\u6781\u5ba2\u65f6\u95f4\u670d\u52a1\u53f7
p1325
sVRemarkPYInitial
p1326
g52
sVContactFlag
p1327
I3
sVUin
p1328
I0
sVNickName
p1329
V\u6781\u5ba2\u65f6\u95f4
p1330
sVAppAccountFlag
p1331
I0
sVVerifyFlag
p1332
I24
sVRemarkPYQuanPin
p1333
g52
sVHeadImgUrl
p1334
V/cgi-bin/mmwebwx-bin/webwxgeticon?seq=673728225&username=@ab4dd9f83cc5d7e4c330065e9babbcb7&skey=@crypt_49509d7f_1a2544ff4d524cd6dacf52c99cf6833f
p1335
sVKeyWord
p1336
Vgh_
p1337
sVProvince
p1338
V\u5317\u4eac
p1339
sVPYInitial
p1340
VJKSJ
p1341
sVRemarkName
p1342
g52
sVIsOwner
p1343
I0
sVSex
p1344
I0
sVStarFriend
p1345
I0
sVHideInputBarFlag
p1346
I0
sVChatRoomId
p1347
I0
sVEncryChatRoomId
p1348
g52
sVAttrStatus
p1349
I0
sVStatues
p1350
I0
stp1351
Rp1352
I1
batp1353
Rp1354
I1
bssS'loginInfo'
p1355
(dp1356
S'SyncKey'
p1357
(dp1358
VCount
p1359
I4
sVList
p1360
(lp1361
(dp1362
VVal
p1363
I704170316
sVKey
p1364
I1
sa(dp1365
VVal
p1366
I704170345
sVKey
p1367
I2
sa(dp1368
VVal
p1369
I704170321
sVKey
p1370
I3
sa(dp1371
VVal
p1372
I1578005281
sVKey
p1373
I1000
sassS'syncUrl'
p1374
S'https://webpush.wx2.qq.com/cgi-bin/mmwebwx-bin'
p1375
sS'skey'
p1376
V@crypt_49509d7f_1a2544ff4d524cd6dacf52c99cf6833f
p1377
sS'wxuin'
p1378
V200509586
p1379
sS'synckey'
p1380
S'1_704170316|2_704170345|3_704170321|1000_1578005281'
p1381
sS'url'
p1382
Vhttps://wx2.qq.com/cgi-bin/mmwebwx-bin
p1383
sS'pass_ticket'
p1384
VeWS3RwGC%2FZMZ6klkIF45Ajz9hSprAj2RNvP3oo6C1HA%3D
p1385
sS'wxsid'
p1386
VHq0laSyK4eVd5gpC
p1387
sS'User'
p1388
g34
(g38
g39
(dp1389
g41
g31
sg42
g43
sg44
g43
sg45
I0
sg47
g50
sg51
g52
sg53
g52
sg77
I1
sg55
I0
sg56
I0
sg57
g43
sg58
g43
sg59
g52
sg60
g52
sg61
I0
sg62
I0
sg63
I1
sg64
g43
sg65
I0
sg68
I0
sg66
I0
sg67
I0
sg46
I0
sg69
g43
sg70
g52
sg71
I0
sg72
g73
sg74
g52
sg75
g76
sg54
I200509586
sg78
I0
sg79
I0
stp1390
Rp1391
I1
bsS'InviteStartCount'
p1392
I40
sS'fileUrl'
p1393
S'https://file.wx2.qq.com/cgi-bin/mmwebwx-bin'
p1394
sS'BaseRequest'
p1395
(dp1396
g54
g1379
sS'Skey'
p1397
g1377
sS'DeviceID'
p1398
g1385
sS'Sid'
p1399
g1387
ssS'deviceid'
p1400
S'e886355302796312'
p1401
ss.