(dp0
S'cookies'
p1
(dp2
S'wxloadtime'
p3
S'1556246230'
p4
sS'webwx_data_ticket'
p5
S'gSclh8+i8nMkaHKXIN75jcsV'
p6
sS'wxuin'
p7
S'200509586'
p8
sS'login_frequency'
p9
S'2'
p10
sS'MM_WX_NOTIFY_STATE'
p11
S'1'
p12
sS'MM_WX_SOUND_STATE'
p13
g12
sS'webwx_auth_ticket'
p14
S'CIsBEOyLj+EHGoABNlHLiZVtRAexpRHWfwB909YIH4IXdR+mvQhXhNcfxgpudv/mV+faiZGE1WmBWkpvgPviqDOQXCC4VDG1/Aw3yGKZOlMKjcYhEsTwhwMzLQIg1hf5UpgZ9yoQ6Bro8LfPDuxvrioLKbP/36CXJneELyPb1/i5cLQXnAocq3RasNc='
p15
sS'last_wxuin'
p16
S'200509586'
p17
sS'webwxuvid'
p18
S'd67c82d1011316d7673811e3409b28781876bbba4c1b52acfab654de17b1e8998401369bfd8f88a4f7be1b8079c6640d'
p19
sS'wxpluginkey'
p20
S'1556004992_expired'
p21
sS'wxsid'
p22
S'LyF9h8W71OefPG0A'
p23
sS'mm_lang'
p24
S'zh_CN'
p25
ssS'version'
p26
S'1.3.10'
p27
sS'storage'
p28
(dp29
S'userName'
p30
V@912194e3e1d95c6373855bdbbc6dff995313d670e2c59a02d5f266926c6ef7f3
p31
sS'lastInputUserName'
p32
NsS'memberList'
p33
ccopy_reg
_reconstructor
p34
(citchat.storage.templates
ContactList
p35
c__builtin__
list
p36
(lp37
g34
(citchat.storage.templates
User
p38
c__builtin__
dict
p39
(dp40
S'UserName'
p41
g31
sS'City'
p42
S''
p43
sS'DisplayName'
p44
g43
sS'UniFriend'
p45
I0
sS'OwnerUin'
p46
I0
sS'MemberList'
p47
g34
(g35
g36
(lp48
tp49
Rp50
I1
bsS'PYQuanPin'
p51
V
p52
sS'RemarkPYInitial'
p53
g52
sS'Uin'
p54
I200509586
sS'AppAccountFlag'
p55
I0
sS'VerifyFlag'
p56
I0
sS'Province'
p57
g43
sS'KeyWord'
p58
g43
sS'RemarkName'
p59
g52
sS'PYInitial'
p60
g52
sS'ChatRoomId'
p61
I0
sS'HideInputBarFlag'
p62
I0
sVHeadImgFlag
p63
I1
sS'EncryChatRoomId'
p64
g43
sS'AttrStatus'
p65
I0
sS'SnsFlag'
p66
I0
sS'MemberCount'
p67
I0
sVWebWxPluginSwitch
p68
I0
sS'Alias'
p69
g43
sS'Signature'
p70
g52
sS'ContactFlag'
p71
I0
sS'NickName'
p72
V\u673a\u5668\u4eba\u5c0f\u80d6
p73
sS'RemarkPYQuanPin'
p74
g52
sS'HeadImgUrl'
p75
V/cgi-bin/mmwebwx-bin/webwxgeticon?seq=800955558&username=@912194e3e1d95c6373855bdbbc6dff995313d670e2c59a02d5f266926c6ef7f3&skey=@crypt_49509d7f_e1ef6d3e8ef8e945a6eea05f41a9f79a
p76
sS'Sex'
p77
I1
sS'StarFriend'
p78
I0
sS'Statues'
p79
I0
stp80
Rp81
I1
bag34
(g38
g39
(dp82
VUserName
p83
V@a052a3a5ffff352e2cfd9027a43f9958
p84
sVCity
p85
g52
sVSnsFlag
p86
I17
sVDisplayName
p87
g52
sVUniFriend
p88
I0
sVMemberCount
p89
I0
sVOwnerUin
p90
I0
sVMemberList
p91
g50
sVAlias
p92
g52
sVPYQuanPin
p93
VCXY
p94
sVSignature
p95
V\u7b49\u98ce\u4e5f\u7b49\u4f60\u3002
p96
sVRemarkPYInitial
p97
VXYKTX
p98
sVContactFlag
p99
I1
sVUin
p100
I0
sVNickName
p101
V-C_XY-
p102
sVAppAccountFlag
p103
I0
sVVerifyFlag
p104
I0
sVRemarkPYQuanPin
p105
Vxinyongkataoxian
p106
sVHeadImgUrl
p107
V/cgi-bin/mmwebwx-bin/webwxgeticon?seq=673710066&username=@a052a3a5ffff352e2cfd9027a43f9958&skey=@crypt_49509d7f_e1ef6d3e8ef8e945a6eea05f41a9f79a
p108
sVKeyWord
p109
Vwux
p110
sVProvince
p111
g52
sVPYInitial
p112
VCXY
p113
sVRemarkName
p114
V\u4fe1\u7528\u5361\u5957\u73b0
p115
sVIsOwner
p116
I0
sVSex
p117
I2
sVStarFriend
p118
I0
sVHideInputBarFlag
p119
I0
sVChatRoomId
p120
I0
sVEncryChatRoomId
p121
g52
sVAttrStatus
p122
I111719
sVStatues
p123
I0
stp124
Rp125
I1
bag34
(g38
g39
(dp126
VUserName
p127
V@43543099fff35189872ad3965439f4d04364ded5acb63e13e627c15857bd4941
p128
sVCity
p129
V\u53a6\u95e8
p130
sVSnsFlag
p131
I1
sVDisplayName
p132
g52
sVUniFriend
p133
I0
sVMemberCount
p134
I0
sVOwnerUin
p135
I0
sVMemberList
p136
g50
sVAlias
p137
g52
sVPYQuanPin
p138
Vfeisehuiyi
p139
sVSignature
p140
V\u505a\u4e2a\u6e29\u67d4\uff0c\u9738\u6c14\u7684\uff0c\u6dd1\u5973\U0001f643\U0001f643
p141
sVRemarkPYInitial
p142
g52
sVContactFlag
p143
I1
sVUin
p144
I0
sVNickName
p145
V\u83f2\u8272\u56de\u5fc6
p146
sVAppAccountFlag
p147
I0
sVVerifyFlag
p148
I0
sVRemarkPYQuanPin
p149
g52
sVHeadImgUrl
p150
V/cgi-bin/mmwebwx-bin/webwxgeticon?seq=673715277&username=@43543099fff35189872ad3965439f4d04364ded5acb63e13e627c15857bd4941&skey=@crypt_49509d7f_e1ef6d3e8ef8e945a6eea05f41a9f79a
p151
sVKeyWord
p152
g52
sVProvince
p153
V\u798f\u5efa
p154
sVPYInitial
p155
VFSHY
p156
sVRemarkName
p157
g52
sVIsOwner
p158
I0
sVSex
p159
I2
sVStarFriend
p160
I0
sVHideInputBarFlag
p161
I0
sVChatRoomId
p162
I0
sVEncryChatRoomId
p163
g52
sVAttrStatus
p164
I102589
sVStatues
p165
I0
stp166
Rp167
I1
bag34
(g38
g39
(dp168
VUserName
p169
V@efd2bd9153a0d87b57a048f2a094eb6a8ccf41c1dac8b9c451a88ab0a11794ac
p170
sVCity
p171
g52
sVSnsFlag
p172
I1
sVDisplayName
p173
g52
sVUniFriend
p174
I0
sVMemberCount
p175
I0
sVOwnerUin
p176
I0
sVMemberList
p177
g50
sVAlias
p178
g52
sVPYQuanPin
p179
VMolly
p180
sVSignature
p181
V\u5c3d\u4eba\u4e8b\u542c\u5929\u610f\uff01
p182
sVRemarkPYInitial
p183
g52
sVContactFlag
p184
I1
sVUin
p185
I0
sVNickName
p186
VMolly
p187
sVAppAccountFlag
p188
I0
sVVerifyFlag
p189
I0
sVRemarkPYQuanPin
p190
g52
sVHeadImgUrl
p191
V/cgi-bin/mmwebwx-bin/webwxgeticon?seq=673715616&username=@efd2bd9153a0d87b57a048f2a094eb6a8ccf41c1dac8b9c451a88ab0a11794ac&skey=@crypt_49509d7f_e1ef6d3e8ef8e945a6eea05f41a9f79a
p192
sVKeyWord
p193
g52
sVProvince
p194
g52
sVPYInitial
p195
VMOLLY
p196
sVRemarkName
p197
g52
sVIsOwner
p198
I0
sVSex
p199
I2
sVStarFriend
p200
I0
sVHideInputBarFlag
p201
I0
sVChatRoomId
p202
I0
sVEncryChatRoomId
p203
g52
sVAttrStatus
p204
I234083
sVStatues
p205
I0
stp206
Rp207
I1
bag34
(g38
g39
(dp208
VUserName
p209
V@4c17e60f01fa3b36408cd1e54307b8fc8d2bd7154222b6039240ef81ea13448b
p210
sVCity
p211
g52
sVSnsFlag
p212
I1
sVDisplayName
p213
g52
sVUniFriend
p214
I0
sVMemberCount
p215
I0
sVOwnerUin
p216
I0
sVMemberList
p217
g50
sVAlias
p218
g52
sVPYQuanPin
p219
Vchuanguoliushui
p220
sVSignature
p221
V\u53ea\u4e3a\u4e00\u4eba\u7559
p222
sVRemarkPYInitial
p223
g52
sVContactFlag
p224
I1
sVUin
p225
I0
sVNickName
p226
V\u7a7f\u8fc7\u6d41\u6c34
p227
sVAppAccountFlag
p228
I0
sVVerifyFlag
p229
I0
sVRemarkPYQuanPin
p230
g52
sVHeadImgUrl
p231
V/cgi-bin/mmwebwx-bin/webwxgeticon?seq=673714836&username=@4c17e60f01fa3b36408cd1e54307b8fc8d2bd7154222b6039240ef81ea13448b&skey=@crypt_49509d7f_e1ef6d3e8ef8e945a6eea05f41a9f79a
p232
sVKeyWord
p233
g52
sVProvince
p234
VKowloon City
p235
sVPYInitial
p236
VCGLS
p237
sVRemarkName
p238
g52
sVIsOwner
p239
I0
sVSex
p240
I1
sVStarFriend
p241
I0
sVHideInputBarFlag
p242
I0
sVChatRoomId
p243
I0
sVEncryChatRoomId
p244
g52
sVAttrStatus
p245
I33690405
sVStatues
p246
I0
stp247
Rp248
I1
bag34
(g38
g39
(dp249
VUserName
p250
V@71cd976469ae58a5d7d19646a7462f74
p251
sVCity
p252
V\u65e0\u9521
p253
sVSnsFlag
p254
I177
sVDisplayName
p255
g52
sVUniFriend
p256
I0
sVMemberCount
p257
I0
sVOwnerUin
p258
I0
sVMemberList
p259
g50
sVAlias
p260
g52
sVPYQuanPin
p261
VjietouebaZip
p262
sVSignature
p263
VStreet Bully\u521b\u59cb\u4eba\u3001\u72d7\u4e0d\u61c2\u521b\u59cb\u4eba\uff0c\u72d7\u884c\u4e3a\u5b66\u3001\u5fc3\u7406\u5b66\u7814\u7a76\u8005
p264
sVRemarkPYInitial
p265
g52
sVContactFlag
p266
I1
sVUin
p267
I0
sVNickName
p268
V\u8857\u982d\u60e1\u9738\u3010Zip\u3011
p269
sVAppAccountFlag
p270
I0
sVVerifyFlag
p271
I0
sVRemarkPYQuanPin
p272
g52
sVHeadImgUrl
p273
V/cgi-bin/mmwebwx-bin/webwxgeticon?seq=673713460&username=@71cd976469ae58a5d7d19646a7462f74&skey=@crypt_49509d7f_e1ef6d3e8ef8e945a6eea05f41a9f79a
p274
sVKeyWord
p275
Vtr8
p276
sVProvince
p277
V\u6c5f\u82cf
p278
sVPYInitial
p279
VJTEBZIP
p280
sVRemarkName
p281
g52
sVIsOwner
p282
I0
sVSex
p283
I1
sVStarFriend
p284
I0
sVHideInputBarFlag
p285
I0
sVChatRoomId
p286
I0
sVEncryChatRoomId
p287
g52
sVAttrStatus
p288
I2147564455
sVStatues
p289
I0
stp290
Rp291
I1
bag34
(g38
g39
(dp292
VUserName
p293
V@b35950c84ad66cfa60b8e6b486e74d7134e02a9648687a57c6f5d294a36332d6
p294
sVCity
p295
VOthers
p296
sVSnsFlag
p297
I1
sVDisplayName
p298
g52
sVUniFriend
p299
I0
sVMemberCount
p300
I0
sVOwnerUin
p301
I0
sVMemberList
p302
g50
sVAlias
p303
g52
sVPYQuanPin
p304
Vabbyhuanerspanclassemojiemoji1f48bspanspanclassemojiemoji1f6baspan
p305
sVSignature
p306
V\u8ba9\u8721\u70db\u4ee3\u66ff\u6240\u6709\u706f \u8ba9\u97f3\u4e50\u4ee3\u66ff\u8bdd\u8bed\u58f0 \u6b64\u65f6\u65e0\u58f0\u80dc\u6709\u58f0
p307
sVRemarkPYInitial
p308
g52
sVContactFlag
p309
I3
sVUin
p310
I0
sVNickName
p311
Vabby\u6b22\u513f\U0001f48b\U0001f6ba
p312
sVAppAccountFlag
p313
I0
sVVerifyFlag
p314
I0
sVRemarkPYQuanPin
p315
g52
sVHeadImgUrl
p316
V/cgi-bin/mmwebwx-bin/webwxgeticon?seq=673716056&username=@b35950c84ad66cfa60b8e6b486e74d7134e02a9648687a57c6f5d294a36332d6&skey=@crypt_49509d7f_e1ef6d3e8ef8e945a6eea05f41a9f79a
p317
sVKeyWord
p318
g52
sVProvince
p319
VKuala Lumpur
p320
sVPYInitial
p321
VABBYHESPANCLASSEMOJIEMOJI1F48BSPANSPANCLASSEMOJIEMOJI1F6BASPAN
p322
sVRemarkName
p323
g52
sVIsOwner
p324
I0
sVSex
p325
I2
sVStarFriend
p326
I0
sVHideInputBarFlag
p327
I0
sVChatRoomId
p328
I0
sVEncryChatRoomId
p329
g52
sVAttrStatus
p330
I33656869
sVStatues
p331
I0
stp332
Rp333
I1
bag34
(g38
g39
(dp334
VUserName
p335
V@26a969b0c5d3e27ba5d5453b206ae69acf43fbe1a790962fe0e43e3aa148f38b
p336
sVCity
p337
V\u6d66\u4e1c\u65b0\u533a
p338
sVSnsFlag
p339
I1
sVDisplayName
p340
g52
sVUniFriend
p341
I0
sVMemberCount
p342
I0
sVOwnerUin
p343
I0
sVMemberList
p344
g50
sVAlias
p345
g52
sVPYQuanPin
p346
Vyannispanclassemojiemoji1f485span?
p347
sVSignature
p348
V\u4f60\u82e5\u76db\u5f00\uff0c\u8774\u8776\u81ea\u6765\u2026\u2026
p349
sVRemarkPYInitial
p350
g52
sVContactFlag
p351
I1
sVUin
p352
I0
sVNickName
p353
V\u71d5\u59ae\U0001f485\U0001f3fb
p354
sVAppAccountFlag
p355
I0
sVVerifyFlag
p356
I0
sVRemarkPYQuanPin
p357
g52
sVHeadImgUrl
p358
V/cgi-bin/mmwebwx-bin/webwxgeticon?seq=673715724&username=@26a969b0c5d3e27ba5d5453b206ae69acf43fbe1a790962fe0e43e3aa148f38b&skey=@crypt_49509d7f_e1ef6d3e8ef8e945a6eea05f41a9f79a
p359
sVKeyWord
p360
g52
sVProvince
p361
V\u4e0a\u6d77
p362
sVPYInitial
p363
VYNSPANCLASSEMOJIEMOJI1F485SPAN?
p364
sVRemarkName
p365
g52
sVIsOwner
p366
I0
sVSex
p367
I2
sVStarFriend
p368
I0
sVHideInputBarFlag
p369
I0
sVChatRoomId
p370
I0
sVEncryChatRoomId
p371
g52
sVAttrStatus
p372
I103205
sVStatues
p373
I0
stp374
Rp375
I1
bag34
(g38
g39
(dp376
VUserName
p377
V@e5cbcf4f76125fa4a78cfd17a30cc9bdeaef32135e7037d1f3e2c1a813b4200a
p378
sVCity
p379
g52
sVSnsFlag
p380
I1
sVDisplayName
p381
g52
sVUniFriend
p382
I0
sVMemberCount
p383
I0
sVOwnerUin
p384
I0
sVMemberList
p385
g50
sVAlias
p386
g52
sVPYQuanPin
p387
Vmeiniang
p388
sVSignature
p389
g52
sVRemarkPYInitial
p390
g52
sVContactFlag
p391
I3
sVUin
p392
I0
sVNickName
p393
V\u5a9a\u5a18
p394
sVAppAccountFlag
p395
I0
sVVerifyFlag
p396
I0
sVRemarkPYQuanPin
p397
g52
sVHeadImgUrl
p398
V/cgi-bin/mmwebwx-bin/webwxgeticon?seq=673716400&username=@e5cbcf4f76125fa4a78cfd17a30cc9bdeaef32135e7037d1f3e2c1a813b4200a&skey=@crypt_49509d7f_e1ef6d3e8ef8e945a6eea05f41a9f79a
p399
sVKeyWord
p400
g52
sVProvince
p401
g52
sVPYInitial
p402
VMN
p403
sVRemarkName
p404
g52
sVIsOwner
p405
I0
sVSex
p406
I1
sVStarFriend
p407
I0
sVHideInputBarFlag
p408
I0
sVChatRoomId
p409
I0
sVEncryChatRoomId
p410
g52
sVAttrStatus
p411
I234081
sVStatues
p412
I0
stp413
Rp414
I1
bag34
(g38
g39
(dp415
VUserName
p416
V@62e8900607444c4d2e534d7fc9018bcade98ed43f201cb38ce2e3e2b53c372a1
p417
sVCity
p418
g52
sVSnsFlag
p419
I1
sVDisplayName
p420
g52
sVUniFriend
p421
I0
sVMemberCount
p422
I0
sVOwnerUin
p423
I0
sVMemberList
p424
g50
sVAlias
p425
g52
sVPYQuanPin
p426
VAkuaidiyouhuiquanbudingjigengxin
p427
sVSignature
p428
V\u963f\u8fea\u8fbe\u65af\u7ae5\u88c5  \u65ad\u7801\u7279\u4ef7
p429
sVRemarkPYInitial
p430
g52
sVContactFlag
p431
I3
sVUin
p432
I0
sVNickName
p433
VA\u5feb\u9012\u4f18\u60e0\u5238 \u4e0d\u5b9a\u671f\u66f4\u65b0
p434
sVAppAccountFlag
p435
I0
sVVerifyFlag
p436
I0
sVRemarkPYQuanPin
p437
g52
sVHeadImgUrl
p438
V/cgi-bin/mmwebwx-bin/webwxgeticon?seq=673716439&username=@62e8900607444c4d2e534d7fc9018bcade98ed43f201cb38ce2e3e2b53c372a1&skey=@crypt_49509d7f_e1ef6d3e8ef8e945a6eea05f41a9f79a
p439
sVKeyWord
p440
g52
sVProvince
p441
g52
sVPYInitial
p442
VAKDYHQBDJGX
p443
sVRemarkName
p444
g52
sVIsOwner
p445
I0
sVSex
p446
I1
sVStarFriend
p447
I0
sVHideInputBarFlag
p448
I0
sVChatRoomId
p449
I0
sVEncryChatRoomId
p450
g52
sVAttrStatus
p451
I135205
sVStatues
p452
I0
stp453
Rp454
I1
bag34
(g38
g39
(dp455
VUserName
p456
V@d891760d867d5517bc4b5f3a6a3e212eeeda9589c04e1f0964756330e4c411e7
p457
sVCity
p458
V\u6df1\u5733
p459
sVSnsFlag
p460
I49
sVDisplayName
p461
g52
sVUniFriend
p462
I0
sVMemberCount
p463
I0
sVOwnerUin
p464
I0
sVMemberList
p465
g50
sVAlias
p466
g52
sVPYQuanPin
p467
Vfanjiamianspanclassemojiemoji1f345span
p468
sVSignature
p469
V    
p470
sVRemarkPYInitial
p471
g52
sVContactFlag
p472
I1
sVUin
p473
I0
sVNickName
p474
V\u756a\u8304\u9762\U0001f345
p475
sVAppAccountFlag
p476
I0
sVVerifyFlag
p477
I0
sVRemarkPYQuanPin
p478
g52
sVHeadImgUrl
p479
V/cgi-bin/mmwebwx-bin/webwxgeticon?seq=673716441&username=@d891760d867d5517bc4b5f3a6a3e212eeeda9589c04e1f0964756330e4c411e7&skey=@crypt_49509d7f_e1ef6d3e8ef8e945a6eea05f41a9f79a
p480
sVKeyWord
p481
g52
sVProvince
p482
V\u5e7f\u4e1c
p483
sVPYInitial
p484
VFJMSPANCLASSEMOJIEMOJI1F345SPAN
p485
sVRemarkName
p486
g52
sVIsOwner
p487
I0
sVSex
p488
I1
sVStarFriend
p489
I0
sVHideInputBarFlag
p490
I0
sVChatRoomId
p491
I0
sVEncryChatRoomId
p492
g52
sVAttrStatus
p493
I100539
sVStatues
p494
I0
stp495
Rp496
I1
bag34
(g38
g39
(dp497
VUserName
p498
V@d2edfc4f1413a293f54f72b657ee5f36
p499
sVCity
p500
V\u4e1c\u57ce
p501
sVSnsFlag
p502
I17
sVDisplayName
p503
g52
sVUniFriend
p504
I0
sVMemberCount
p505
I0
sVOwnerUin
p506
I0
sVMemberList
p507
g50
sVAlias
p508
g52
sVPYQuanPin
p509
Vpengcheng
p510
sVSignature
p511
V\u672a\u6765\u4e0d\u8fce\uff0c\u5f53\u65f6\u4e0d\u6742\uff0c\u8fc7\u5f80\u4e0d\u604b
p512
sVRemarkPYInitial
p513
g52
sVContactFlag
p514
I3
sVUin
p515
I0
sVNickName
p516
V\u9e4f\u7a0b
p517
sVAppAccountFlag
p518
I0
sVVerifyFlag
p519
I0
sVRemarkPYQuanPin
p520
g52
sVHeadImgUrl
p521
V/cgi-bin/mmwebwx-bin/webwxgeticon?seq=669180196&username=@d2edfc4f1413a293f54f72b657ee5f36&skey=@crypt_49509d7f_e1ef6d3e8ef8e945a6eea05f41a9f79a
p522
sVKeyWord
p523
Vwar
p524
sVProvince
p525
V\u5317\u4eac
p526
sVPYInitial
p527
VPC
p528
sVRemarkName
p529
g52
sVIsOwner
p530
I0
sVSex
p531
I1
sVStarFriend
p532
I0
sVHideInputBarFlag
p533
I0
sVChatRoomId
p534
I0
sVEncryChatRoomId
p535
g52
sVAttrStatus
p536
I33691111
sVStatues
p537
I0
stp538
Rp539
I1
bag34
(g38
g39
(dp540
VUserName
p541
V@e2eea950c8a622fdada45e0c831b5e328efe0b3058aed3e5627c82366c230e28
p542
sVCity
p543
g52
sVSnsFlag
p544
I1
sVDisplayName
p545
g52
sVUniFriend
p546
I0
sVMemberCount
p547
I0
sVOwnerUin
p548
I0
sVMemberList
p549
g50
sVAlias
p550
g52
sVPYQuanPin
p551
Vddd
p552
sVSignature
p553
g52
sVRemarkPYInitial
p554
g52
sVContactFlag
p555
I3
sVUin
p556
I0
sVNickName
p557
Vddd
p558
sVAppAccountFlag
p559
I0
sVVerifyFlag
p560
I0
sVRemarkPYQuanPin
p561
g52
sVHeadImgUrl
p562
V/cgi-bin/mmwebwx-bin/webwxgeticon?seq=673716459&username=@e2eea950c8a622fdada45e0c831b5e328efe0b3058aed3e5627c82366c230e28&skey=@crypt_49509d7f_e1ef6d3e8ef8e945a6eea05f41a9f79a
p563
sVKeyWord
p564
g52
sVProvince
p565
g52
sVPYInitial
p566
VDDD
p567
sVRemarkName
p568
g52
sVIsOwner
p569
I0
sVSex
p570
I0
sVStarFriend
p571
I0
sVHideInputBarFlag
p572
I0
sVChatRoomId
p573
I0
sVEncryChatRoomId
p574
g52
sVAttrStatus
p575
I4641
sVStatues
p576
I0
stp577
Rp578
I1
batp579
Rp580
I1
bsS'chatroomList'
p581
g34
(g35
g36
(lp582
g34
(citchat.storage.templates
Chatroom
p583
g39
(dp584
VUserName
p585
V@@6233dd479c4e69dbc17f450e7f5c54ff9a975308aa3640dd994b63401ea01a56
p586
sVCity
p587
g52
sVDisplayName
p588
g52
sVUniFriend
p589
I0
sS'Self'
p590
g34
(g38
g39
(dp591
g41
g31
sg42
g43
sg44
g43
sg45
I0
sg46
I0
sg47
g34
(g35
g36
(lp592
tp593
Rp594
I1
bsg51
g52
sg53
g52
sg54
I200509586
sg55
I0
sg56
I0
sg57
g43
sg58
g43
sg59
g52
sg60
g52
sg61
I0
sg62
I0
sg63
I1
sg64
g43
sg65
I0
sg66
I0
sg67
I0
sg68
I0
sg69
g43
sg70
g52
sg71
I0
sg72
g73
sg74
g52
sg75
g76
sg77
I1
sg78
I0
sg79
I0
stp595
Rp596
I1
bsVMemberList
p597
g34
(g35
g36
(lp598
tp599
Rp600
I1
bsVPYQuanPin
p601
g52
sVRemarkPYInitial
p602
g52
sVSex
p603
I0
sVAppAccountFlag
p604
I0
sVVerifyFlag
p605
I0
sVProvince
p606
g52
sVKeyWord
p607
g52
sVRemarkName
p608
g52
sVPYInitial
p609
g52
sVIsOwner
p610
I0
sVChatRoomId
p611
I0
sVHideInputBarFlag
p612
I0
sVEncryChatRoomId
p613
g52
sVAttrStatus
p614
I0
sVSnsFlag
p615
I0
sVMemberCount
p616
I500
sVOwnerUin
p617
I0
sVAlias
p618
g52
sS'IsAdmin'
p619
NsVSignature
p620
g52
sVContactFlag
p621
I2
sVNickName
p622
VRedis\u6280\u672f\u4ea4\u6d41\u7fa4
p623
sVRemarkPYQuanPin
p624
g52
sVHeadImgUrl
p625
V/cgi-bin/mmwebwx-bin/webwxgetheadimg?seq=673717616&username=@@6233dd479c4e69dbc17f450e7f5c54ff9a975308aa3640dd994b63401ea01a56&skey=@crypt_49509d7f_e1ef6d3e8ef8e945a6eea05f41a9f79a
p626
sVUin
p627
I0
sVStarFriend
p628
I0
sVStatues
p629
I1
stp630
Rp631
I1
bag34
(g583
g39
(dp632
VUserName
p633
V@@5e252c27e25d810d5e81b418353b103140f67f40462cc1161025f5971b76129e
p634
sVCity
p635
g52
sVDisplayName
p636
g52
sVUniFriend
p637
I0
sg590
g34
(g38
g39
(dp638
g41
g31
sg42
g43
sg44
g43
sg45
I0
sg46
I0
sg47
g34
(g35
g36
(lp639
tp640
Rp641
I1
bsg51
g52
sg53
g52
sg54
I200509586
sg55
I0
sg56
I0
sg57
g43
sg58
g43
sg59
g52
sg60
g52
sg61
I0
sg62
I0
sg63
I1
sg64
g43
sg65
I0
sg66
I0
sg67
I0
sg68
I0
sg69
g43
sg70
g52
sg71
I0
sg72
g73
sg74
g52
sg75
g76
sg77
I1
sg78
I0
sg79
I0
stp642
Rp643
I1
bsVMemberList
p644
g34
(g35
g36
(lp645
tp646
Rp647
I1
bsVPYQuanPin
p648
g52
sVRemarkPYInitial
p649
g52
sVSex
p650
I0
sVAppAccountFlag
p651
I0
sVVerifyFlag
p652
I0
sVProvince
p653
g52
sVKeyWord
p654
g52
sVRemarkName
p655
g52
sVPYInitial
p656
g52
sVIsOwner
p657
I0
sVChatRoomId
p658
I0
sVHideInputBarFlag
p659
I0
sVEncryChatRoomId
p660
g52
sVAttrStatus
p661
I0
sVSnsFlag
p662
I0
sVMemberCount
p663
I479
sVOwnerUin
p664
I0
sVAlias
p665
g52
sg619
NsVSignature
p666
g52
sVContactFlag
p667
I0
sVNickName
p668
VRedis\u6280\u672f\u4ea4\u6d41\u7fa42
p669
sVRemarkPYQuanPin
p670
g52
sVHeadImgUrl
p671
V/cgi-bin/mmwebwx-bin/webwxgetheadimg?seq=0&username=@@5e252c27e25d810d5e81b418353b103140f67f40462cc1161025f5971b76129e&skey=@crypt_49509d7f_e1ef6d3e8ef8e945a6eea05f41a9f79a
p672
sVUin
p673
I0
sVStarFriend
p674
I0
sVStatues
p675
I1
stp676
Rp677
I1
batp678
Rp679
I1
bsS'nickName'
p680
g73
sS'mpList'
p681
g34
(g35
g36
(lp682
g34
(citchat.storage.templates
MassivePlatform
p683
g39
(dp684
VUserName
p685
V@8b10ba0df721497a42f6f4f575222a05
p686
sVCity
p687
V\u6df1\u5733
p688
sVSnsFlag
p689
I0
sVDisplayName
p690
g52
sVUniFriend
p691
I0
sVMemberCount
p692
I0
sVOwnerUin
p693
I0
sVMemberList
p694
g50
sVAlias
p695
g52
sVPYQuanPin
p696
Vfengchaozhinenggui
p697
sVSignature
p698
V\u5173\u6ce8\u4e30\u5de2\u670d\u52a1\u53f7\uff0c\u7b2c\u4e00\u65f6\u95f4\u63a5\u6536\u60a8\u7684\u5feb\u4ef6\u7269\u6d41\u63d0\u9192\uff01\u63d0\u4f9b24\u5c0f\u65f6\u81ea\u52a9\u5bc4\u5feb\u9012\u3001\u7535\u5546\u8d2d\u7269\u3001\u6682\u5b58\u7269\u54c1\u3001\u5a92\u4f53\u4e92\u52a8\u7b49\u4e00\u7ad9\u5f0f\u751f\u6d3b\u670d\u52a1\uff0c\u8ba9\u751f\u6d3b\u66f4\u7b80\u5355\uff01
p699
sVRemarkPYInitial
p700
g52
sVContactFlag
p701
I3
sVUin
p702
I0
sVNickName
p703
V\u4e30\u5de2\u667a\u80fd\u67dc
p704
sVAppAccountFlag
p705
I0
sVVerifyFlag
p706
I24
sVRemarkPYQuanPin
p707
g52
sVHeadImgUrl
p708
V/cgi-bin/mmwebwx-bin/webwxgeticon?seq=673711737&username=@8b10ba0df721497a42f6f4f575222a05&skey=@crypt_49509d7f_e1ef6d3e8ef8e945a6eea05f41a9f79a
p709
sVKeyWord
p710
Vgh_
p711
sVProvince
p712
V\u5e7f\u4e1c
p713
sVPYInitial
p714
VFCZNG
p715
sVRemarkName
p716
g52
sVIsOwner
p717
I0
sVSex
p718
I0
sVStarFriend
p719
I0
sVHideInputBarFlag
p720
I0
sVChatRoomId
p721
I0
sVEncryChatRoomId
p722
g52
sVAttrStatus
p723
I0
sVStatues
p724
I0
stp725
Rp726
I1
bag34
(g683
g39
(dp727
VUserName
p728
V@cc3ab0aa559b873047074e71ae74f1fd
p729
sVCity
p730
V\u5e7f\u5dde
p731
sVSnsFlag
p732
I0
sVDisplayName
p733
g52
sVUniFriend
p734
I0
sVMemberCount
p735
I0
sVOwnerUin
p736
I0
sVMemberList
p737
g50
sVAlias
p738
g52
sVPYQuanPin
p739
Vyikushaonv
p740
sVSignature
p741
V\u5173\u6ce8\u4e0d\u4e86\uff1f \u8bf7\u641c\u7d22\u5173\u6ce8\uff1a\u5947\u8da3\u62a5\u793e\u65b0\u53f7
p742
sVRemarkPYInitial
p743
g52
sVContactFlag
p744
I3
sVUin
p745
I0
sVNickName
p746
V\u4e00\u5e93\u5c11\u5973
p747
sVAppAccountFlag
p748
I0
sVVerifyFlag
p749
I8
sVRemarkPYQuanPin
p750
g52
sVHeadImgUrl
p751
V/cgi-bin/mmwebwx-bin/webwxgeticon?seq=673712037&username=@cc3ab0aa559b873047074e71ae74f1fd&skey=@crypt_49509d7f_e1ef6d3e8ef8e945a6eea05f41a9f79a
p752
sVKeyWord
p753
Vgh_
p754
sVProvince
p755
V\u5e7f\u4e1c
p756
sVPYInitial
p757
VYKSN
p758
sVRemarkName
p759
g52
sVIsOwner
p760
I0
sVSex
p761
I0
sVStarFriend
p762
I0
sVHideInputBarFlag
p763
I0
sVChatRoomId
p764
I0
sVEncryChatRoomId
p765
g52
sVAttrStatus
p766
I0
sVStatues
p767
I0
stp768
Rp769
I1
bag34
(g683
g39
(dp770
VUserName
p771
V@c58190a7b02fc58e60dd0e78638ebad5
p772
sVCity
p773
V\u6df1\u5733
p774
sVSnsFlag
p775
I0
sVDisplayName
p776
g52
sVUniFriend
p777
I0
sVMemberCount
p778
I0
sVOwnerUin
p779
I0
sVMemberList
p780
g50
sVAlias
p781
g52
sVPYQuanPin
p782
Vqiyueyingku
p783
sVSignature
p784
V\u56e0\u4e3a\u7231\u7535\u5f71\uff0c\u6240\u4ee5\u4e0d\u5bc2\u5bde\u3002
p785
sVRemarkPYInitial
p786
g52
sVContactFlag
p787
I3
sVUin
p788
I0
sVNickName
p789
V\u4e03\u6708\u5f71\u5e93
p790
sVAppAccountFlag
p791
I0
sVVerifyFlag
p792
I24
sVRemarkPYQuanPin
p793
g52
sVHeadImgUrl
p794
V/cgi-bin/mmwebwx-bin/webwxgeticon?seq=673715022&username=@c58190a7b02fc58e60dd0e78638ebad5&skey=@crypt_49509d7f_e1ef6d3e8ef8e945a6eea05f41a9f79a
p795
sVKeyWord
p796
Vgh_
p797
sVProvince
p798
V\u5e7f\u4e1c
p799
sVPYInitial
p800
VQYYK
p801
sVRemarkName
p802
g52
sVIsOwner
p803
I0
sVSex
p804
I0
sVStarFriend
p805
I0
sVHideInputBarFlag
p806
I0
sVChatRoomId
p807
I0
sVEncryChatRoomId
p808
g52
sVAttrStatus
p809
I0
sVStatues
p810
I0
stp811
Rp812
I1
bag34
(g683
g39
(dp813
VUserName
p814
V@e8a68e9bf32983fd8a3475cf338e488a
p815
sVCity
p816
V\u9752\u6d66
p817
sVSnsFlag
p818
I0
sVDisplayName
p819
g52
sVUniFriend
p820
I0
sVMemberCount
p821
I0
sVOwnerUin
p822
I0
sVMemberList
p823
g50
sVAlias
p824
g52
sVPYQuanPin
p825
Vdebangkuaidi
p826
sVSignature
p827
V\u5173\u6ce8\u7acb\u4eab2\u52305\u5143\u4f18\u60e0\u5238\uff0c\u5b9e\u65f6\u83b7\u53d6\u8d27\u7269\u52a8\u6001
p828
sVRemarkPYInitial
p829
g52
sVContactFlag
p830
I3
sVUin
p831
I0
sVNickName
p832
V\u5fb7\u90a6\u5feb\u9012
p833
sVAppAccountFlag
p834
I0
sVVerifyFlag
p835
I24
sVRemarkPYQuanPin
p836
g52
sVHeadImgUrl
p837
V/cgi-bin/mmwebwx-bin/webwxgeticon?seq=673716437&username=@e8a68e9bf32983fd8a3475cf338e488a&skey=@crypt_49509d7f_e1ef6d3e8ef8e945a6eea05f41a9f79a
p838
sVKeyWord
p839
Vgh_
p840
sVProvince
p841
V\u4e0a\u6d77
p842
sVPYInitial
p843
VDBKD
p844
sVRemarkName
p845
g52
sVIsOwner
p846
I0
sVSex
p847
I0
sVStarFriend
p848
I0
sVHideInputBarFlag
p849
I0
sVChatRoomId
p850
I0
sVEncryChatRoomId
p851
g52
sVAttrStatus
p852
I0
sVStatues
p853
I0
stp854
Rp855
I1
batp856
Rp857
I1
bssS'loginInfo'
p858
(dp859
S'SyncKey'
p860
(dp861
VCount
p862
I4
sVList
p863
(lp864
(dp865
VVal
p866
I673717692
sVKey
p867
I1
sa(dp868
VVal
p869
I673717693
sVKey
p870
I2
sa(dp871
VVal
p872
I673717450
sVKey
p873
I3
sa(dp874
VVal
p875
I1556235798
sVKey
p876
I1000
sassS'syncUrl'
p877
S'https://webpush.wx2.qq.com/cgi-bin/mmwebwx-bin'
p878
sS'skey'
p879
V@crypt_49509d7f_e1ef6d3e8ef8e945a6eea05f41a9f79a
p880
sS'wxuin'
p881
V200509586
p882
sS'synckey'
p883
S'1_673717692|2_673717693|3_673717450|1000_1556235798'
p884
sS'url'
p885
Vhttps://wx2.qq.com/cgi-bin/mmwebwx-bin
p886
sS'pass_ticket'
p887
V7DcNvkuyfXBunHrvz5vZnJ%2BHjcT3wOY7ySU3xoKY7%2Bo%3D
p888
sS'wxsid'
p889
VLyF9h8W71OefPG0A
p890
sS'User'
p891
g34
(g38
g39
(dp892
g41
g31
sg42
g43
sg44
g43
sg45
I0
sg47
g50
sg51
g52
sg53
g52
sg77
I1
sg55
I0
sg56
I0
sg57
g43
sg58
g43
sg59
g52
sg60
g52
sg61
I0
sg62
I0
sg63
I1
sg64
g43
sg65
I0
sg68
I0
sg66
I0
sg67
I0
sg46
I0
sg69
g43
sg70
g52
sg71
I0
sg72
g73
sg74
g52
sg75
g76
sg54
I200509586
sg78
I0
sg79
I0
stp893
Rp894
I1
bsS'InviteStartCount'
p895
I40
sS'fileUrl'
p896
S'https://file.wx2.qq.com/cgi-bin/mmwebwx-bin'
p897
sS'BaseRequest'
p898
(dp899
g54
g882
sS'Skey'
p900
g880
sS'DeviceID'
p901
g888
sS'Sid'
p902
g890
ssS'deviceid'
p903
S'e280030592994376'
p904
ss.