(dp0
S'cookies'
p1
(dp2
S'wxloadtime'
p3
S'1557628657'
p4
sS'webwx_data_ticket'
p5
S'gSdEaSyqV2nQKeWnYAaDnsQo'
p6
sS'wxuin'
p7
S'200509586'
p8
sS'login_frequency'
p9
S'2'
p10
sS'MM_WX_NOTIFY_STATE'
p11
S'1'
p12
sS'MM_WX_SOUND_STATE'
p13
g12
sS'webwx_auth_ticket'
p14
S'CIsBEIiN56cMGoABwJNGGFEg/zYe0tKVws6GDNYIH4IXdR+mvQhXhNcfxgpudv/mV+faiZGE1WmBWkpvgPviqDOQXCC4VDG1/Aw3yGKZOlMKjcYhEsTwhwMzLQIg1hf5UpgZ9yoQ6Bro8LfPDuxvrioLKbP/36CXJneELyPb1/i5cLQXnAocq3RasNc='
p15
sS'last_wxuin'
p16
S'200509586'
p17
sS'webwxuvid'
p18
S'd67c82d1011316d7673811e3409b28781876bbba4c1b52acfab654de17b1e8998401369bfd8f88a4f7be1b8079c6640d'
p19
sS'wxpluginkey'
p20
S'1556246230'
p21
sS'wxsid'
p22
S'BgQySsvdV1Fr4Z8y'
p23
sS'mm_lang'
p24
S'zh_CN'
p25
ssS'version'
p26
S'1.3.10'
p27
sS'storage'
p28
(dp29
S'userName'
p30
V@58094fc36d2e725a09866e0dca83732dbca3da48bb2131efa80832ba9e38b587
p31
sS'lastInputUserName'
p32
NsS'memberList'
p33
ccopy_reg
_reconstructor
p34
(citchat.storage.templates
ContactList
p35
c__builtin__
list
p36
(lp37
g34
(citchat.storage.templates
User
p38
c__builtin__
dict
p39
(dp40
S'UserName'
p41
g31
sS'City'
p42
S''
p43
sS'DisplayName'
p44
g43
sS'UniFriend'
p45
I0
sS'OwnerUin'
p46
I0
sS'MemberList'
p47
g34
(g35
g36
(lp48
tp49
Rp50
I1
bsS'PYQuanPin'
p51
V
p52
sS'RemarkPYInitial'
p53
g52
sS'Uin'
p54
I200509586
sS'AppAccountFlag'
p55
I0
sS'VerifyFlag'
p56
I0
sS'Province'
p57
g43
sS'KeyWord'
p58
g43
sS'RemarkName'
p59
g52
sS'PYInitial'
p60
g52
sS'ChatRoomId'
p61
I0
sS'HideInputBarFlag'
p62
I0
sVHeadImgFlag
p63
I1
sS'EncryChatRoomId'
p64
g43
sS'AttrStatus'
p65
I0
sS'SnsFlag'
p66
I0
sS'MemberCount'
p67
I0
sVWebWxPluginSwitch
p68
I0
sS'Alias'
p69
g43
sS'Signature'
p70
g52
sS'ContactFlag'
p71
I0
sS'NickName'
p72
V\u673a\u5668\u4eba\u5c0f\u80d6
p73
sS'RemarkPYQuanPin'
p74
g52
sS'HeadImgUrl'
p75
V/cgi-bin/mmwebwx-bin/webwxgeticon?seq=1707352817&username=@58094fc36d2e725a09866e0dca83732dbca3da48bb2131efa80832ba9e38b587&skey=@crypt_49509d7f_9a5645f1ad4ca887a5a863fcfa26b057
p76
sS'Sex'
p77
I1
sS'StarFriend'
p78
I0
sS'Statues'
p79
I0
stp80
Rp81
I1
bag34
(g38
g39
(dp82
VUserName
p83
V@6f783744ff439d2a9719f5f5e9fcd585
p84
sVCity
p85
g52
sVSnsFlag
p86
I17
sVDisplayName
p87
g52
sVUniFriend
p88
I0
sVMemberCount
p89
I0
sVOwnerUin
p90
I0
sVMemberList
p91
g50
sVAlias
p92
g52
sVPYQuanPin
p93
VCXY
p94
sVSignature
p95
V\u7b49\u98ce\u4e5f\u7b49\u4f60\u3002
p96
sVRemarkPYInitial
p97
VXYKTX
p98
sVContactFlag
p99
I1
sVUin
p100
I0
sVNickName
p101
V-C_XY-
p102
sVAppAccountFlag
p103
I0
sVVerifyFlag
p104
I0
sVRemarkPYQuanPin
p105
Vxinyongkataoxian
p106
sVHeadImgUrl
p107
V/cgi-bin/mmwebwx-bin/webwxgeticon?seq=673710066&username=@6f783744ff439d2a9719f5f5e9fcd585&skey=@crypt_49509d7f_9a5645f1ad4ca887a5a863fcfa26b057
p108
sVKeyWord
p109
Vwux
p110
sVProvince
p111
g52
sVPYInitial
p112
VCXY
p113
sVRemarkName
p114
V\u4fe1\u7528\u5361\u5957\u73b0
p115
sVIsOwner
p116
I0
sVSex
p117
I2
sVStarFriend
p118
I0
sVHideInputBarFlag
p119
I0
sVChatRoomId
p120
I0
sVEncryChatRoomId
p121
g52
sVAttrStatus
p122
I111719
sVStatues
p123
I0
stp124
Rp125
I1
bag34
(g38
g39
(dp126
VUserName
p127
V@68094e9208945251f7db0f2a1449d743a8a40a3f48e3c14580693d7dc6947499
p128
sVCity
p129
V\u53a6\u95e8
p130
sVSnsFlag
p131
I1
sVDisplayName
p132
g52
sVUniFriend
p133
I0
sVMemberCount
p134
I0
sVOwnerUin
p135
I0
sVMemberList
p136
g50
sVAlias
p137
g52
sVPYQuanPin
p138
Vfeisehuiyi
p139
sVSignature
p140
V\u505a\u4e2a\u6e29\u67d4\uff0c\u9738\u6c14\u7684\uff0c\u6dd1\u5973\U0001f643\U0001f643
p141
sVRemarkPYInitial
p142
g52
sVContactFlag
p143
I1
sVUin
p144
I0
sVNickName
p145
V\u83f2\u8272\u56de\u5fc6
p146
sVAppAccountFlag
p147
I0
sVVerifyFlag
p148
I0
sVRemarkPYQuanPin
p149
g52
sVHeadImgUrl
p150
V/cgi-bin/mmwebwx-bin/webwxgeticon?seq=673715277&username=@68094e9208945251f7db0f2a1449d743a8a40a3f48e3c14580693d7dc6947499&skey=@crypt_49509d7f_9a5645f1ad4ca887a5a863fcfa26b057
p151
sVKeyWord
p152
g52
sVProvince
p153
V\u798f\u5efa
p154
sVPYInitial
p155
VFSHY
p156
sVRemarkName
p157
g52
sVIsOwner
p158
I0
sVSex
p159
I2
sVStarFriend
p160
I0
sVHideInputBarFlag
p161
I0
sVChatRoomId
p162
I0
sVEncryChatRoomId
p163
g52
sVAttrStatus
p164
I102589
sVStatues
p165
I0
stp166
Rp167
I1
bag34
(g38
g39
(dp168
VUserName
p169
V@01686694f54d37b23b8b96af69e42fb7454f8676022fe7e9c9a226ef08b87767
p170
sVCity
p171
g52
sVSnsFlag
p172
I1
sVDisplayName
p173
g52
sVUniFriend
p174
I0
sVMemberCount
p175
I0
sVOwnerUin
p176
I0
sVMemberList
p177
g50
sVAlias
p178
g52
sVPYQuanPin
p179
VMolly
p180
sVSignature
p181
V\u5c3d\u4eba\u4e8b\u542c\u5929\u610f\uff01
p182
sVRemarkPYInitial
p183
g52
sVContactFlag
p184
I1
sVUin
p185
I0
sVNickName
p186
VMolly
p187
sVAppAccountFlag
p188
I0
sVVerifyFlag
p189
I0
sVRemarkPYQuanPin
p190
g52
sVHeadImgUrl
p191
V/cgi-bin/mmwebwx-bin/webwxgeticon?seq=673715616&username=@01686694f54d37b23b8b96af69e42fb7454f8676022fe7e9c9a226ef08b87767&skey=@crypt_49509d7f_9a5645f1ad4ca887a5a863fcfa26b057
p192
sVKeyWord
p193
g52
sVProvince
p194
g52
sVPYInitial
p195
VMOLLY
p196
sVRemarkName
p197
g52
sVIsOwner
p198
I0
sVSex
p199
I2
sVStarFriend
p200
I0
sVHideInputBarFlag
p201
I0
sVChatRoomId
p202
I0
sVEncryChatRoomId
p203
g52
sVAttrStatus
p204
I234083
sVStatues
p205
I0
stp206
Rp207
I1
bag34
(g38
g39
(dp208
VUserName
p209
V@030f4ca226e502da69bd92fd5832734b8613d9b01fd29c551f7b4060f7ae96da
p210
sVCity
p211
g52
sVSnsFlag
p212
I1
sVDisplayName
p213
g52
sVUniFriend
p214
I0
sVMemberCount
p215
I0
sVOwnerUin
p216
I0
sVMemberList
p217
g50
sVAlias
p218
g52
sVPYQuanPin
p219
Vchuanguoliushui
p220
sVSignature
p221
V\u53ea\u4e3a\u4e00\u4eba\u7559
p222
sVRemarkPYInitial
p223
g52
sVContactFlag
p224
I1
sVUin
p225
I0
sVNickName
p226
V\u7a7f\u8fc7\u6d41\u6c34
p227
sVAppAccountFlag
p228
I0
sVVerifyFlag
p229
I0
sVRemarkPYQuanPin
p230
g52
sVHeadImgUrl
p231
V/cgi-bin/mmwebwx-bin/webwxgeticon?seq=673714836&username=@030f4ca226e502da69bd92fd5832734b8613d9b01fd29c551f7b4060f7ae96da&skey=@crypt_49509d7f_9a5645f1ad4ca887a5a863fcfa26b057
p232
sVKeyWord
p233
g52
sVProvince
p234
VKowloon City
p235
sVPYInitial
p236
VCGLS
p237
sVRemarkName
p238
g52
sVIsOwner
p239
I0
sVSex
p240
I1
sVStarFriend
p241
I0
sVHideInputBarFlag
p242
I0
sVChatRoomId
p243
I0
sVEncryChatRoomId
p244
g52
sVAttrStatus
p245
I33690405
sVStatues
p246
I0
stp247
Rp248
I1
bag34
(g38
g39
(dp249
VUserName
p250
V@86ec147a24ef430f04e52b218bfdbcd7f923f4c684200d34b2e72be76ed79b4c
p251
sVCity
p252
V\u6d66\u4e1c\u65b0\u533a
p253
sVSnsFlag
p254
I1
sVDisplayName
p255
g52
sVUniFriend
p256
I0
sVMemberCount
p257
I0
sVOwnerUin
p258
I0
sVMemberList
p259
g50
sVAlias
p260
g52
sVPYQuanPin
p261
Vyannispanclassemojiemoji1f485span?
p262
sVSignature
p263
V\u4f60\u82e5\u76db\u5f00\uff0c\u8774\u8776\u81ea\u6765\u2026\u2026
p264
sVRemarkPYInitial
p265
g52
sVContactFlag
p266
I1
sVUin
p267
I0
sVNickName
p268
V\u71d5\u59ae\U0001f485\U0001f3fb
p269
sVAppAccountFlag
p270
I0
sVVerifyFlag
p271
I0
sVRemarkPYQuanPin
p272
g52
sVHeadImgUrl
p273
V/cgi-bin/mmwebwx-bin/webwxgeticon?seq=673715724&username=@86ec147a24ef430f04e52b218bfdbcd7f923f4c684200d34b2e72be76ed79b4c&skey=@crypt_49509d7f_9a5645f1ad4ca887a5a863fcfa26b057
p274
sVKeyWord
p275
g52
sVProvince
p276
V\u4e0a\u6d77
p277
sVPYInitial
p278
VYNSPANCLASSEMOJIEMOJI1F485SPAN?
p279
sVRemarkName
p280
g52
sVIsOwner
p281
I0
sVSex
p282
I2
sVStarFriend
p283
I0
sVHideInputBarFlag
p284
I0
sVChatRoomId
p285
I0
sVEncryChatRoomId
p286
g52
sVAttrStatus
p287
I103205
sVStatues
p288
I0
stp289
Rp290
I1
bag34
(g38
g39
(dp291
VUserName
p292
V@7ac5422f62573963e4638263c07e0dd45e1c138daf3bcc500657b3155efd082a
p293
sVCity
p294
g52
sVSnsFlag
p295
I1
sVDisplayName
p296
g52
sVUniFriend
p297
I0
sVMemberCount
p298
I0
sVOwnerUin
p299
I0
sVMemberList
p300
g50
sVAlias
p301
g52
sVPYQuanPin
p302
Vmeiniang
p303
sVSignature
p304
g52
sVRemarkPYInitial
p305
g52
sVContactFlag
p306
I3
sVUin
p307
I0
sVNickName
p308
V\u5a9a\u5a18
p309
sVAppAccountFlag
p310
I0
sVVerifyFlag
p311
I0
sVRemarkPYQuanPin
p312
g52
sVHeadImgUrl
p313
V/cgi-bin/mmwebwx-bin/webwxgeticon?seq=673716400&username=@7ac5422f62573963e4638263c07e0dd45e1c138daf3bcc500657b3155efd082a&skey=@crypt_49509d7f_9a5645f1ad4ca887a5a863fcfa26b057
p314
sVKeyWord
p315
g52
sVProvince
p316
g52
sVPYInitial
p317
VMN
p318
sVRemarkName
p319
g52
sVIsOwner
p320
I0
sVSex
p321
I1
sVStarFriend
p322
I0
sVHideInputBarFlag
p323
I0
sVChatRoomId
p324
I0
sVEncryChatRoomId
p325
g52
sVAttrStatus
p326
I234081
sVStatues
p327
I0
stp328
Rp329
I1
bag34
(g38
g39
(dp330
VUserName
p331
V@5ad46e404f2f8eaff61fbaaaf930f8e3ebd446752396b464f01e1060e8b5f4ef
p332
sVCity
p333
g52
sVSnsFlag
p334
I1
sVDisplayName
p335
g52
sVUniFriend
p336
I0
sVMemberCount
p337
I0
sVOwnerUin
p338
I0
sVMemberList
p339
g50
sVAlias
p340
g52
sVPYQuanPin
p341
VAkuaidiyouhuiquanbudingjigengxin
p342
sVSignature
p343
V\u963f\u8fea\u8fbe\u65af\u7ae5\u88c5  \u65ad\u7801\u7279\u4ef7
p344
sVRemarkPYInitial
p345
g52
sVContactFlag
p346
I3
sVUin
p347
I0
sVNickName
p348
VA\u5feb\u9012\u4f18\u60e0\u5238 \u4e0d\u5b9a\u671f\u66f4\u65b0
p349
sVAppAccountFlag
p350
I0
sVVerifyFlag
p351
I0
sVRemarkPYQuanPin
p352
g52
sVHeadImgUrl
p353
V/cgi-bin/mmwebwx-bin/webwxgeticon?seq=673716439&username=@5ad46e404f2f8eaff61fbaaaf930f8e3ebd446752396b464f01e1060e8b5f4ef&skey=@crypt_49509d7f_9a5645f1ad4ca887a5a863fcfa26b057
p354
sVKeyWord
p355
g52
sVProvince
p356
g52
sVPYInitial
p357
VAKDYHQBDJGX
p358
sVRemarkName
p359
g52
sVIsOwner
p360
I0
sVSex
p361
I1
sVStarFriend
p362
I0
sVHideInputBarFlag
p363
I0
sVChatRoomId
p364
I0
sVEncryChatRoomId
p365
g52
sVAttrStatus
p366
I135205
sVStatues
p367
I0
stp368
Rp369
I1
bag34
(g38
g39
(dp370
VUserName
p371
V@0d514685ebdd753a23ae3fdb27bc4cea
p372
sVCity
p373
V\u4e1c\u57ce
p374
sVSnsFlag
p375
I17
sVDisplayName
p376
g52
sVUniFriend
p377
I0
sVMemberCount
p378
I0
sVOwnerUin
p379
I0
sVMemberList
p380
g50
sVAlias
p381
g52
sVPYQuanPin
p382
Vpengcheng
p383
sVSignature
p384
V\u672a\u6765\u4e0d\u8fce\uff0c\u5f53\u65f6\u4e0d\u6742\uff0c\u8fc7\u5f80\u4e0d\u604b
p385
sVRemarkPYInitial
p386
g52
sVContactFlag
p387
I3
sVUin
p388
I0
sVNickName
p389
V\u9e4f\u7a0b
p390
sVAppAccountFlag
p391
I0
sVVerifyFlag
p392
I0
sVRemarkPYQuanPin
p393
g52
sVHeadImgUrl
p394
V/cgi-bin/mmwebwx-bin/webwxgeticon?seq=669180196&username=@0d514685ebdd753a23ae3fdb27bc4cea&skey=@crypt_49509d7f_9a5645f1ad4ca887a5a863fcfa26b057
p395
sVKeyWord
p396
Vwar
p397
sVProvince
p398
V\u5317\u4eac
p399
sVPYInitial
p400
VPC
p401
sVRemarkName
p402
g52
sVIsOwner
p403
I0
sVSex
p404
I1
sVStarFriend
p405
I0
sVHideInputBarFlag
p406
I0
sVChatRoomId
p407
I0
sVEncryChatRoomId
p408
g52
sVAttrStatus
p409
I33691111
sVStatues
p410
I0
stp411
Rp412
I1
bag34
(g38
g39
(dp413
VUserName
p414
V@cd65367e025e115fcc66e6c1e82d7f06
p415
sVCity
p416
V\u65e0\u9521
p417
sVSnsFlag
p418
I177
sVDisplayName
p419
g52
sVUniFriend
p420
I0
sVMemberCount
p421
I0
sVOwnerUin
p422
I0
sVMemberList
p423
g50
sVAlias
p424
g52
sVPYQuanPin
p425
VjietouebaZip
p426
sVSignature
p427
VStreet Bully\u521b\u59cb\u4eba\u3001\u72d7\u4e0d\u61c2\u521b\u59cb\u4eba\uff0c\u72d7\u884c\u4e3a\u5b66\u3001\u5fc3\u7406\u5b66\u7814\u7a76\u8005
p428
sVRemarkPYInitial
p429
g52
sVContactFlag
p430
I1
sVUin
p431
I0
sVNickName
p432
V\u8857\u982d\u60e1\u9738\u3010Zip\u3011
p433
sVAppAccountFlag
p434
I0
sVVerifyFlag
p435
I0
sVRemarkPYQuanPin
p436
g52
sVHeadImgUrl
p437
V/cgi-bin/mmwebwx-bin/webwxgeticon?seq=673713460&username=@cd65367e025e115fcc66e6c1e82d7f06&skey=@crypt_49509d7f_9a5645f1ad4ca887a5a863fcfa26b057
p438
sVKeyWord
p439
Vtr8
p440
sVProvince
p441
V\u6c5f\u82cf
p442
sVPYInitial
p443
VJTEBZIP
p444
sVRemarkName
p445
g52
sVIsOwner
p446
I0
sVSex
p447
I1
sVStarFriend
p448
I0
sVHideInputBarFlag
p449
I0
sVChatRoomId
p450
I0
sVEncryChatRoomId
p451
g52
sVAttrStatus
p452
I2147564455
sVStatues
p453
I0
stp454
Rp455
I1
bag34
(g38
g39
(dp456
VUserName
p457
V@e7c0606bed795b1f1886c392d4f7da17b43bd9661ccdb30b833960b9defd3be1
p458
sVCity
p459
V\u671d\u9633
p460
sVSnsFlag
p461
I17
sVDisplayName
p462
g52
sVUniFriend
p463
I0
sVMemberCount
p464
I0
sVOwnerUin
p465
I0
sVMemberList
p466
g50
sVAlias
p467
g52
sVPYQuanPin
p468
VAlichiyangguangyouyongjianshenzhuguanzhaohao
p469
sVSignature
p470
V\u559c\u6b22\u6e38\u6cf3\u5065\u8eab\u7684\u53ef\u4ee5\u8054\u7cfb\u621113717754882\uff5e\u8d75\u8c6a
p471
sVRemarkPYInitial
p472
g52
sVContactFlag
p473
I3
sVUin
p474
I0
sVNickName
p475
VA\u4e3d\u6c60\u9633\u5149\u6e38\u6cf3\u5065\u8eab\u4e3b\u7ba1\u8d75\u8c6a
p476
sVAppAccountFlag
p477
I0
sVVerifyFlag
p478
I0
sVRemarkPYQuanPin
p479
g52
sVHeadImgUrl
p480
V/cgi-bin/mmwebwx-bin/webwxgeticon?seq=673718027&username=@e7c0606bed795b1f1886c392d4f7da17b43bd9661ccdb30b833960b9defd3be1&skey=@crypt_49509d7f_9a5645f1ad4ca887a5a863fcfa26b057
p481
sVKeyWord
p482
g52
sVProvince
p483
V\u5317\u4eac
p484
sVPYInitial
p485
VALCYGYYJSZGZH
p486
sVRemarkName
p487
g52
sVIsOwner
p488
I0
sVSex
p489
I1
sVStarFriend
p490
I0
sVHideInputBarFlag
p491
I0
sVChatRoomId
p492
I0
sVEncryChatRoomId
p493
g52
sVAttrStatus
p494
I4253
sVStatues
p495
I0
stp496
Rp497
I1
bag34
(g38
g39
(dp498
VUserName
p499
V@c6547fffc6839f00524572721b3da1bc1882ec1621eee6627d53b659a5884b82
p500
sVCity
p501
VOthers
p502
sVSnsFlag
p503
I1
sVDisplayName
p504
g52
sVUniFriend
p505
I0
sVMemberCount
p506
I0
sVOwnerUin
p507
I0
sVMemberList
p508
g50
sVAlias
p509
g52
sVPYQuanPin
p510
Vabbyhuanerspanclassemojiemoji1f48bspanspanclassemojiemoji1f6baspan
p511
sVSignature
p512
V\u8ba9\u8721\u70db\u4ee3\u66ff\u6240\u6709\u706f \u8ba9\u97f3\u4e50\u4ee3\u66ff\u8bdd\u8bed\u58f0 \u6b64\u65f6\u65e0\u58f0\u80dc\u6709\u58f0
p513
sVRemarkPYInitial
p514
g52
sVContactFlag
p515
I3
sVUin
p516
I0
sVNickName
p517
Vabby\u6b22\u513f\U0001f48b\U0001f6ba
p518
sVAppAccountFlag
p519
I0
sVVerifyFlag
p520
I0
sVRemarkPYQuanPin
p521
g52
sVHeadImgUrl
p522
V/cgi-bin/mmwebwx-bin/webwxgeticon?seq=673718560&username=@c6547fffc6839f00524572721b3da1bc1882ec1621eee6627d53b659a5884b82&skey=@crypt_49509d7f_9a5645f1ad4ca887a5a863fcfa26b057
p523
sVKeyWord
p524
g52
sVProvince
p525
VKuala Lumpur
p526
sVPYInitial
p527
VABBYHESPANCLASSEMOJIEMOJI1F48BSPANSPANCLASSEMOJIEMOJI1F6BASPAN
p528
sVRemarkName
p529
g52
sVIsOwner
p530
I0
sVSex
p531
I2
sVStarFriend
p532
I0
sVHideInputBarFlag
p533
I0
sVChatRoomId
p534
I0
sVEncryChatRoomId
p535
g52
sVAttrStatus
p536
I33656869
sVStatues
p537
I0
stp538
Rp539
I1
bag34
(g38
g39
(dp540
VUserName
p541
V@b7847cb128e1f3626b017a80db1d64a8082b410357b85a38494f9a617099c32d
p542
sVCity
p543
V\u90af\u90f8
p544
sVSnsFlag
p545
I1
sVDisplayName
p546
g52
sVUniFriend
p547
I0
sVMemberCount
p548
I0
sVOwnerUin
p549
I0
sVMemberList
p550
g50
sVAlias
p551
g52
sVPYQuanPin
p552
Vniming
p553
sVSignature
p554
V<span class="emoji emoji1f63a"></span> <span class="emoji emoji1f63a"></span> <span class="emoji emoji1f63a"></span> <span class="emoji emoji1f63a"></span> <span class="emoji emoji1f63a"></span>
p555
sVRemarkPYInitial
p556
g52
sVContactFlag
p557
I3
sVUin
p558
I0
sVNickName
p559
V\u533f\u540d
p560
sVAppAccountFlag
p561
I0
sVVerifyFlag
p562
I0
sVRemarkPYQuanPin
p563
g52
sVHeadImgUrl
p564
V/cgi-bin/mmwebwx-bin/webwxgeticon?seq=673718011&username=@b7847cb128e1f3626b017a80db1d64a8082b410357b85a38494f9a617099c32d&skey=@crypt_49509d7f_9a5645f1ad4ca887a5a863fcfa26b057
p565
sVKeyWord
p566
g52
sVProvince
p567
V\u6cb3\u5317
p568
sVPYInitial
p569
VNM
p570
sVRemarkName
p571
g52
sVIsOwner
p572
I0
sVSex
p573
I1
sVStarFriend
p574
I0
sVHideInputBarFlag
p575
I0
sVChatRoomId
p576
I0
sVEncryChatRoomId
p577
g52
sVAttrStatus
p578
I33657149
sVStatues
p579
I0
stp580
Rp581
I1
bag34
(g38
g39
(dp582
VUserName
p583
V@cb7d8c1f33b0141767e12c569d4fed8aabeb85c90337d5c0e7e3c7847c27ce10
p584
sVCity
p585
V\u90af\u90f8
p586
sVSnsFlag
p587
I1
sVDisplayName
p588
g52
sVUniFriend
p589
I0
sVMemberCount
p590
I0
sVOwnerUin
p591
I0
sVMemberList
p592
g50
sVAlias
p593
g52
sVPYQuanPin
p594
Vyuyuchaojikeaispanclassemojiemoji1f495span
p595
sVSignature
p596
V\u5b87\u5b87\u4e0d\u6536\u4e8c\u624b\u5783\u573e\u3002
p597
sVRemarkPYInitial
p598
g52
sVContactFlag
p599
I3
sVUin
p600
I0
sVNickName
p601
V\u5b87\u5b87\u7092\u9e21\u53ef\u7231\U0001f495
p602
sVAppAccountFlag
p603
I0
sVVerifyFlag
p604
I0
sVRemarkPYQuanPin
p605
g52
sVHeadImgUrl
p606
V/cgi-bin/mmwebwx-bin/webwxgeticon?seq=673718624&username=@cb7d8c1f33b0141767e12c569d4fed8aabeb85c90337d5c0e7e3c7847c27ce10&skey=@crypt_49509d7f_9a5645f1ad4ca887a5a863fcfa26b057
p607
sVKeyWord
p608
g52
sVProvince
p609
V\u6cb3\u5317
p610
sVPYInitial
p611
VYYCJKASPANCLASSEMOJIEMOJI1F495SPAN
p612
sVRemarkName
p613
g52
sVIsOwner
p614
I0
sVSex
p615
I2
sVStarFriend
p616
I0
sVHideInputBarFlag
p617
I0
sVChatRoomId
p618
I0
sVEncryChatRoomId
p619
g52
sVAttrStatus
p620
I4641
sVStatues
p621
I0
stp622
Rp623
I1
bag34
(g38
g39
(dp624
VUserName
p625
V@58aebd0370f25e970b1956d7bc2e0aae611f40ffed957a18192a22783be43d93
p626
sVCity
p627
V\u6df1\u5733
p628
sVSnsFlag
p629
I49
sVDisplayName
p630
g52
sVUniFriend
p631
I0
sVMemberCount
p632
I0
sVOwnerUin
p633
I0
sVMemberList
p634
g50
sVAlias
p635
g52
sVPYQuanPin
p636
Vfanjiamianspanclassemojiemoji1f345span
p637
sVSignature
p638
V    
p639
sVRemarkPYInitial
p640
g52
sVContactFlag
p641
I1
sVUin
p642
I0
sVNickName
p643
V\u756a\u8304\u9762\U0001f345
p644
sVAppAccountFlag
p645
I0
sVVerifyFlag
p646
I0
sVRemarkPYQuanPin
p647
g52
sVHeadImgUrl
p648
V/cgi-bin/mmwebwx-bin/webwxgeticon?seq=673718173&username=@58aebd0370f25e970b1956d7bc2e0aae611f40ffed957a18192a22783be43d93&skey=@crypt_49509d7f_9a5645f1ad4ca887a5a863fcfa26b057
p649
sVKeyWord
p650
g52
sVProvince
p651
V\u5e7f\u4e1c
p652
sVPYInitial
p653
VFJMSPANCLASSEMOJIEMOJI1F345SPAN
p654
sVRemarkName
p655
g52
sVIsOwner
p656
I0
sVSex
p657
I1
sVStarFriend
p658
I0
sVHideInputBarFlag
p659
I0
sVChatRoomId
p660
I0
sVEncryChatRoomId
p661
g52
sVAttrStatus
p662
I100539
sVStatues
p663
I0
stp664
Rp665
I1
batp666
Rp667
I1
bsS'chatroomList'
p668
g34
(g35
g36
(lp669
g34
(citchat.storage.templates
Chatroom
p670
g39
(dp671
VUserName
p672
V@@8a8bed66e18b678d0b25b8a7ae7d4183616954ab44a01cf79c23ccb85f1449ec
p673
sVCity
p674
g52
sVDisplayName
p675
g52
sVUniFriend
p676
I0
sS'Self'
p677
g34
(g38
g39
(dp678
g41
g31
sg42
g43
sg44
g43
sg45
I0
sg46
I0
sg47
g34
(g35
g36
(lp679
tp680
Rp681
I1
bsg51
g52
sg53
g52
sg54
I200509586
sg55
I0
sg56
I0
sg57
g43
sg58
g43
sg59
g52
sg60
g52
sg61
I0
sg62
I0
sg63
I1
sg64
g43
sg65
I0
sg66
I0
sg67
I0
sg68
I0
sg69
g43
sg70
g52
sg71
I0
sg72
g73
sg74
g52
sg75
g76
sg77
I1
sg78
I0
sg79
I0
stp682
Rp683
I1
bsVMemberList
p684
g34
(g35
g36
(lp685
tp686
Rp687
I1
bsVPYQuanPin
p688
g52
sVRemarkPYInitial
p689
g52
sVSex
p690
I0
sVAppAccountFlag
p691
I0
sVVerifyFlag
p692
I0
sVProvince
p693
g52
sVKeyWord
p694
g52
sVRemarkName
p695
g52
sVPYInitial
p696
g52
sVIsOwner
p697
I0
sVChatRoomId
p698
I0
sVHideInputBarFlag
p699
I0
sVEncryChatRoomId
p700
g52
sVAttrStatus
p701
I0
sVSnsFlag
p702
I0
sVMemberCount
p703
I499
sVOwnerUin
p704
I0
sVAlias
p705
g52
sS'IsAdmin'
p706
NsVSignature
p707
g52
sVContactFlag
p708
I2
sVNickName
p709
VRedis\u6280\u672f\u4ea4\u6d41\u7fa4
p710
sVRemarkPYQuanPin
p711
g52
sVHeadImgUrl
p712
V/cgi-bin/mmwebwx-bin/webwxgetheadimg?seq=673718647&username=@@8a8bed66e18b678d0b25b8a7ae7d4183616954ab44a01cf79c23ccb85f1449ec&skey=@crypt_49509d7f_9a5645f1ad4ca887a5a863fcfa26b057
p713
sVUin
p714
I0
sVStarFriend
p715
I0
sVStatues
p716
I1
stp717
Rp718
I1
bag34
(g670
g39
(dp719
VUserName
p720
V@@2b568f8f791f7a2447b7ba6e75adb7bc7f651abca91ca424b8bc6f892ee9382f
p721
sVCity
p722
g52
sVDisplayName
p723
g52
sVUniFriend
p724
I0
sg677
g34
(g38
g39
(dp725
g41
g31
sg42
g43
sg44
g43
sg45
I0
sg46
I0
sg47
g34
(g35
g36
(lp726
tp727
Rp728
I1
bsg51
g52
sg53
g52
sg54
I200509586
sg55
I0
sg56
I0
sg57
g43
sg58
g43
sg59
g52
sg60
g52
sg61
I0
sg62
I0
sg63
I1
sg64
g43
sg65
I0
sg66
I0
sg67
I0
sg68
I0
sg69
g43
sg70
g52
sg71
I0
sg72
g73
sg74
g52
sg75
g76
sg77
I1
sg78
I0
sg79
I0
stp729
Rp730
I1
bsVMemberList
p731
g34
(g35
g36
(lp732
tp733
Rp734
I1
bsVPYQuanPin
p735
g52
sVRemarkPYInitial
p736
g52
sVSex
p737
I0
sVAppAccountFlag
p738
I0
sVVerifyFlag
p739
I0
sVProvince
p740
g52
sVKeyWord
p741
g52
sVRemarkName
p742
g52
sVPYInitial
p743
g52
sVIsOwner
p744
I0
sVChatRoomId
p745
I0
sVHideInputBarFlag
p746
I0
sVEncryChatRoomId
p747
g52
sVAttrStatus
p748
I0
sVSnsFlag
p749
I0
sVMemberCount
p750
I477
sVOwnerUin
p751
I0
sVAlias
p752
g52
sg706
NsVSignature
p753
g52
sVContactFlag
p754
I0
sVNickName
p755
VRedis\u6280\u672f\u4ea4\u6d41\u7fa42
p756
sVRemarkPYQuanPin
p757
g52
sVHeadImgUrl
p758
V/cgi-bin/mmwebwx-bin/webwxgetheadimg?seq=0&username=@@2b568f8f791f7a2447b7ba6e75adb7bc7f651abca91ca424b8bc6f892ee9382f&skey=@crypt_49509d7f_9a5645f1ad4ca887a5a863fcfa26b057
p759
sVUin
p760
I0
sVStarFriend
p761
I0
sVStatues
p762
I1
stp763
Rp764
I1
batp765
Rp766
I1
bsS'nickName'
p767
g73
sS'mpList'
p768
g34
(g35
g36
(lp769
g34
(citchat.storage.templates
MassivePlatform
p770
g39
(dp771
VUserName
p772
V@f69d6b557532d15aa581ffe99cde3fdd
p773
sVCity
p774
V\u6df1\u5733
p775
sVSnsFlag
p776
I0
sVDisplayName
p777
g52
sVUniFriend
p778
I0
sVMemberCount
p779
I0
sVOwnerUin
p780
I0
sVMemberList
p781
g50
sVAlias
p782
g52
sVPYQuanPin
p783
Vfengchaozhinenggui
p784
sVSignature
p785
V\u5173\u6ce8\u4e30\u5de2\u670d\u52a1\u53f7\uff0c\u7b2c\u4e00\u65f6\u95f4\u63a5\u6536\u60a8\u7684\u5feb\u4ef6\u7269\u6d41\u63d0\u9192\uff01\u63d0\u4f9b24\u5c0f\u65f6\u81ea\u52a9\u5bc4\u5feb\u9012\u3001\u7535\u5546\u8d2d\u7269\u3001\u6682\u5b58\u7269\u54c1\u3001\u5a92\u4f53\u4e92\u52a8\u7b49\u4e00\u7ad9\u5f0f\u751f\u6d3b\u670d\u52a1\uff0c\u8ba9\u751f\u6d3b\u66f4\u7b80\u5355\uff01
p786
sVRemarkPYInitial
p787
g52
sVContactFlag
p788
I3
sVUin
p789
I0
sVNickName
p790
V\u4e30\u5de2\u667a\u80fd\u67dc
p791
sVAppAccountFlag
p792
I0
sVVerifyFlag
p793
I24
sVRemarkPYQuanPin
p794
g52
sVHeadImgUrl
p795
V/cgi-bin/mmwebwx-bin/webwxgeticon?seq=673711737&username=@f69d6b557532d15aa581ffe99cde3fdd&skey=@crypt_49509d7f_9a5645f1ad4ca887a5a863fcfa26b057
p796
sVKeyWord
p797
Vgh_
p798
sVProvince
p799
V\u5e7f\u4e1c
p800
sVPYInitial
p801
VFCZNG
p802
sVRemarkName
p803
g52
sVIsOwner
p804
I0
sVSex
p805
I0
sVStarFriend
p806
I0
sVHideInputBarFlag
p807
I0
sVChatRoomId
p808
I0
sVEncryChatRoomId
p809
g52
sVAttrStatus
p810
I0
sVStatues
p811
I0
stp812
Rp813
I1
bag34
(g770
g39
(dp814
VUserName
p815
V@c34259c473e69cb271e21ea1a833c49b
p816
sVCity
p817
V\u5e7f\u5dde
p818
sVSnsFlag
p819
I0
sVDisplayName
p820
g52
sVUniFriend
p821
I0
sVMemberCount
p822
I0
sVOwnerUin
p823
I0
sVMemberList
p824
g50
sVAlias
p825
g52
sVPYQuanPin
p826
Vyikushaonv
p827
sVSignature
p828
V\u5173\u6ce8\u4e0d\u4e86\uff1f \u8bf7\u641c\u7d22\u5173\u6ce8\uff1a\u5947\u8da3\u62a5\u793e\u65b0\u53f7
p829
sVRemarkPYInitial
p830
g52
sVContactFlag
p831
I3
sVUin
p832
I0
sVNickName
p833
V\u4e00\u5e93\u5c11\u5973
p834
sVAppAccountFlag
p835
I0
sVVerifyFlag
p836
I8
sVRemarkPYQuanPin
p837
g52
sVHeadImgUrl
p838
V/cgi-bin/mmwebwx-bin/webwxgeticon?seq=673712037&username=@c34259c473e69cb271e21ea1a833c49b&skey=@crypt_49509d7f_9a5645f1ad4ca887a5a863fcfa26b057
p839
sVKeyWord
p840
Vgh_
p841
sVProvince
p842
V\u5e7f\u4e1c
p843
sVPYInitial
p844
VYKSN
p845
sVRemarkName
p846
g52
sVIsOwner
p847
I0
sVSex
p848
I0
sVStarFriend
p849
I0
sVHideInputBarFlag
p850
I0
sVChatRoomId
p851
I0
sVEncryChatRoomId
p852
g52
sVAttrStatus
p853
I0
sVStatues
p854
I0
stp855
Rp856
I1
bag34
(g770
g39
(dp857
VUserName
p858
V@8ca6a463ba02bde02de7fc7eefa69ea1
p859
sVCity
p860
V\u6df1\u5733
p861
sVSnsFlag
p862
I0
sVDisplayName
p863
g52
sVUniFriend
p864
I0
sVMemberCount
p865
I0
sVOwnerUin
p866
I0
sVMemberList
p867
g50
sVAlias
p868
g52
sVPYQuanPin
p869
Vqiyueyingku
p870
sVSignature
p871
V\u56e0\u4e3a\u7231\u7535\u5f71\uff0c\u6240\u4ee5\u4e0d\u5bc2\u5bde\u3002
p872
sVRemarkPYInitial
p873
g52
sVContactFlag
p874
I3
sVUin
p875
I0
sVNickName
p876
V\u4e03\u6708\u5f71\u5e93
p877
sVAppAccountFlag
p878
I0
sVVerifyFlag
p879
I24
sVRemarkPYQuanPin
p880
g52
sVHeadImgUrl
p881
V/cgi-bin/mmwebwx-bin/webwxgeticon?seq=673715022&username=@8ca6a463ba02bde02de7fc7eefa69ea1&skey=@crypt_49509d7f_9a5645f1ad4ca887a5a863fcfa26b057
p882
sVKeyWord
p883
Vgh_
p884
sVProvince
p885
V\u5e7f\u4e1c
p886
sVPYInitial
p887
VQYYK
p888
sVRemarkName
p889
g52
sVIsOwner
p890
I0
sVSex
p891
I0
sVStarFriend
p892
I0
sVHideInputBarFlag
p893
I0
sVChatRoomId
p894
I0
sVEncryChatRoomId
p895
g52
sVAttrStatus
p896
I0
sVStatues
p897
I0
stp898
Rp899
I1
bag34
(g770
g39
(dp900
VUserName
p901
V@363958738e8429434f8f95174fc93624
p902
sVCity
p903
V\u9752\u6d66
p904
sVSnsFlag
p905
I0
sVDisplayName
p906
g52
sVUniFriend
p907
I0
sVMemberCount
p908
I0
sVOwnerUin
p909
I0
sVMemberList
p910
g50
sVAlias
p911
g52
sVPYQuanPin
p912
Vdebangkuaidi
p913
sVSignature
p914
V\u5173\u6ce8\u7acb\u4eab2\u52305\u5143\u4f18\u60e0\u5238\uff0c\u5b9e\u65f6\u83b7\u53d6\u8d27\u7269\u52a8\u6001
p915
sVRemarkPYInitial
p916
g52
sVContactFlag
p917
I3
sVUin
p918
I0
sVNickName
p919
V\u5fb7\u90a6\u5feb\u9012
p920
sVAppAccountFlag
p921
I0
sVVerifyFlag
p922
I24
sVRemarkPYQuanPin
p923
g52
sVHeadImgUrl
p924
V/cgi-bin/mmwebwx-bin/webwxgeticon?seq=673716437&username=@363958738e8429434f8f95174fc93624&skey=@crypt_49509d7f_9a5645f1ad4ca887a5a863fcfa26b057
p925
sVKeyWord
p926
Vgh_
p927
sVProvince
p928
V\u4e0a\u6d77
p929
sVPYInitial
p930
VDBKD
p931
sVRemarkName
p932
g52
sVIsOwner
p933
I0
sVSex
p934
I0
sVStarFriend
p935
I0
sVHideInputBarFlag
p936
I0
sVChatRoomId
p937
I0
sVEncryChatRoomId
p938
g52
sVAttrStatus
p939
I0
sVStatues
p940
I0
stp941
Rp942
I1
batp943
Rp944
I1
bssS'loginInfo'
p945
(dp946
S'SyncKey'
p947
(dp948
VCount
p949
I4
sVList
p950
(lp951
(dp952
VVal
p953
I673718504
sVKey
p954
I1
sa(dp955
VVal
p956
I673718648
sVKey
p957
I2
sa(dp958
VVal
p959
I673718637
sVKey
p960
I3
sa(dp961
VVal
p962
I1557618319
sVKey
p963
I1000
sassS'syncUrl'
p964
S'https://webpush.wx2.qq.com/cgi-bin/mmwebwx-bin'
p965
sS'skey'
p966
V@crypt_49509d7f_9a5645f1ad4ca887a5a863fcfa26b057
p967
sS'wxuin'
p968
V200509586
p969
sS'synckey'
p970
S'1_673718504|2_673718648|3_673718637|1000_1557618319'
p971
sS'url'
p972
Vhttps://wx2.qq.com/cgi-bin/mmwebwx-bin
p973
sS'pass_ticket'
p974
V%2B64R99iu9De1ASAP3B2zPAdlxc2Fpk9zmWvN1Yd5WtU%3D
p975
sS'wxsid'
p976
VBgQySsvdV1Fr4Z8y
p977
sS'BaseRequest'
p978
(dp979
g54
g969
sS'Skey'
p980
g967
sS'DeviceID'
p981
g975
sS'Sid'
p982
g977
ssS'User'
p983
g34
(g38
g39
(dp984
g41
g31
sg42
g43
sg44
g43
sg45
I0
sg47
g50
sg51
g52
sg53
g52
sg77
I1
sg55
I0
sg56
I0
sg57
g43
sg58
g43
sg59
g52
sg60
g52
sg61
I0
sg62
I0
sg63
I1
sg64
g43
sg65
I0
sg68
I0
sg66
I0
sg67
I0
sg46
I0
sg69
g43
sg70
g52
sg71
I0
sg72
g73
sg74
g52
sg75
g76
sg54
I200509586
sg78
I0
sg79
I0
stp985
Rp986
I1
bsS'fileUrl'
p987
S'https://file.wx2.qq.com/cgi-bin/mmwebwx-bin'
p988
sS'InviteStartCount'
p989
I40
sS'deviceid'
p990
S'e672612523729464'
p991
ss.