(dp0
S'cookies'
p1
(dp2
S'wxloadtime'
p3
S'1567156508'
p4
sS'webwx_data_ticket'
p5
S'gSfuXr9MaNdkwSjEotO6qhBi'
p6
sS'wxuin'
p7
S'200509586'
p8
sS'login_frequency'
p9
S'2'
p10
sS'MM_WX_NOTIFY_STATE'
p11
S'1'
p12
sS'MM_WX_SOUND_STATE'
p13
g12
sS'webwx_auth_ticket'
p14
S'CIsBEOmQ26kNGoABbYNDNK1o+7RB9Wgy7hP9ChyUKB2qlYLxh1QhYG5FOLJPDL3nHjgFdoRkPOPBJuREeyGpoCOQK0ptqv5jkAboEckVq+lZ8bY9kugIiqjmIXOr5m2jonLI3j9F8nmq773Wz4wT15WvgUsxrMRQeuGiNbgXYJ1IAwQ+jPWIrn7GY7g='
p15
sS'last_wxuin'
p16
S'200509586'
p17
sS'webwxuvid'
p18
S'ef16bd48961c4320b665ac296596e4e6eb6a05de906f2bce9dd22846416c173663f21bd7bf9ad4c6c171e3c2a4059808'
p19
sS'wxpluginkey'
p20
S'1565943583'
p21
sS'wxsid'
p22
S'W5oayLXSHRIFumtW'
p23
sS'mm_lang'
p24
S'zh_CN'
p25
ssS'version'
p26
S'1.3.10'
p27
sS'storage'
p28
(dp29
S'userName'
p30
V@6e74a94df07566235b18f2ca863b08beefe4ed502382f8c7f80d90197f4b19eb
p31
sS'lastInputUserName'
p32
NsS'memberList'
p33
ccopy_reg
_reconstructor
p34
(citchat.storage.templates
ContactList
p35
c__builtin__
list
p36
(lp37
g34
(citchat.storage.templates
User
p38
c__builtin__
dict
p39
(dp40
S'UserName'
p41
g31
sS'City'
p42
S''
p43
sS'DisplayName'
p44
g43
sS'UniFriend'
p45
I0
sS'OwnerUin'
p46
I0
sS'MemberList'
p47
g34
(g35
g36
(lp48
tp49
Rp50
I1
bsS'PYQuanPin'
p51
V
p52
sS'RemarkPYInitial'
p53
g52
sS'Uin'
p54
I200509586
sS'AppAccountFlag'
p55
I0
sS'VerifyFlag'
p56
I0
sS'Province'
p57
g43
sS'KeyWord'
p58
g43
sS'RemarkName'
p59
g52
sS'PYInitial'
p60
g52
sS'ChatRoomId'
p61
I0
sS'HideInputBarFlag'
p62
I0
sVHeadImgFlag
p63
I1
sS'EncryChatRoomId'
p64
g43
sS'AttrStatus'
p65
I0
sS'SnsFlag'
p66
I0
sS'MemberCount'
p67
I0
sVWebWxPluginSwitch
p68
I0
sS'Alias'
p69
g43
sS'Signature'
p70
g52
sS'ContactFlag'
p71
I0
sS'NickName'
p72
V\u673a\u5668\u4eba\u5c0f\u80d6
p73
sS'RemarkPYQuanPin'
p74
g52
sS'HeadImgUrl'
p75
V/cgi-bin/mmwebwx-bin/webwxgeticon?seq=1747293798&username=@6e74a94df07566235b18f2ca863b08beefe4ed502382f8c7f80d90197f4b19eb&skey=@crypt_49509d7f_e054af9ea2eafe48812c484fd0876b71
p76
sS'Sex'
p77
I1
sS'StarFriend'
p78
I0
sS'Statues'
p79
I0
stp80
Rp81
I1
bag34
(g38
g39
(dp82
VUserName
p83
V@7d52414664cfe126eb13adc73ca83517
p84
sVCity
p85
g52
sVSnsFlag
p86
I17
sVDisplayName
p87
g52
sVUniFriend
p88
I0
sVMemberCount
p89
I0
sVOwnerUin
p90
I0
sVMemberList
p91
g50
sVAlias
p92
g52
sVPYQuanPin
p93
VCXY
p94
sVSignature
p95
V\u7b49\u98ce\u4e5f\u7b49\u4f60\u3002
p96
sVRemarkPYInitial
p97
VXYKTX
p98
sVContactFlag
p99
I1
sVUin
p100
I0
sVNickName
p101
V-C_XY-
p102
sVAppAccountFlag
p103
I0
sVVerifyFlag
p104
I0
sVRemarkPYQuanPin
p105
Vxinyongkataoxian
p106
sVHeadImgUrl
p107
V/cgi-bin/mmwebwx-bin/webwxgeticon?seq=673710066&username=@7d52414664cfe126eb13adc73ca83517&skey=@crypt_49509d7f_e054af9ea2eafe48812c484fd0876b71
p108
sVKeyWord
p109
Vwux
p110
sVProvince
p111
g52
sVPYInitial
p112
VCXY
p113
sVRemarkName
p114
V\u4fe1\u7528\u5361\u5957\u73b0
p115
sVIsOwner
p116
I0
sVSex
p117
I2
sVStarFriend
p118
I0
sVHideInputBarFlag
p119
I0
sVChatRoomId
p120
I0
sVEncryChatRoomId
p121
g52
sVAttrStatus
p122
I111719
sVStatues
p123
I0
stp124
Rp125
I1
bag34
(g38
g39
(dp126
VUserName
p127
V@7996c6bb72fe17113847cb4773f3d815696383647c46b3e44b0a4ace7a084594
p128
sVCity
p129
g52
sVSnsFlag
p130
I1
sVDisplayName
p131
g52
sVUniFriend
p132
I0
sVMemberCount
p133
I0
sVOwnerUin
p134
I0
sVMemberList
p135
g50
sVAlias
p136
g52
sVPYQuanPin
p137
Vchuanguoliushui
p138
sVSignature
p139
V\u53ea\u4e3a\u4e00\u4eba\u7559
p140
sVRemarkPYInitial
p141
g52
sVContactFlag
p142
I1
sVUin
p143
I0
sVNickName
p144
V\u7a7f\u8fc7\u6d41\u6c34
p145
sVAppAccountFlag
p146
I0
sVVerifyFlag
p147
I0
sVRemarkPYQuanPin
p148
g52
sVHeadImgUrl
p149
V/cgi-bin/mmwebwx-bin/webwxgeticon?seq=673714836&username=@7996c6bb72fe17113847cb4773f3d815696383647c46b3e44b0a4ace7a084594&skey=@crypt_49509d7f_e054af9ea2eafe48812c484fd0876b71
p150
sVKeyWord
p151
g52
sVProvince
p152
VKowloon City
p153
sVPYInitial
p154
VCGLS
p155
sVRemarkName
p156
g52
sVIsOwner
p157
I0
sVSex
p158
I1
sVStarFriend
p159
I0
sVHideInputBarFlag
p160
I0
sVChatRoomId
p161
I0
sVEncryChatRoomId
p162
g52
sVAttrStatus
p163
I33690405
sVStatues
p164
I0
stp165
Rp166
I1
bag34
(g38
g39
(dp167
VUserName
p168
V@a7ed0552ec31e15010c3784ca210c809a64be33a76bc5b2ab7b3b07648a624fe
p169
sVCity
p170
g52
sVSnsFlag
p171
I1
sVDisplayName
p172
g52
sVUniFriend
p173
I0
sVMemberCount
p174
I0
sVOwnerUin
p175
I0
sVMemberList
p176
g50
sVAlias
p177
g52
sVPYQuanPin
p178
VAkuaidiyouhuiquanbudingjigengxin
p179
sVSignature
p180
V\u963f\u8fea\u8fbe\u65af\u7ae5\u88c5  \u65ad\u7801\u7279\u4ef7
p181
sVRemarkPYInitial
p182
g52
sVContactFlag
p183
I3
sVUin
p184
I0
sVNickName
p185
VA\u5feb\u9012\u4f18\u60e0\u5238 \u4e0d\u5b9a\u671f\u66f4\u65b0
p186
sVAppAccountFlag
p187
I0
sVVerifyFlag
p188
I0
sVRemarkPYQuanPin
p189
g52
sVHeadImgUrl
p190
V/cgi-bin/mmwebwx-bin/webwxgeticon?seq=673716439&username=@a7ed0552ec31e15010c3784ca210c809a64be33a76bc5b2ab7b3b07648a624fe&skey=@crypt_49509d7f_e054af9ea2eafe48812c484fd0876b71
p191
sVKeyWord
p192
g52
sVProvince
p193
g52
sVPYInitial
p194
VAKDYHQBDJGX
p195
sVRemarkName
p196
g52
sVIsOwner
p197
I0
sVSex
p198
I1
sVStarFriend
p199
I0
sVHideInputBarFlag
p200
I0
sVChatRoomId
p201
I0
sVEncryChatRoomId
p202
g52
sVAttrStatus
p203
I135205
sVStatues
p204
I0
stp205
Rp206
I1
bag34
(g38
g39
(dp207
VUserName
p208
V@756feca13210dc97c130bd86be4ff7e2927d5f550bf509ebff3816a43d0721c2
p209
sVCity
p210
g52
sVSnsFlag
p211
I1
sVDisplayName
p212
g52
sVUniFriend
p213
I0
sVMemberCount
p214
I0
sVOwnerUin
p215
I0
sVMemberList
p216
g50
sVAlias
p217
g52
sVPYQuanPin
p218
Vbanjialvyou
p219
sVSignature
p220
g52
sVRemarkPYInitial
p221
g52
sVContactFlag
p222
I3
sVUin
p223
I0
sVNickName
p224
V\u534a\u4ef7\u65c5\u6e38
p225
sVAppAccountFlag
p226
I0
sVVerifyFlag
p227
I0
sVRemarkPYQuanPin
p228
g52
sVHeadImgUrl
p229
V/cgi-bin/mmwebwx-bin/webwxgeticon?seq=673722419&username=@756feca13210dc97c130bd86be4ff7e2927d5f550bf509ebff3816a43d0721c2&skey=@crypt_49509d7f_e054af9ea2eafe48812c484fd0876b71
p230
sVKeyWord
p231
g52
sVProvince
p232
g52
sVPYInitial
p233
VBJLY
p234
sVRemarkName
p235
g52
sVIsOwner
p236
I0
sVSex
p237
I0
sVStarFriend
p238
I0
sVHideInputBarFlag
p239
I0
sVChatRoomId
p240
I0
sVEncryChatRoomId
p241
g52
sVAttrStatus
p242
I135269
sVStatues
p243
I0
stp244
Rp245
I1
bag34
(g38
g39
(dp246
VUserName
p247
V@7ff99594c6aac72cdcc01b754555ea96bf70c24bf4ff9a84d650fd07b8b9398d
p248
sVCity
p249
V\u671d\u9633
p250
sVSnsFlag
p251
I1
sVDisplayName
p252
g52
sVUniFriend
p253
I0
sVMemberCount
p254
I0
sVOwnerUin
p255
I0
sVMemberList
p256
g50
sVAlias
p257
g52
sVPYQuanPin
p258
Vxiaomaoshugadian
p259
sVSignature
p260
V\u5907\u6ce8\u6765\u610f+\u54ea\u91cc\u770b\u5230\u5fae\u4fe1\u53f7\uff0c\u4e0d\u5907\u6ce8\u4e0d\u901a\u8fc7
p261
sVRemarkPYInitial
p262
g52
sVContactFlag
p263
I3
sVUin
p264
I0
sVNickName
p265
V\u5c0f\u732b\u4e66\u5496\u5e97
p266
sVAppAccountFlag
p267
I0
sVVerifyFlag
p268
I0
sVRemarkPYQuanPin
p269
g52
sVHeadImgUrl
p270
V/cgi-bin/mmwebwx-bin/webwxgeticon?seq=673723018&username=@7ff99594c6aac72cdcc01b754555ea96bf70c24bf4ff9a84d650fd07b8b9398d&skey=@crypt_49509d7f_e054af9ea2eafe48812c484fd0876b71
p271
sVKeyWord
p272
g52
sVProvince
p273
V\u5317\u4eac
p274
sVPYInitial
p275
VXMSGD
p276
sVRemarkName
p277
g52
sVIsOwner
p278
I0
sVSex
p279
I2
sVStarFriend
p280
I0
sVHideInputBarFlag
p281
I0
sVChatRoomId
p282
I0
sVEncryChatRoomId
p283
g52
sVAttrStatus
p284
I135717
sVStatues
p285
I0
stp286
Rp287
I1
bag34
(g38
g39
(dp288
VUserName
p289
V@42e54dde7d53af0ac21c3aa89ab5c4f614dcbcc6448381f97a9fa4d0ff899319
p290
sVCity
p291
VOthers
p292
sVSnsFlag
p293
I1
sVDisplayName
p294
g52
sVUniFriend
p295
I0
sVMemberCount
p296
I0
sVOwnerUin
p297
I0
sVMemberList
p298
g50
sVAlias
p299
g52
sVPYQuanPin
p300
Vabbyhuanerspanclassemojiemoji1f48bspanspanclassemojiemoji1f6baspan
p301
sVSignature
p302
V\u8ba9\u8721\u70db\u4ee3\u66ff\u6240\u6709\u706f \u8ba9\u97f3\u4e50\u4ee3\u66ff\u8bdd\u8bed\u58f0 \u6b64\u65f6\u65e0\u58f0\u80dc\u6709\u58f0
p303
sVRemarkPYInitial
p304
g52
sVContactFlag
p305
I1
sVUin
p306
I0
sVNickName
p307
Vabby\u6b22\u513f\U0001f48b\U0001f6ba
p308
sVAppAccountFlag
p309
I0
sVVerifyFlag
p310
I0
sVRemarkPYQuanPin
p311
g52
sVHeadImgUrl
p312
V/cgi-bin/mmwebwx-bin/webwxgeticon?seq=673719319&username=@42e54dde7d53af0ac21c3aa89ab5c4f614dcbcc6448381f97a9fa4d0ff899319&skey=@crypt_49509d7f_e054af9ea2eafe48812c484fd0876b71
p313
sVKeyWord
p314
g52
sVProvince
p315
VKuala Lumpur
p316
sVPYInitial
p317
VABBYHESPANCLASSEMOJIEMOJI1F48BSPANSPANCLASSEMOJIEMOJI1F6BASPAN
p318
sVRemarkName
p319
g52
sVIsOwner
p320
I0
sVSex
p321
I2
sVStarFriend
p322
I0
sVHideInputBarFlag
p323
I0
sVChatRoomId
p324
I0
sVEncryChatRoomId
p325
g52
sVAttrStatus
p326
I33656865
sVStatues
p327
I0
stp328
Rp329
I1
bag34
(g38
g39
(dp330
VUserName
p331
V@6ee13fcf8b7c0e526a7e4d9561e26207cf0bca8891eda428cc31912c5f13f44e
p332
sVCity
p333
V\u5e7f\u5dde
p334
sVSnsFlag
p335
I1
sVDisplayName
p336
g52
sVUniFriend
p337
I0
sVMemberCount
p338
I0
sVOwnerUin
p339
I0
sVMemberList
p340
g50
sVAlias
p341
g52
sVPYQuanPin
p342
VA0zhengshubanli0Azhaodaili
p343
sVSignature
p344
V\u8d28\u91cf\u4e0e\u8bda\u4fe1\u5e76\u5b58\uff01\u62db\u4ee3\u7406\uff01
p345
sVRemarkPYInitial
p346
g52
sVContactFlag
p347
I3
sVUin
p348
I0
sVNickName
p349
VA0\u8bc1\u4e66\u529e\u74060A(\u62db\u4ee3\u7406)
p350
sVAppAccountFlag
p351
I0
sVVerifyFlag
p352
I0
sVRemarkPYQuanPin
p353
g52
sVHeadImgUrl
p354
V/cgi-bin/mmwebwx-bin/webwxgeticon?seq=673724315&username=@6ee13fcf8b7c0e526a7e4d9561e26207cf0bca8891eda428cc31912c5f13f44e&skey=@crypt_49509d7f_e054af9ea2eafe48812c484fd0876b71
p355
sVKeyWord
p356
g52
sVProvince
p357
V\u5e7f\u4e1c
p358
sVPYInitial
p359
VA0ZSBL0AZDL
p360
sVRemarkName
p361
g52
sVIsOwner
p362
I0
sVSex
p363
I1
sVStarFriend
p364
I0
sVHideInputBarFlag
p365
I0
sVChatRoomId
p366
I0
sVEncryChatRoomId
p367
g52
sVAttrStatus
p368
I5053
sVStatues
p369
I0
stp370
Rp371
I1
bag34
(g38
g39
(dp372
VUserName
p373
V@84b539eea45f6fca180c4054f746cee4d56c8101dd133d896488c16dcb278674
p374
sVCity
p375
g52
sVSnsFlag
p376
I1
sVDisplayName
p377
g52
sVUniFriend
p378
I0
sVMemberCount
p379
I0
sVOwnerUin
p380
I0
sVMemberList
p381
g50
sVAlias
p382
g52
sVPYQuanPin
p383
Vspanclassemojiemoji1f451spanHoiYispanclassemojiemoji1f451span
p384
sVSignature
p385
V\u4eba\u751f\u5efa\u8bae\uff1aKeep it real<span class="emoji emoji2764"></span>\ufe0f\u2003\u2003\u2003\u2003\u2003\u2003\u2003\u2003 \u2003\u05b4\u05b4\u000a\u05b4
p386
sVRemarkPYInitial
p387
g52
sVContactFlag
p388
I1
sVUin
p389
I0
sVNickName
p390
V\U0001f451HoiYi\U0001f451
p391
sVAppAccountFlag
p392
I0
sVVerifyFlag
p393
I0
sVRemarkPYQuanPin
p394
g52
sVHeadImgUrl
p395
V/cgi-bin/mmwebwx-bin/webwxgeticon?seq=673722685&username=@84b539eea45f6fca180c4054f746cee4d56c8101dd133d896488c16dcb278674&skey=@crypt_49509d7f_e054af9ea2eafe48812c484fd0876b71
p396
sVKeyWord
p397
g52
sVProvince
p398
g52
sVPYInitial
p399
VSPANCLASSEMOJIEMOJI1F451SPANHOIYISPANCLASSEMOJIEMOJI1F451SPAN
p400
sVRemarkName
p401
g52
sVIsOwner
p402
I0
sVSex
p403
I0
sVStarFriend
p404
I0
sVHideInputBarFlag
p405
I0
sVChatRoomId
p406
I0
sVEncryChatRoomId
p407
g52
sVAttrStatus
p408
I105253
sVStatues
p409
I0
stp410
Rp411
I1
bag34
(g38
g39
(dp412
VUserName
p413
V@2dc9909a8a1d47fcf594d13896bb9e20b8cdbe61bccfe5432c3ca13359d65ce7
p414
sVCity
p415
g52
sVSnsFlag
p416
I1
sVDisplayName
p417
g52
sVUniFriend
p418
I0
sVMemberCount
p419
I0
sVOwnerUin
p420
I0
sVMemberList
p421
g50
sVAlias
p422
g52
sVPYQuanPin
p423
Vruhigruhig
p424
sVSignature
p425
g52
sVRemarkPYInitial
p426
g52
sVContactFlag
p427
I3
sVUin
p428
I0
sVNickName
p429
Vruhigruhig
p430
sVAppAccountFlag
p431
I0
sVVerifyFlag
p432
I0
sVRemarkPYQuanPin
p433
g52
sVHeadImgUrl
p434
V/cgi-bin/mmwebwx-bin/webwxgeticon?seq=673722781&username=@2dc9909a8a1d47fcf594d13896bb9e20b8cdbe61bccfe5432c3ca13359d65ce7&skey=@crypt_49509d7f_e054af9ea2eafe48812c484fd0876b71
p435
sVKeyWord
p436
g52
sVProvince
p437
g52
sVPYInitial
p438
VRUHIGRUHIG
p439
sVRemarkName
p440
g52
sVIsOwner
p441
I0
sVSex
p442
I0
sVStarFriend
p443
I0
sVHideInputBarFlag
p444
I0
sVChatRoomId
p445
I0
sVEncryChatRoomId
p446
g52
sVAttrStatus
p447
I234277
sVStatues
p448
I0
stp449
Rp450
I1
bag34
(g38
g39
(dp451
VUserName
p452
V@a2f1c16fcf4f3c25650e28e52ff6deaa
p453
sVCity
p454
V\u4e1c\u57ce
p455
sVSnsFlag
p456
I17
sVDisplayName
p457
g52
sVUniFriend
p458
I0
sVMemberCount
p459
I0
sVOwnerUin
p460
I0
sVMemberList
p461
g50
sVAlias
p462
g52
sVPYQuanPin
p463
Vpengcheng
p464
sVSignature
p465
V\u672a\u6765\u4e0d\u8fce\uff0c\u5f53\u65f6\u4e0d\u6742\uff0c\u8fc7\u5f80\u4e0d\u604b
p466
sVRemarkPYInitial
p467
g52
sVContactFlag
p468
I3
sVUin
p469
I0
sVNickName
p470
V\u9e4f\u7a0b
p471
sVAppAccountFlag
p472
I0
sVVerifyFlag
p473
I0
sVRemarkPYQuanPin
p474
g52
sVHeadImgUrl
p475
V/cgi-bin/mmwebwx-bin/webwxgeticon?seq=669180196&username=@a2f1c16fcf4f3c25650e28e52ff6deaa&skey=@crypt_49509d7f_e054af9ea2eafe48812c484fd0876b71
p476
sVKeyWord
p477
Vwar
p478
sVProvince
p479
V\u5317\u4eac
p480
sVPYInitial
p481
VPC
p482
sVRemarkName
p483
g52
sVIsOwner
p484
I0
sVSex
p485
I1
sVStarFriend
p486
I0
sVHideInputBarFlag
p487
I0
sVChatRoomId
p488
I0
sVEncryChatRoomId
p489
g52
sVAttrStatus
p490
I33691111
sVStatues
p491
I0
stp492
Rp493
I1
bag34
(g38
g39
(dp494
VUserName
p495
V@d64d00d7910d5341e41d97c4e119e3cd6e52639ab0a4db05ba33bd39f484b4f5
p496
sVCity
p497
g52
sVSnsFlag
p498
I1
sVDisplayName
p499
g52
sVUniFriend
p500
I0
sVMemberCount
p501
I0
sVOwnerUin
p502
I0
sVMemberList
p503
g50
sVAlias
p504
g52
sVPYQuanPin
p505
VSimpler?
p506
sVSignature
p507
VHierarchy
p508
sVRemarkPYInitial
p509
g52
sVContactFlag
p510
I1
sVUin
p511
I0
sVNickName
p512
VSimpler\U0001f408
p513
sVAppAccountFlag
p514
I0
sVVerifyFlag
p515
I0
sVRemarkPYQuanPin
p516
g52
sVHeadImgUrl
p517
V/cgi-bin/mmwebwx-bin/webwxgeticon?seq=673719582&username=@d64d00d7910d5341e41d97c4e119e3cd6e52639ab0a4db05ba33bd39f484b4f5&skey=@crypt_49509d7f_e054af9ea2eafe48812c484fd0876b71
p518
sVKeyWord
p519
g52
sVProvince
p520
g52
sVPYInitial
p521
VSIMPLER?
p522
sVRemarkName
p523
g52
sVIsOwner
p524
I0
sVSex
p525
I2
sVStarFriend
p526
I0
sVHideInputBarFlag
p527
I0
sVChatRoomId
p528
I0
sVEncryChatRoomId
p529
g52
sVAttrStatus
p530
I234277
sVStatues
p531
I0
stp532
Rp533
I1
bag34
(g38
g39
(dp534
VUserName
p535
V@e11dbad6f17fcf3513427606ef5ee5f223fac3271b190679f1cc9040c9b300b7
p536
sVCity
p537
g52
sVSnsFlag
p538
I1
sVDisplayName
p539
g52
sVUniFriend
p540
I0
sVMemberCount
p541
I0
sVOwnerUin
p542
I0
sVMemberList
p543
g50
sVAlias
p544
g52
sVPYQuanPin
p545
VMolly
p546
sVSignature
p547
V\u5c3d\u4eba\u4e8b\u542c\u5929\u610f\uff01
p548
sVRemarkPYInitial
p549
g52
sVContactFlag
p550
I1
sVUin
p551
I0
sVNickName
p552
VMolly
p553
sVAppAccountFlag
p554
I0
sVVerifyFlag
p555
I0
sVRemarkPYQuanPin
p556
g52
sVHeadImgUrl
p557
V/cgi-bin/mmwebwx-bin/webwxgeticon?seq=673715616&username=@e11dbad6f17fcf3513427606ef5ee5f223fac3271b190679f1cc9040c9b300b7&skey=@crypt_49509d7f_e054af9ea2eafe48812c484fd0876b71
p558
sVKeyWord
p559
g52
sVProvince
p560
g52
sVPYInitial
p561
VMOLLY
p562
sVRemarkName
p563
g52
sVIsOwner
p564
I0
sVSex
p565
I2
sVStarFriend
p566
I0
sVHideInputBarFlag
p567
I0
sVChatRoomId
p568
I0
sVEncryChatRoomId
p569
g52
sVAttrStatus
p570
I234083
sVStatues
p571
I0
stp572
Rp573
I1
bag34
(g38
g39
(dp574
VUserName
p575
V@70c3de2fa18ef22f21f85b26b56cbed3f7bbd8a7496a8389d08922f812e4c811
p576
sVCity
p577
V\u5305\u5934
p578
sVSnsFlag
p579
I1
sVDisplayName
p580
g52
sVUniFriend
p581
I0
sVMemberCount
p582
I0
sVOwnerUin
p583
I0
sVMemberList
p584
g50
sVAlias
p585
g52
sVPYQuanPin
p586
Vxiaoqing
p587
sVSignature
p588
g52
sVRemarkPYInitial
p589
g52
sVContactFlag
p590
I1
sVUin
p591
I0
sVNickName
p592
V\u5c0f\u9752
p593
sVAppAccountFlag
p594
I0
sVVerifyFlag
p595
I0
sVRemarkPYQuanPin
p596
g52
sVHeadImgUrl
p597
V/cgi-bin/mmwebwx-bin/webwxgeticon?seq=673718930&username=@70c3de2fa18ef22f21f85b26b56cbed3f7bbd8a7496a8389d08922f812e4c811&skey=@crypt_49509d7f_e054af9ea2eafe48812c484fd0876b71
p598
sVKeyWord
p599
g52
sVProvince
p600
V\u5185\u8499\u53e4
p601
sVPYInitial
p602
VXQ
p603
sVRemarkName
p604
g52
sVIsOwner
p605
I0
sVSex
p606
I1
sVStarFriend
p607
I0
sVHideInputBarFlag
p608
I0
sVChatRoomId
p609
I0
sVEncryChatRoomId
p610
g52
sVAttrStatus
p611
I234109
sVStatues
p612
I0
stp613
Rp614
I1
bag34
(g38
g39
(dp615
VUserName
p616
V@a1712dc0d8c28a878be7401889ebe8c7f2e9c7fcf02d14bfc3d0eb27b137e6e4
p617
sVCity
p618
V\u6d66\u4e1c\u65b0\u533a
p619
sVSnsFlag
p620
I1
sVDisplayName
p621
g52
sVUniFriend
p622
I0
sVMemberCount
p623
I0
sVOwnerUin
p624
I0
sVMemberList
p625
g50
sVAlias
p626
g52
sVPYQuanPin
p627
Vyannispanclassemojiemoji1f485span?
p628
sVSignature
p629
V\u4f60\u82e5\u76db\u5f00\uff0c\u8774\u8776\u81ea\u6765\u2026\u2026
p630
sVRemarkPYInitial
p631
g52
sVContactFlag
p632
I1
sVUin
p633
I0
sVNickName
p634
V\u71d5\u59ae\U0001f485\U0001f3fb
p635
sVAppAccountFlag
p636
I0
sVVerifyFlag
p637
I0
sVRemarkPYQuanPin
p638
g52
sVHeadImgUrl
p639
V/cgi-bin/mmwebwx-bin/webwxgeticon?seq=673715724&username=@a1712dc0d8c28a878be7401889ebe8c7f2e9c7fcf02d14bfc3d0eb27b137e6e4&skey=@crypt_49509d7f_e054af9ea2eafe48812c484fd0876b71
p640
sVKeyWord
p641
g52
sVProvince
p642
V\u4e0a\u6d77
p643
sVPYInitial
p644
VYNSPANCLASSEMOJIEMOJI1F485SPAN?
p645
sVRemarkName
p646
g52
sVIsOwner
p647
I0
sVSex
p648
I2
sVStarFriend
p649
I0
sVHideInputBarFlag
p650
I0
sVChatRoomId
p651
I0
sVEncryChatRoomId
p652
g52
sVAttrStatus
p653
I103205
sVStatues
p654
I0
stp655
Rp656
I1
bag34
(g38
g39
(dp657
VUserName
p658
V@9c16d2ca7f87d0992dca8f0e8318c0745f0c326498f094a82cb71456e7ade87d
p659
sVCity
p660
V\u90af\u90f8
p661
sVSnsFlag
p662
I1
sVDisplayName
p663
g52
sVUniFriend
p664
I0
sVMemberCount
p665
I0
sVOwnerUin
p666
I0
sVMemberList
p667
g50
sVAlias
p668
g52
sVPYQuanPin
p669
Vniming
p670
sVSignature
p671
V<span class="emoji emoji1f63a"></span> <span class="emoji emoji1f63a"></span> <span class="emoji emoji1f63a"></span> <span class="emoji emoji1f63a"></span> <span class="emoji emoji1f63a"></span>
p672
sVRemarkPYInitial
p673
g52
sVContactFlag
p674
I1
sVUin
p675
I0
sVNickName
p676
V\u533f\u540d
p677
sVAppAccountFlag
p678
I0
sVVerifyFlag
p679
I0
sVRemarkPYQuanPin
p680
g52
sVHeadImgUrl
p681
V/cgi-bin/mmwebwx-bin/webwxgeticon?seq=673718011&username=@9c16d2ca7f87d0992dca8f0e8318c0745f0c326498f094a82cb71456e7ade87d&skey=@crypt_49509d7f_e054af9ea2eafe48812c484fd0876b71
p682
sVKeyWord
p683
g52
sVProvince
p684
V\u6cb3\u5317
p685
sVPYInitial
p686
VNM
p687
sVRemarkName
p688
g52
sVIsOwner
p689
I0
sVSex
p690
I1
sVStarFriend
p691
I0
sVHideInputBarFlag
p692
I0
sVChatRoomId
p693
I0
sVEncryChatRoomId
p694
g52
sVAttrStatus
p695
I33657021
sVStatues
p696
I0
stp697
Rp698
I1
bag34
(g38
g39
(dp699
VUserName
p700
V@7fad349633d6ecdfd81c262c27df217caf087aa0e90f55a3e79e3a9d37d65481
p701
sVCity
p702
V\u90af\u90f8
p703
sVSnsFlag
p704
I1
sVDisplayName
p705
g52
sVUniFriend
p706
I0
sVMemberCount
p707
I0
sVOwnerUin
p708
I0
sVMemberList
p709
g50
sVAlias
p710
g52
sVPYQuanPin
p711
Vningbeisenwu
p712
sVSignature
p713
V\u5b87\u5b87\u4e0d\u6536\u4e8c\u624b\u5783\u573e\u3002
p714
sVRemarkPYInitial
p715
g52
sVContactFlag
p716
I1
sVUin
p717
I0
sVNickName
p718
V\u67e0\u5317\u68ee\u5c4b\u3002
p719
sVAppAccountFlag
p720
I0
sVVerifyFlag
p721
I0
sVRemarkPYQuanPin
p722
g52
sVHeadImgUrl
p723
V/cgi-bin/mmwebwx-bin/webwxgeticon?seq=673721821&username=@7fad349633d6ecdfd81c262c27df217caf087aa0e90f55a3e79e3a9d37d65481&skey=@crypt_49509d7f_e054af9ea2eafe48812c484fd0876b71
p724
sVKeyWord
p725
g52
sVProvince
p726
V\u6cb3\u5317
p727
sVPYInitial
p728
VNBSW
p729
sVRemarkName
p730
g52
sVIsOwner
p731
I0
sVSex
p732
I2
sVStarFriend
p733
I0
sVHideInputBarFlag
p734
I0
sVChatRoomId
p735
I0
sVEncryChatRoomId
p736
g52
sVAttrStatus
p737
I102945
sVStatues
p738
I0
stp739
Rp740
I1
bag34
(g38
g39
(dp741
VUserName
p742
V@11657aee9921ca7e15dbcab941c8f2b8090ede70d27c1624ef16eba6e9c452a1
p743
sVCity
p744
g52
sVSnsFlag
p745
I1
sVDisplayName
p746
g52
sVUniFriend
p747
I0
sVMemberCount
p748
I0
sVOwnerUin
p749
I0
sVMemberList
p750
g50
sVAlias
p751
g52
sVPYQuanPin
p752
Vqinghuida2019
p753
sVSignature
p754
V\u8bda\u5fc3\u6b63\u610f\uff0c\u505a\u5fc3\u5e95\u8ba4\u4e3a\u6b63\u786e\u7684\u4e8b
p755
sVRemarkPYInitial
p756
VCLAIRTINDER
p757
sVContactFlag
p758
I1
sVUin
p759
I0
sVNickName
p760
V\u8bf7\u56de\u7b542019
p761
sVAppAccountFlag
p762
I0
sVVerifyFlag
p763
I0
sVRemarkPYQuanPin
p764
VClairTinder
p765
sVHeadImgUrl
p766
V/cgi-bin/mmwebwx-bin/webwxgeticon?seq=673719286&username=@11657aee9921ca7e15dbcab941c8f2b8090ede70d27c1624ef16eba6e9c452a1&skey=@crypt_49509d7f_e054af9ea2eafe48812c484fd0876b71
p767
sVKeyWord
p768
g52
sVProvince
p769
g52
sVPYInitial
p770
VQHD2019
p771
sVRemarkName
p772
VClair Tinder
p773
sVIsOwner
p774
I0
sVSex
p775
I0
sVStarFriend
p776
I0
sVHideInputBarFlag
p777
I0
sVChatRoomId
p778
I0
sVEncryChatRoomId
p779
g52
sVAttrStatus
p780
I233509
sVStatues
p781
I0
stp782
Rp783
I1
bag34
(g38
g39
(dp784
VUserName
p785
V@d1bba1ab7079431e33ff5dae163a8a12d359ae0e933edf5c3b17a5396b8e361b
p786
sVCity
p787
V\u53a6\u95e8
p788
sVSnsFlag
p789
I1
sVDisplayName
p790
g52
sVUniFriend
p791
I0
sVMemberCount
p792
I0
sVOwnerUin
p793
I0
sVMemberList
p794
g50
sVAlias
p795
g52
sVPYQuanPin
p796
Vfeisehuiyi
p797
sVSignature
p798
V\u505a\u4e2a\u6e29\u67d4\uff0c\u9738\u6c14\u7684\uff0c\u6dd1\u5973\U0001f643\U0001f643
p799
sVRemarkPYInitial
p800
g52
sVContactFlag
p801
I1
sVUin
p802
I0
sVNickName
p803
V\u83f2\u8272\u56de\u5fc6
p804
sVAppAccountFlag
p805
I0
sVVerifyFlag
p806
I0
sVRemarkPYQuanPin
p807
g52
sVHeadImgUrl
p808
V/cgi-bin/mmwebwx-bin/webwxgeticon?seq=673715277&username=@d1bba1ab7079431e33ff5dae163a8a12d359ae0e933edf5c3b17a5396b8e361b&skey=@crypt_49509d7f_e054af9ea2eafe48812c484fd0876b71
p809
sVKeyWord
p810
g52
sVProvince
p811
V\u798f\u5efa
p812
sVPYInitial
p813
VFSHY
p814
sVRemarkName
p815
g52
sVIsOwner
p816
I0
sVSex
p817
I2
sVStarFriend
p818
I0
sVHideInputBarFlag
p819
I0
sVChatRoomId
p820
I0
sVEncryChatRoomId
p821
g52
sVAttrStatus
p822
I102589
sVStatues
p823
I0
stp824
Rp825
I1
bag34
(g38
g39
(dp826
VUserName
p827
V@c9a7a00d8ff4b1963ac13e157e91bdbb
p828
sVCity
p829
V\u65e0\u9521
p830
sVSnsFlag
p831
I177
sVDisplayName
p832
g52
sVUniFriend
p833
I0
sVMemberCount
p834
I0
sVOwnerUin
p835
I0
sVMemberList
p836
g50
sVAlias
p837
g52
sVPYQuanPin
p838
VjietouebaZip
p839
sVSignature
p840
VStreet Bully &amp; \u72d7\u4e0d\u61c2\u521b\u59cb\u4eba
p841
sVRemarkPYInitial
p842
g52
sVContactFlag
p843
I1
sVUin
p844
I0
sVNickName
p845
V\u8857\u982d\u60e1\u9738\u3010Zip\u3011
p846
sVAppAccountFlag
p847
I0
sVVerifyFlag
p848
I0
sVRemarkPYQuanPin
p849
g52
sVHeadImgUrl
p850
V/cgi-bin/mmwebwx-bin/webwxgeticon?seq=673713460&username=@c9a7a00d8ff4b1963ac13e157e91bdbb&skey=@crypt_49509d7f_e054af9ea2eafe48812c484fd0876b71
p851
sVKeyWord
p852
Vtr8
p853
sVProvince
p854
V\u6c5f\u82cf
p855
sVPYInitial
p856
VJTEBZIP
p857
sVRemarkName
p858
g52
sVIsOwner
p859
I0
sVSex
p860
I1
sVStarFriend
p861
I0
sVHideInputBarFlag
p862
I0
sVChatRoomId
p863
I0
sVEncryChatRoomId
p864
g52
sVAttrStatus
p865
I2147564455
sVStatues
p866
I0
stp867
Rp868
I1
batp869
Rp870
I1
bsS'chatroomList'
p871
g34
(g35
g36
(lp872
g34
(citchat.storage.templates
Chatroom
p873
g39
(dp874
VUserName
p875
V@@9bca5f157e4b64b49f5236f647d041d779559a1cf2f122bf3503d645dbf831f6
p876
sVCity
p877
g52
sVDisplayName
p878
g52
sVUniFriend
p879
I0
sS'Self'
p880
g34
(g38
g39
(dp881
g41
g31
sg42
g43
sg44
g43
sg45
I0
sg46
I0
sg47
g34
(g35
g36
(lp882
tp883
Rp884
I1
bsg51
g52
sg53
g52
sg54
I200509586
sg55
I0
sg56
I0
sg57
g43
sg58
g43
sg59
g52
sg60
g52
sg61
I0
sg62
I0
sg63
I1
sg64
g43
sg65
I0
sg66
I0
sg67
I0
sg68
I0
sg69
g43
sg70
g52
sg71
I0
sg72
g73
sg74
g52
sg75
g76
sg77
I1
sg78
I0
sg79
I0
stp885
Rp886
I1
bsVMemberList
p887
g34
(g35
g36
(lp888
tp889
Rp890
I1
bsVPYQuanPin
p891
g52
sVRemarkPYInitial
p892
g52
sVSex
p893
I0
sVAppAccountFlag
p894
I0
sVVerifyFlag
p895
I0
sVProvince
p896
g52
sVKeyWord
p897
g52
sVRemarkName
p898
g52
sVPYInitial
p899
g52
sVIsOwner
p900
I0
sVChatRoomId
p901
I0
sVHideInputBarFlag
p902
I0
sVEncryChatRoomId
p903
g52
sVAttrStatus
p904
I0
sVSnsFlag
p905
I0
sVMemberCount
p906
I5
sVOwnerUin
p907
I0
sVAlias
p908
g52
sS'IsAdmin'
p909
NsVSignature
p910
g52
sVContactFlag
p911
I0
sVNickName
p912
VRedis\u6280\u672f\u4ea4\u6d41\u7fa43
p913
sVRemarkPYQuanPin
p914
g52
sVHeadImgUrl
p915
V/cgi-bin/mmwebwx-bin/webwxgetheadimg?seq=0&username=@@9bca5f157e4b64b49f5236f647d041d779559a1cf2f122bf3503d645dbf831f6&skey=@crypt_49509d7f_e054af9ea2eafe48812c484fd0876b71
p916
sVUin
p917
I0
sVStarFriend
p918
I0
sVStatues
p919
I1
stp920
Rp921
I1
bag34
(g873
g39
(dp922
VUserName
p923
V@@cd5d21043d63ff84576e8533a78e6a7cc0db434c8d38dcb257d9900d90069cf6
p924
sVCity
p925
g52
sVDisplayName
p926
g52
sVUniFriend
p927
I0
sg880
g34
(g38
g39
(dp928
g41
g31
sg42
g43
sg44
g43
sg45
I0
sg46
I0
sg47
g34
(g35
g36
(lp929
tp930
Rp931
I1
bsg51
g52
sg53
g52
sg54
I200509586
sg55
I0
sg56
I0
sg57
g43
sg58
g43
sg59
g52
sg60
g52
sg61
I0
sg62
I0
sg63
I1
sg64
g43
sg65
I0
sg66
I0
sg67
I0
sg68
I0
sg69
g43
sg70
g52
sg71
I0
sg72
g73
sg74
g52
sg75
g76
sg77
I1
sg78
I0
sg79
I0
stp932
Rp933
I1
bsVMemberList
p934
g34
(g35
g36
(lp935
tp936
Rp937
I1
bsVPYQuanPin
p938
g52
sVRemarkPYInitial
p939
g52
sVSex
p940
I0
sVAppAccountFlag
p941
I0
sVVerifyFlag
p942
I0
sVProvince
p943
g52
sVKeyWord
p944
g52
sVRemarkName
p945
g52
sVPYInitial
p946
g52
sVIsOwner
p947
I0
sVChatRoomId
p948
I0
sVHideInputBarFlag
p949
I0
sVEncryChatRoomId
p950
g52
sVAttrStatus
p951
I0
sVSnsFlag
p952
I0
sVMemberCount
p953
I499
sVOwnerUin
p954
I0
sVAlias
p955
g52
sg909
NsVSignature
p956
g52
sVContactFlag
p957
I0
sVNickName
p958
VRedis\u6280\u672f\u4ea4\u6d41\u7fa42
p959
sVRemarkPYQuanPin
p960
g52
sVHeadImgUrl
p961
V/cgi-bin/mmwebwx-bin/webwxgetheadimg?seq=0&username=@@cd5d21043d63ff84576e8533a78e6a7cc0db434c8d38dcb257d9900d90069cf6&skey=@crypt_49509d7f_e054af9ea2eafe48812c484fd0876b71
p962
sVUin
p963
I0
sVStarFriend
p964
I0
sVStatues
p965
I1
stp966
Rp967
I1
bag34
(g873
g39
(dp968
VUserName
p969
V@@82c07a421c55b1de46d224343e00992739227ebf40830014c436ae94fae4b00f
p970
sVCity
p971
g52
sVDisplayName
p972
g52
sVUniFriend
p973
I0
sg880
g34
(g38
g39
(dp974
g41
g31
sg42
g43
sg44
g43
sg45
I0
sg46
I0
sg47
g34
(g35
g36
(lp975
tp976
Rp977
I1
bsg51
g52
sg53
g52
sg54
I200509586
sg55
I0
sg56
I0
sg57
g43
sg58
g43
sg59
g52
sg60
g52
sg61
I0
sg62
I0
sg63
I1
sg64
g43
sg65
I0
sg66
I0
sg67
I0
sg68
I0
sg69
g43
sg70
g52
sg71
I0
sg72
g73
sg74
g52
sg75
g76
sg77
I1
sg78
I0
sg79
I0
stp978
Rp979
I1
bsVMemberList
p980
g34
(g35
g36
(lp981
tp982
Rp983
I1
bsVPYQuanPin
p984
g52
sVRemarkPYInitial
p985
g52
sVSex
p986
I0
sVAppAccountFlag
p987
I0
sVVerifyFlag
p988
I0
sVProvince
p989
g52
sVKeyWord
p990
g52
sVRemarkName
p991
g52
sVPYInitial
p992
g52
sVIsOwner
p993
I0
sVChatRoomId
p994
I0
sVHideInputBarFlag
p995
I0
sVEncryChatRoomId
p996
g52
sVAttrStatus
p997
I0
sVSnsFlag
p998
I0
sVMemberCount
p999
I499
sVOwnerUin
p1000
I0
sVAlias
p1001
g52
sg909
NsVSignature
p1002
g52
sVContactFlag
p1003
I2
sVNickName
p1004
VRedis\u6280\u672f\u4ea4\u6d41\u7fa4
p1005
sVRemarkPYQuanPin
p1006
g52
sVHeadImgUrl
p1007
V/cgi-bin/mmwebwx-bin/webwxgetheadimg?seq=673725263&username=@@82c07a421c55b1de46d224343e00992739227ebf40830014c436ae94fae4b00f&skey=@crypt_49509d7f_e054af9ea2eafe48812c484fd0876b71
p1008
sVUin
p1009
I0
sVStarFriend
p1010
I0
sVStatues
p1011
I1
stp1012
Rp1013
I1
batp1014
Rp1015
I1
bsS'nickName'
p1016
g73
sS'mpList'
p1017
g34
(g35
g36
(lp1018
g34
(citchat.storage.templates
MassivePlatform
p1019
g39
(dp1020
VUserName
p1021
V@30c04461b97d1713ffa7f17e4d0e605f
p1022
sVCity
p1023
V\u5e7f\u5dde
p1024
sVSnsFlag
p1025
I0
sVDisplayName
p1026
g52
sVUniFriend
p1027
I0
sVMemberCount
p1028
I0
sVOwnerUin
p1029
I0
sVMemberList
p1030
g50
sVAlias
p1031
g52
sVPYQuanPin
p1032
Vyikushaonv
p1033
sVSignature
p1034
V\u5173\u6ce8\u4e0d\u4e86\uff1f \u8bf7\u641c\u7d22\u5173\u6ce8\uff1a\u5947\u8da3\u62a5\u793e\u65b0\u53f7
p1035
sVRemarkPYInitial
p1036
g52
sVContactFlag
p1037
I3
sVUin
p1038
I0
sVNickName
p1039
V\u4e00\u5e93\u5c11\u5973
p1040
sVAppAccountFlag
p1041
I0
sVVerifyFlag
p1042
I8
sVRemarkPYQuanPin
p1043
g52
sVHeadImgUrl
p1044
V/cgi-bin/mmwebwx-bin/webwxgeticon?seq=673712037&username=@30c04461b97d1713ffa7f17e4d0e605f&skey=@crypt_49509d7f_e054af9ea2eafe48812c484fd0876b71
p1045
sVKeyWord
p1046
Vgh_
p1047
sVProvince
p1048
V\u5e7f\u4e1c
p1049
sVPYInitial
p1050
VYKSN
p1051
sVRemarkName
p1052
g52
sVIsOwner
p1053
I0
sVSex
p1054
I0
sVStarFriend
p1055
I0
sVHideInputBarFlag
p1056
I0
sVChatRoomId
p1057
I0
sVEncryChatRoomId
p1058
g52
sVAttrStatus
p1059
I0
sVStatues
p1060
I0
stp1061
Rp1062
I1
bag34
(g1019
g39
(dp1063
VUserName
p1064
V@a8b550350f2e4f45fedf5800f59788ab
p1065
sVCity
p1066
V\u9752\u6d66
p1067
sVSnsFlag
p1068
I0
sVDisplayName
p1069
g52
sVUniFriend
p1070
I0
sVMemberCount
p1071
I0
sVOwnerUin
p1072
I0
sVMemberList
p1073
g50
sVAlias
p1074
g52
sVPYQuanPin
p1075
Vdebangkuaidi
p1076
sVSignature
p1077
V\u5173\u6ce8\u7acb\u4eab25\u5143\u5bc4\u4ef6\u4f18\u60e0\u5927\u793c\u5305\uff0c\u5b9e\u65f6\u83b7\u53d6\u8d27\u7269\u52a8\u6001\u3002
p1078
sVRemarkPYInitial
p1079
g52
sVContactFlag
p1080
I3
sVUin
p1081
I0
sVNickName
p1082
V\u5fb7\u90a6\u5feb\u9012
p1083
sVAppAccountFlag
p1084
I0
sVVerifyFlag
p1085
I24
sVRemarkPYQuanPin
p1086
g52
sVHeadImgUrl
p1087
V/cgi-bin/mmwebwx-bin/webwxgeticon?seq=673716437&username=@a8b550350f2e4f45fedf5800f59788ab&skey=@crypt_49509d7f_e054af9ea2eafe48812c484fd0876b71
p1088
sVKeyWord
p1089
Vgh_
p1090
sVProvince
p1091
V\u4e0a\u6d77
p1092
sVPYInitial
p1093
VDBKD
p1094
sVRemarkName
p1095
g52
sVIsOwner
p1096
I0
sVSex
p1097
I0
sVStarFriend
p1098
I0
sVHideInputBarFlag
p1099
I0
sVChatRoomId
p1100
I0
sVEncryChatRoomId
p1101
g52
sVAttrStatus
p1102
I0
sVStatues
p1103
I0
stp1104
Rp1105
I1
bag34
(g1019
g39
(dp1106
VUserName
p1107
V@b293c5628e8b6fe16685d29a0fd94ffc
p1108
sVCity
p1109
V\u6df1\u5733
p1110
sVSnsFlag
p1111
I0
sVDisplayName
p1112
g52
sVUniFriend
p1113
I0
sVMemberCount
p1114
I0
sVOwnerUin
p1115
I0
sVMemberList
p1116
g50
sVAlias
p1117
g52
sVPYQuanPin
p1118
Vqiyueyingku
p1119
sVSignature
p1120
V\u56e0\u4e3a\u7231\u7535\u5f71\uff0c\u6240\u4ee5\u4e0d\u5bc2\u5bde\u3002
p1121
sVRemarkPYInitial
p1122
g52
sVContactFlag
p1123
I3
sVUin
p1124
I0
sVNickName
p1125
V\u4e03\u6708\u5f71\u5e93
p1126
sVAppAccountFlag
p1127
I0
sVVerifyFlag
p1128
I24
sVRemarkPYQuanPin
p1129
g52
sVHeadImgUrl
p1130
V/cgi-bin/mmwebwx-bin/webwxgeticon?seq=673715022&username=@b293c5628e8b6fe16685d29a0fd94ffc&skey=@crypt_49509d7f_e054af9ea2eafe48812c484fd0876b71
p1131
sVKeyWord
p1132
Vgh_
p1133
sVProvince
p1134
V\u5e7f\u4e1c
p1135
sVPYInitial
p1136
VQYYK
p1137
sVRemarkName
p1138
g52
sVIsOwner
p1139
I0
sVSex
p1140
I0
sVStarFriend
p1141
I0
sVHideInputBarFlag
p1142
I0
sVChatRoomId
p1143
I0
sVEncryChatRoomId
p1144
g52
sVAttrStatus
p1145
I0
sVStatues
p1146
I0
stp1147
Rp1148
I1
bag34
(g1019
g39
(dp1149
VUserName
p1150
V@0d9ab37cf77c9138e8217bd72e6a31a7
p1151
sVCity
p1152
V\u6df1\u5733
p1153
sVSnsFlag
p1154
I0
sVDisplayName
p1155
g52
sVUniFriend
p1156
I0
sVMemberCount
p1157
I0
sVOwnerUin
p1158
I0
sVMemberList
p1159
g50
sVAlias
p1160
g52
sVPYQuanPin
p1161
Vshunfengsuyun
p1162
sVSignature
p1163
V\u5feb\u4ef6\u4fe1\u606f\u5b9e\u65f6\u6536\uff0c\u4f1a\u5458\u6743\u76ca\u7b49\u4f60\u62ff\u3002\u987a\u4e30\u901f\u8fd0\u51fa\u54c1\uff0c\u4e00\u6b3e\u63d0\u4f9b\u5728\u7ebf\u5bc4\u4ef6\u3001\u4e00\u5c0f\u65f6\u4e0a\u95e8\u3001\u5feb\u9012\u5355\u53f7\u67e5\u8be2\u3001\u7f51\u70b9\u67e5\u8be2\u3001\u8fd0\u8d39\u67e5\u8be2\u7b49\u76f8\u5173\u670d\u52a1\u7684\u5feb\u9012\u7269\u6d41\u516c\u4f17\u53f7\u3002\u67e5\u5feb\u9012\u3001\u5bc4\u5feb\u9012\u7528\u987a\u4e30\uff0c\u4e0d\u6b62\u662f\u5feb\u3002
p1164
sVRemarkPYInitial
p1165
g52
sVContactFlag
p1166
I3
sVUin
p1167
I0
sVNickName
p1168
V\u987a\u4e30\u901f\u8fd0
p1169
sVAppAccountFlag
p1170
I0
sVVerifyFlag
p1171
I24
sVRemarkPYQuanPin
p1172
g52
sVHeadImgUrl
p1173
V/cgi-bin/mmwebwx-bin/webwxgeticon?seq=673719418&username=@0d9ab37cf77c9138e8217bd72e6a31a7&skey=@crypt_49509d7f_e054af9ea2eafe48812c484fd0876b71
p1174
sVKeyWord
p1175
Vgh_
p1176
sVProvince
p1177
V\u5e7f\u4e1c
p1178
sVPYInitial
p1179
VSFSY
p1180
sVRemarkName
p1181
g52
sVIsOwner
p1182
I0
sVSex
p1183
I0
sVStarFriend
p1184
I0
sVHideInputBarFlag
p1185
I0
sVChatRoomId
p1186
I0
sVEncryChatRoomId
p1187
g52
sVAttrStatus
p1188
I0
sVStatues
p1189
I0
stp1190
Rp1191
I1
bag34
(g1019
g39
(dp1192
VUserName
p1193
V@d7cdefe26b31aa96cbe8f2b856272b87
p1194
sVCity
p1195
V\u6d4e\u5357
p1196
sVSnsFlag
p1197
I0
sVDisplayName
p1198
g52
sVUniFriend
p1199
I0
sVMemberCount
p1200
I0
sVOwnerUin
p1201
I0
sVMemberList
p1202
g50
sVAlias
p1203
g52
sVPYQuanPin
p1204
Vbaigehuidi
p1205
sVSignature
p1206
V\u767d\u9e3d\u60e0\u9012\u4e3a\u5feb\u9012\u7269\u6d41\u4e1a\u52a1\u7684\u7f51\u4e0a\u4e0b\u5355\u5e73\u53f0\u3002\u4e0e\u4e2d\u90ae\u3001\u987a\u4e30\u3001\u5fb7\u90a6\u3001\u5706\u901a\u3001\u5b85\u6025\u9001\u7b49\u4e00\u7ebf\u901f\u8fd0\u4f01\u4e1a\u5f62\u6210\u5168\u56fd\u5408\u4f5c\u9635\u8425\u3002\u7528\u6237\u53ef\u5728\u7ebf\u5bf9\u6bd4\u4e0b\u5355\uff0c\u4eab\u53d7\u5e73\u53f0\u8865\u8d34\u3002\u4e0b\u5355\u540e\u5ba2\u6237\u9759\u5f85\u5feb\u9012\u5458\u63fd\u4ef6\u3002
p1207
sVRemarkPYInitial
p1208
g52
sVContactFlag
p1209
I3
sVUin
p1210
I0
sVNickName
p1211
V\u767d\u9e3d\u60e0\u9012
p1212
sVAppAccountFlag
p1213
I0
sVVerifyFlag
p1214
I24
sVRemarkPYQuanPin
p1215
g52
sVHeadImgUrl
p1216
V/cgi-bin/mmwebwx-bin/webwxgeticon?seq=673719895&username=@d7cdefe26b31aa96cbe8f2b856272b87&skey=@crypt_49509d7f_e054af9ea2eafe48812c484fd0876b71
p1217
sVKeyWord
p1218
Vgh_
p1219
sVProvince
p1220
V\u5c71\u4e1c
p1221
sVPYInitial
p1222
VBGHD
p1223
sVRemarkName
p1224
g52
sVIsOwner
p1225
I0
sVSex
p1226
I0
sVStarFriend
p1227
I0
sVHideInputBarFlag
p1228
I0
sVChatRoomId
p1229
I0
sVEncryChatRoomId
p1230
g52
sVAttrStatus
p1231
I0
sVStatues
p1232
I0
stp1233
Rp1234
I1
batp1235
Rp1236
I1
bssS'loginInfo'
p1237
(dp1238
S'SyncKey'
p1239
(dp1240
VCount
p1241
I4
sVList
p1242
(lp1243
(dp1244
VVal
p1245
I673725255
sVKey
p1246
I1
sa(dp1247
VVal
p1248
I673725338
sVKey
p1249
I2
sa(dp1250
VVal
p1251
I673725319
sVKey
p1252
I3
sa(dp1253
VVal
p1254
I1567152675
sVKey
p1255
I1000
sassS'syncUrl'
p1256
S'https://webpush.wx2.qq.com/cgi-bin/mmwebwx-bin'
p1257
sS'skey'
p1258
V@crypt_49509d7f_e054af9ea2eafe48812c484fd0876b71
p1259
sS'wxuin'
p1260
V200509586
p1261
sS'synckey'
p1262
S'1_673725255|2_673725338|3_673725319|1000_1567152675'
p1263
sS'url'
p1264
Vhttps://wx2.qq.com/cgi-bin/mmwebwx-bin
p1265
sS'pass_ticket'
p1266
Vp87vskd3g5m5TqoAbOAhJvX0qgvzCzrpYAeRwRc4wzs%3D
p1267
sS'wxsid'
p1268
VW5oayLXSHRIFumtW
p1269
sS'User'
p1270
g34
(g38
g39
(dp1271
g41
g31
sg42
g43
sg44
g43
sg45
I0
sg47
g50
sg51
g52
sg53
g52
sg77
I1
sg55
I0
sg56
I0
sg57
g43
sg58
g43
sg59
g52
sg60
g52
sg61
I0
sg62
I0
sg63
I1
sg64
g43
sg65
I0
sg68
I0
sg66
I0
sg67
I0
sg46
I0
sg69
g43
sg70
g52
sg71
I0
sg72
g73
sg74
g52
sg75
g76
sg54
I200509586
sg78
I0
sg79
I0
stp1272
Rp1273
I1
bsS'InviteStartCount'
p1274
I40
sS'fileUrl'
p1275
S'https://file.wx2.qq.com/cgi-bin/mmwebwx-bin'
p1276
sS'BaseRequest'
p1277
(dp1278
g54
g1261
sS'Skey'
p1279
g1259
sS'DeviceID'
p1280
g1267
sS'Sid'
p1281
g1269
ssS'deviceid'
p1282
S'e213122344210782'
p1283
ss.