(dp0
S'cookies'
p1
(dp2
S'wxloadtime'
p3
S'1559392541'
p4
sS'webwx_data_ticket'
p5
S'gSe7Z8pt/1RGGnQK6Gcs/8Tm'
p6
sS'wxuin'
p7
S'200509586'
p8
sS'login_frequency'
p9
S'2'
p10
sS'MM_WX_NOTIFY_STATE'
p11
S'1'
p12
sS'MM_WX_SOUND_STATE'
p13
g12
sS'webwx_auth_ticket'
p14
S'CIsBELCJg+UIGoABNSE+lX+Q0gsJDvGxR7jmw9YIH4IXdR+mvQhXhNcfxgpudv/mV+faiZGE1WmBWkpvgPviqDOQXCC4VDG1/Aw3yGKZOlMKjcYhEsTwhwMzLQIg1hf5UpgZ9yoQ6Bro8LfPwyuTwIrbBgusOtAzv1O97jKoCedDqCguBrcvac8YXpA='
p15
sS'last_wxuin'
p16
S'200509586'
p17
sS'webwxuvid'
p18
S'd67c82d1011316d7673811e3409b28781876bbba4c1b52acfab654de17b1e8998401369bfd8f88a4f7be1b8079c6640d'
p19
sS'wxpluginkey'
p20
S'1558427790'
p21
sS'wxsid'
p22
S'gzDKpfoVMjvCjfrS'
p23
sS'mm_lang'
p24
S'zh_CN'
p25
ssS'version'
p26
S'1.3.10'
p27
sS'storage'
p28
(dp29
S'userName'
p30
V@d49fe73195fd3950bb120459822b2a0dfede6d4bdbf2f4c0fd1bf86e85511655
p31
sS'lastInputUserName'
p32
NsS'memberList'
p33
ccopy_reg
_reconstructor
p34
(citchat.storage.templates
ContactList
p35
c__builtin__
list
p36
(lp37
g34
(citchat.storage.templates
User
p38
c__builtin__
dict
p39
(dp40
S'UserName'
p41
g31
sS'City'
p42
S''
p43
sS'DisplayName'
p44
g43
sS'UniFriend'
p45
I0
sS'OwnerUin'
p46
I0
sS'MemberList'
p47
g34
(g35
g36
(lp48
tp49
Rp50
I1
bsS'PYQuanPin'
p51
V
p52
sS'RemarkPYInitial'
p53
g52
sS'Uin'
p54
I200509586
sS'AppAccountFlag'
p55
I0
sS'VerifyFlag'
p56
I0
sS'Province'
p57
g43
sS'KeyWord'
p58
g43
sS'RemarkName'
p59
g52
sS'PYInitial'
p60
g52
sS'ChatRoomId'
p61
I0
sS'HideInputBarFlag'
p62
I0
sVHeadImgFlag
p63
I1
sS'EncryChatRoomId'
p64
g43
sS'AttrStatus'
p65
I0
sS'SnsFlag'
p66
I0
sS'MemberCount'
p67
I0
sVWebWxPluginSwitch
p68
I0
sS'Alias'
p69
g43
sS'Signature'
p70
g52
sS'ContactFlag'
p71
I0
sS'NickName'
p72
V\u673a\u5668\u4eba\u5c0f\u80d6
p73
sS'RemarkPYQuanPin'
p74
g52
sS'HeadImgUrl'
p75
V/cgi-bin/mmwebwx-bin/webwxgeticon?seq=354340498&username=@d49fe73195fd3950bb120459822b2a0dfede6d4bdbf2f4c0fd1bf86e85511655&skey=@crypt_49509d7f_df94b43681afd374518130ada01304f0
p76
sS'Sex'
p77
I1
sS'StarFriend'
p78
I0
sS'Statues'
p79
I0
stp80
Rp81
I1
bag34
(g38
g39
(dp82
VUserName
p83
V@2eb3c6f6f023e8dbf2d180fbf8652784
p84
sVCity
p85
g52
sVSnsFlag
p86
I17
sVDisplayName
p87
g52
sVUniFriend
p88
I0
sVMemberCount
p89
I0
sVOwnerUin
p90
I0
sVMemberList
p91
g50
sVAlias
p92
g52
sVPYQuanPin
p93
VCXY
p94
sVSignature
p95
V\u7b49\u98ce\u4e5f\u7b49\u4f60\u3002
p96
sVRemarkPYInitial
p97
VXYKTX
p98
sVContactFlag
p99
I1
sVUin
p100
I0
sVNickName
p101
V-C_XY-
p102
sVAppAccountFlag
p103
I0
sVVerifyFlag
p104
I0
sVRemarkPYQuanPin
p105
Vxinyongkataoxian
p106
sVHeadImgUrl
p107
V/cgi-bin/mmwebwx-bin/webwxgeticon?seq=673710066&username=@2eb3c6f6f023e8dbf2d180fbf8652784&skey=@crypt_49509d7f_df94b43681afd374518130ada01304f0
p108
sVKeyWord
p109
Vwux
p110
sVProvince
p111
g52
sVPYInitial
p112
VCXY
p113
sVRemarkName
p114
V\u4fe1\u7528\u5361\u5957\u73b0
p115
sVIsOwner
p116
I0
sVSex
p117
I2
sVStarFriend
p118
I0
sVHideInputBarFlag
p119
I0
sVChatRoomId
p120
I0
sVEncryChatRoomId
p121
g52
sVAttrStatus
p122
I111719
sVStatues
p123
I0
stp124
Rp125
I1
bag34
(g38
g39
(dp126
VUserName
p127
V@e0658d04641e3e5a416b19f79039242def9ab4b90be355c02a835f891a842a83
p128
sVCity
p129
V\u53a6\u95e8
p130
sVSnsFlag
p131
I1
sVDisplayName
p132
g52
sVUniFriend
p133
I0
sVMemberCount
p134
I0
sVOwnerUin
p135
I0
sVMemberList
p136
g50
sVAlias
p137
g52
sVPYQuanPin
p138
Vfeisehuiyi
p139
sVSignature
p140
V\u505a\u4e2a\u6e29\u67d4\uff0c\u9738\u6c14\u7684\uff0c\u6dd1\u5973\U0001f643\U0001f643
p141
sVRemarkPYInitial
p142
g52
sVContactFlag
p143
I1
sVUin
p144
I0
sVNickName
p145
V\u83f2\u8272\u56de\u5fc6
p146
sVAppAccountFlag
p147
I0
sVVerifyFlag
p148
I0
sVRemarkPYQuanPin
p149
g52
sVHeadImgUrl
p150
V/cgi-bin/mmwebwx-bin/webwxgeticon?seq=673715277&username=@e0658d04641e3e5a416b19f79039242def9ab4b90be355c02a835f891a842a83&skey=@crypt_49509d7f_df94b43681afd374518130ada01304f0
p151
sVKeyWord
p152
g52
sVProvince
p153
V\u798f\u5efa
p154
sVPYInitial
p155
VFSHY
p156
sVRemarkName
p157
g52
sVIsOwner
p158
I0
sVSex
p159
I2
sVStarFriend
p160
I0
sVHideInputBarFlag
p161
I0
sVChatRoomId
p162
I0
sVEncryChatRoomId
p163
g52
sVAttrStatus
p164
I102589
sVStatues
p165
I0
stp166
Rp167
I1
bag34
(g38
g39
(dp168
VUserName
p169
V@02979c85456578ba3a2bf8e73718558d9562e5aa779a9eb3c2e0b4adbadbffcd
p170
sVCity
p171
g52
sVSnsFlag
p172
I1
sVDisplayName
p173
g52
sVUniFriend
p174
I0
sVMemberCount
p175
I0
sVOwnerUin
p176
I0
sVMemberList
p177
g50
sVAlias
p178
g52
sVPYQuanPin
p179
VMolly
p180
sVSignature
p181
V\u5c3d\u4eba\u4e8b\u542c\u5929\u610f\uff01
p182
sVRemarkPYInitial
p183
g52
sVContactFlag
p184
I1
sVUin
p185
I0
sVNickName
p186
VMolly
p187
sVAppAccountFlag
p188
I0
sVVerifyFlag
p189
I0
sVRemarkPYQuanPin
p190
g52
sVHeadImgUrl
p191
V/cgi-bin/mmwebwx-bin/webwxgeticon?seq=673715616&username=@02979c85456578ba3a2bf8e73718558d9562e5aa779a9eb3c2e0b4adbadbffcd&skey=@crypt_49509d7f_df94b43681afd374518130ada01304f0
p192
sVKeyWord
p193
g52
sVProvince
p194
g52
sVPYInitial
p195
VMOLLY
p196
sVRemarkName
p197
g52
sVIsOwner
p198
I0
sVSex
p199
I2
sVStarFriend
p200
I0
sVHideInputBarFlag
p201
I0
sVChatRoomId
p202
I0
sVEncryChatRoomId
p203
g52
sVAttrStatus
p204
I234083
sVStatues
p205
I0
stp206
Rp207
I1
bag34
(g38
g39
(dp208
VUserName
p209
V@425aa98f515f310ce11d9d6e65623b9ee69cb01ea264157b20b9cf088970692a
p210
sVCity
p211
g52
sVSnsFlag
p212
I1
sVDisplayName
p213
g52
sVUniFriend
p214
I0
sVMemberCount
p215
I0
sVOwnerUin
p216
I0
sVMemberList
p217
g50
sVAlias
p218
g52
sVPYQuanPin
p219
Vchuanguoliushui
p220
sVSignature
p221
V\u53ea\u4e3a\u4e00\u4eba\u7559
p222
sVRemarkPYInitial
p223
g52
sVContactFlag
p224
I1
sVUin
p225
I0
sVNickName
p226
V\u7a7f\u8fc7\u6d41\u6c34
p227
sVAppAccountFlag
p228
I0
sVVerifyFlag
p229
I0
sVRemarkPYQuanPin
p230
g52
sVHeadImgUrl
p231
V/cgi-bin/mmwebwx-bin/webwxgeticon?seq=673714836&username=@425aa98f515f310ce11d9d6e65623b9ee69cb01ea264157b20b9cf088970692a&skey=@crypt_49509d7f_df94b43681afd374518130ada01304f0
p232
sVKeyWord
p233
g52
sVProvince
p234
VKowloon City
p235
sVPYInitial
p236
VCGLS
p237
sVRemarkName
p238
g52
sVIsOwner
p239
I0
sVSex
p240
I1
sVStarFriend
p241
I0
sVHideInputBarFlag
p242
I0
sVChatRoomId
p243
I0
sVEncryChatRoomId
p244
g52
sVAttrStatus
p245
I33690405
sVStatues
p246
I0
stp247
Rp248
I1
bag34
(g38
g39
(dp249
VUserName
p250
V@84845147eeab4ee12bf6151f307eeed67a3607ac42b20f267389916b6a0f2ee7
p251
sVCity
p252
V\u6d66\u4e1c\u65b0\u533a
p253
sVSnsFlag
p254
I1
sVDisplayName
p255
g52
sVUniFriend
p256
I0
sVMemberCount
p257
I0
sVOwnerUin
p258
I0
sVMemberList
p259
g50
sVAlias
p260
g52
sVPYQuanPin
p261
Vyannispanclassemojiemoji1f485span?
p262
sVSignature
p263
V\u4f60\u82e5\u76db\u5f00\uff0c\u8774\u8776\u81ea\u6765\u2026\u2026
p264
sVRemarkPYInitial
p265
g52
sVContactFlag
p266
I1
sVUin
p267
I0
sVNickName
p268
V\u71d5\u59ae\U0001f485\U0001f3fb
p269
sVAppAccountFlag
p270
I0
sVVerifyFlag
p271
I0
sVRemarkPYQuanPin
p272
g52
sVHeadImgUrl
p273
V/cgi-bin/mmwebwx-bin/webwxgeticon?seq=673715724&username=@84845147eeab4ee12bf6151f307eeed67a3607ac42b20f267389916b6a0f2ee7&skey=@crypt_49509d7f_df94b43681afd374518130ada01304f0
p274
sVKeyWord
p275
g52
sVProvince
p276
V\u4e0a\u6d77
p277
sVPYInitial
p278
VYNSPANCLASSEMOJIEMOJI1F485SPAN?
p279
sVRemarkName
p280
g52
sVIsOwner
p281
I0
sVSex
p282
I2
sVStarFriend
p283
I0
sVHideInputBarFlag
p284
I0
sVChatRoomId
p285
I0
sVEncryChatRoomId
p286
g52
sVAttrStatus
p287
I103205
sVStatues
p288
I0
stp289
Rp290
I1
bag34
(g38
g39
(dp291
VUserName
p292
V@b261425a59b11f0de1352c3182bf5bb2f12cd1cb8e60f2bc1067b7ada5d1700a
p293
sVCity
p294
g52
sVSnsFlag
p295
I1
sVDisplayName
p296
g52
sVUniFriend
p297
I0
sVMemberCount
p298
I0
sVOwnerUin
p299
I0
sVMemberList
p300
g50
sVAlias
p301
g52
sVPYQuanPin
p302
Vmeiniang
p303
sVSignature
p304
g52
sVRemarkPYInitial
p305
g52
sVContactFlag
p306
I3
sVUin
p307
I0
sVNickName
p308
V\u5a9a\u5a18
p309
sVAppAccountFlag
p310
I0
sVVerifyFlag
p311
I0
sVRemarkPYQuanPin
p312
g52
sVHeadImgUrl
p313
V/cgi-bin/mmwebwx-bin/webwxgeticon?seq=673716400&username=@b261425a59b11f0de1352c3182bf5bb2f12cd1cb8e60f2bc1067b7ada5d1700a&skey=@crypt_49509d7f_df94b43681afd374518130ada01304f0
p314
sVKeyWord
p315
g52
sVProvince
p316
g52
sVPYInitial
p317
VMN
p318
sVRemarkName
p319
g52
sVIsOwner
p320
I0
sVSex
p321
I1
sVStarFriend
p322
I0
sVHideInputBarFlag
p323
I0
sVChatRoomId
p324
I0
sVEncryChatRoomId
p325
g52
sVAttrStatus
p326
I234081
sVStatues
p327
I0
stp328
Rp329
I1
bag34
(g38
g39
(dp330
VUserName
p331
V@eed3fa63a06630298559523f7c5d755977bba92285b5ec5a6509205180ed656e
p332
sVCity
p333
g52
sVSnsFlag
p334
I1
sVDisplayName
p335
g52
sVUniFriend
p336
I0
sVMemberCount
p337
I0
sVOwnerUin
p338
I0
sVMemberList
p339
g50
sVAlias
p340
g52
sVPYQuanPin
p341
VAkuaidiyouhuiquanbudingjigengxin
p342
sVSignature
p343
V\u963f\u8fea\u8fbe\u65af\u7ae5\u88c5  \u65ad\u7801\u7279\u4ef7
p344
sVRemarkPYInitial
p345
g52
sVContactFlag
p346
I3
sVUin
p347
I0
sVNickName
p348
VA\u5feb\u9012\u4f18\u60e0\u5238 \u4e0d\u5b9a\u671f\u66f4\u65b0
p349
sVAppAccountFlag
p350
I0
sVVerifyFlag
p351
I0
sVRemarkPYQuanPin
p352
g52
sVHeadImgUrl
p353
V/cgi-bin/mmwebwx-bin/webwxgeticon?seq=673716439&username=@eed3fa63a06630298559523f7c5d755977bba92285b5ec5a6509205180ed656e&skey=@crypt_49509d7f_df94b43681afd374518130ada01304f0
p354
sVKeyWord
p355
g52
sVProvince
p356
g52
sVPYInitial
p357
VAKDYHQBDJGX
p358
sVRemarkName
p359
g52
sVIsOwner
p360
I0
sVSex
p361
I1
sVStarFriend
p362
I0
sVHideInputBarFlag
p363
I0
sVChatRoomId
p364
I0
sVEncryChatRoomId
p365
g52
sVAttrStatus
p366
I135205
sVStatues
p367
I0
stp368
Rp369
I1
bag34
(g38
g39
(dp370
VUserName
p371
V@d612ce26cfa5c271a50bf8e016044673
p372
sVCity
p373
V\u4e1c\u57ce
p374
sVSnsFlag
p375
I17
sVDisplayName
p376
g52
sVUniFriend
p377
I0
sVMemberCount
p378
I0
sVOwnerUin
p379
I0
sVMemberList
p380
g50
sVAlias
p381
g52
sVPYQuanPin
p382
Vpengcheng
p383
sVSignature
p384
V\u672a\u6765\u4e0d\u8fce\uff0c\u5f53\u65f6\u4e0d\u6742\uff0c\u8fc7\u5f80\u4e0d\u604b
p385
sVRemarkPYInitial
p386
g52
sVContactFlag
p387
I3
sVUin
p388
I0
sVNickName
p389
V\u9e4f\u7a0b
p390
sVAppAccountFlag
p391
I0
sVVerifyFlag
p392
I0
sVRemarkPYQuanPin
p393
g52
sVHeadImgUrl
p394
V/cgi-bin/mmwebwx-bin/webwxgeticon?seq=669180196&username=@d612ce26cfa5c271a50bf8e016044673&skey=@crypt_49509d7f_df94b43681afd374518130ada01304f0
p395
sVKeyWord
p396
Vwar
p397
sVProvince
p398
V\u5317\u4eac
p399
sVPYInitial
p400
VPC
p401
sVRemarkName
p402
g52
sVIsOwner
p403
I0
sVSex
p404
I1
sVStarFriend
p405
I0
sVHideInputBarFlag
p406
I0
sVChatRoomId
p407
I0
sVEncryChatRoomId
p408
g52
sVAttrStatus
p409
I33691111
sVStatues
p410
I0
stp411
Rp412
I1
bag34
(g38
g39
(dp413
VUserName
p414
V@e3b7f46f302ba2b98a3340395b43f175b6150204c2c1716566d8f30c8d514e5b
p415
sVCity
p416
V\u90af\u90f8
p417
sVSnsFlag
p418
I1
sVDisplayName
p419
g52
sVUniFriend
p420
I0
sVMemberCount
p421
I0
sVOwnerUin
p422
I0
sVMemberList
p423
g50
sVAlias
p424
g52
sVPYQuanPin
p425
Vniming
p426
sVSignature
p427
V<span class="emoji emoji1f63a"></span> <span class="emoji emoji1f63a"></span> <span class="emoji emoji1f63a"></span> <span class="emoji emoji1f63a"></span> <span class="emoji emoji1f63a"></span>
p428
sVRemarkPYInitial
p429
g52
sVContactFlag
p430
I3
sVUin
p431
I0
sVNickName
p432
V\u533f\u540d
p433
sVAppAccountFlag
p434
I0
sVVerifyFlag
p435
I0
sVRemarkPYQuanPin
p436
g52
sVHeadImgUrl
p437
V/cgi-bin/mmwebwx-bin/webwxgeticon?seq=673718011&username=@e3b7f46f302ba2b98a3340395b43f175b6150204c2c1716566d8f30c8d514e5b&skey=@crypt_49509d7f_df94b43681afd374518130ada01304f0
p438
sVKeyWord
p439
g52
sVProvince
p440
V\u6cb3\u5317
p441
sVPYInitial
p442
VNM
p443
sVRemarkName
p444
g52
sVIsOwner
p445
I0
sVSex
p446
I1
sVStarFriend
p447
I0
sVHideInputBarFlag
p448
I0
sVChatRoomId
p449
I0
sVEncryChatRoomId
p450
g52
sVAttrStatus
p451
I33657149
sVStatues
p452
I0
stp453
Rp454
I1
bag34
(g38
g39
(dp455
VUserName
p456
V@08803857f4456677cea0f9953e7aff93
p457
sVCity
p458
V\u65e0\u9521
p459
sVSnsFlag
p460
I177
sVDisplayName
p461
g52
sVUniFriend
p462
I0
sVMemberCount
p463
I0
sVOwnerUin
p464
I0
sVMemberList
p465
g50
sVAlias
p466
g52
sVPYQuanPin
p467
VjietouebaZip
p468
sVSignature
p469
VStreet Bully\u521b\u59cb\u4eba\u3001\u72d7\u4e0d\u61c2\u521b\u59cb\u4eba\uff0c\u72d7\u884c\u4e3a\u5b66\u3001\u5fc3\u7406\u5b66\u7814\u7a76\u8005
p470
sVRemarkPYInitial
p471
g52
sVContactFlag
p472
I1
sVUin
p473
I0
sVNickName
p474
V\u8857\u982d\u60e1\u9738\u3010Zip\u3011
p475
sVAppAccountFlag
p476
I0
sVVerifyFlag
p477
I0
sVRemarkPYQuanPin
p478
g52
sVHeadImgUrl
p479
V/cgi-bin/mmwebwx-bin/webwxgeticon?seq=673713460&username=@08803857f4456677cea0f9953e7aff93&skey=@crypt_49509d7f_df94b43681afd374518130ada01304f0
p480
sVKeyWord
p481
Vtr8
p482
sVProvince
p483
V\u6c5f\u82cf
p484
sVPYInitial
p485
VJTEBZIP
p486
sVRemarkName
p487
g52
sVIsOwner
p488
I0
sVSex
p489
I1
sVStarFriend
p490
I0
sVHideInputBarFlag
p491
I0
sVChatRoomId
p492
I0
sVEncryChatRoomId
p493
g52
sVAttrStatus
p494
I2147564455
sVStatues
p495
I0
stp496
Rp497
I1
bag34
(g38
g39
(dp498
VUserName
p499
V@40162516c8ce9157994c02dc138ba06dcd31f156fbf5ac98261c886225773395
p500
sVCity
p501
V\u5305\u5934
p502
sVSnsFlag
p503
I1
sVDisplayName
p504
g52
sVUniFriend
p505
I0
sVMemberCount
p506
I0
sVOwnerUin
p507
I0
sVMemberList
p508
g50
sVAlias
p509
g52
sVPYQuanPin
p510
Vxiaoqing
p511
sVSignature
p512
g52
sVRemarkPYInitial
p513
g52
sVContactFlag
p514
I3
sVUin
p515
I0
sVNickName
p516
V\u5c0f\u9752
p517
sVAppAccountFlag
p518
I0
sVVerifyFlag
p519
I0
sVRemarkPYQuanPin
p520
g52
sVHeadImgUrl
p521
V/cgi-bin/mmwebwx-bin/webwxgeticon?seq=673718930&username=@40162516c8ce9157994c02dc138ba06dcd31f156fbf5ac98261c886225773395&skey=@crypt_49509d7f_df94b43681afd374518130ada01304f0
p522
sVKeyWord
p523
g52
sVProvince
p524
V\u5185\u8499\u53e4
p525
sVPYInitial
p526
VXQ
p527
sVRemarkName
p528
g52
sVIsOwner
p529
I0
sVSex
p530
I1
sVStarFriend
p531
I0
sVHideInputBarFlag
p532
I0
sVChatRoomId
p533
I0
sVEncryChatRoomId
p534
g52
sVAttrStatus
p535
I234109
sVStatues
p536
I0
stp537
Rp538
I1
bag34
(g38
g39
(dp539
VUserName
p540
V@fb73ac39d778561b432d635f944c8299fafb0b955fcbd197f0235de3e23108cd
p541
sVCity
p542
g52
sVSnsFlag
p543
I1
sVDisplayName
p544
g52
sVUniFriend
p545
I0
sVMemberCount
p546
I0
sVOwnerUin
p547
I0
sVMemberList
p548
g50
sVAlias
p549
g52
sVPYQuanPin
p550
Vqinghuida2019
p551
sVSignature
p552
V\u8bda\u5fc3\u6b63\u610f\uff0c\u505a\u5fc3\u5e95\u8ba4\u4e3a\u6b63\u786e\u7684\u4e8b
p553
sVRemarkPYInitial
p554
VCLAIRTINDER
p555
sVContactFlag
p556
I3
sVUin
p557
I0
sVNickName
p558
V\u8bf7\u56de\u7b542019
p559
sVAppAccountFlag
p560
I0
sVVerifyFlag
p561
I0
sVRemarkPYQuanPin
p562
VClairTinder
p563
sVHeadImgUrl
p564
V/cgi-bin/mmwebwx-bin/webwxgeticon?seq=673719286&username=@fb73ac39d778561b432d635f944c8299fafb0b955fcbd197f0235de3e23108cd&skey=@crypt_49509d7f_df94b43681afd374518130ada01304f0
p565
sVKeyWord
p566
g52
sVProvince
p567
g52
sVPYInitial
p568
VQHD2019
p569
sVRemarkName
p570
VClair Tinder
p571
sVIsOwner
p572
I0
sVSex
p573
I0
sVStarFriend
p574
I0
sVHideInputBarFlag
p575
I0
sVChatRoomId
p576
I0
sVEncryChatRoomId
p577
g52
sVAttrStatus
p578
I233509
sVStatues
p579
I0
stp580
Rp581
I1
bag34
(g38
g39
(dp582
VUserName
p583
V@70908c0b11569a359d5f8b7f4ae9935f5e1960c7367da7a3e90865f324fbb269
p584
sVCity
p585
V\u6df1\u5733
p586
sVSnsFlag
p587
I49
sVDisplayName
p588
g52
sVUniFriend
p589
I0
sVMemberCount
p590
I0
sVOwnerUin
p591
I0
sVMemberList
p592
g50
sVAlias
p593
g52
sVPYQuanPin
p594
Vfanjiamianspanclassemojiemoji1f345span
p595
sVSignature
p596
V    
p597
sVRemarkPYInitial
p598
g52
sVContactFlag
p599
I1
sVUin
p600
I0
sVNickName
p601
V\u756a\u8304\u9762\U0001f345
p602
sVAppAccountFlag
p603
I0
sVVerifyFlag
p604
I0
sVRemarkPYQuanPin
p605
g52
sVHeadImgUrl
p606
V/cgi-bin/mmwebwx-bin/webwxgeticon?seq=673719560&username=@70908c0b11569a359d5f8b7f4ae9935f5e1960c7367da7a3e90865f324fbb269&skey=@crypt_49509d7f_df94b43681afd374518130ada01304f0
p607
sVKeyWord
p608
g52
sVProvince
p609
V\u5e7f\u4e1c
p610
sVPYInitial
p611
VFJMSPANCLASSEMOJIEMOJI1F345SPAN
p612
sVRemarkName
p613
g52
sVIsOwner
p614
I0
sVSex
p615
I1
sVStarFriend
p616
I0
sVHideInputBarFlag
p617
I0
sVChatRoomId
p618
I0
sVEncryChatRoomId
p619
g52
sVAttrStatus
p620
I100539
sVStatues
p621
I0
stp622
Rp623
I1
bag34
(g38
g39
(dp624
VUserName
p625
V@450ce1fdfcaafe12d0327f21aa9ddb7c26354845a18d3a9eb804151d93d82712
p626
sVCity
p627
g52
sVSnsFlag
p628
I1
sVDisplayName
p629
g52
sVUniFriend
p630
I0
sVMemberCount
p631
I0
sVOwnerUin
p632
I0
sVMemberList
p633
g50
sVAlias
p634
g52
sVPYQuanPin
p635
VSimpler?
p636
sVSignature
p637
VHierarchy
p638
sVRemarkPYInitial
p639
g52
sVContactFlag
p640
I3
sVUin
p641
I0
sVNickName
p642
VSimpler\U0001f408
p643
sVAppAccountFlag
p644
I0
sVVerifyFlag
p645
I0
sVRemarkPYQuanPin
p646
g52
sVHeadImgUrl
p647
V/cgi-bin/mmwebwx-bin/webwxgeticon?seq=673719582&username=@450ce1fdfcaafe12d0327f21aa9ddb7c26354845a18d3a9eb804151d93d82712&skey=@crypt_49509d7f_df94b43681afd374518130ada01304f0
p648
sVKeyWord
p649
g52
sVProvince
p650
g52
sVPYInitial
p651
VSIMPLER?
p652
sVRemarkName
p653
g52
sVIsOwner
p654
I0
sVSex
p655
I2
sVStarFriend
p656
I0
sVHideInputBarFlag
p657
I0
sVChatRoomId
p658
I0
sVEncryChatRoomId
p659
g52
sVAttrStatus
p660
I234277
sVStatues
p661
I0
stp662
Rp663
I1
bag34
(g38
g39
(dp664
VUserName
p665
V@968b11c1b791f0db51fcec2107e790798335c1a3309cd3ed46ee0182a207127a
p666
sVCity
p667
V\u90af\u90f8
p668
sVSnsFlag
p669
I1
sVDisplayName
p670
g52
sVUniFriend
p671
I0
sVMemberCount
p672
I0
sVOwnerUin
p673
I0
sVMemberList
p674
g50
sVAlias
p675
g52
sVPYQuanPin
p676
Vyuyuchaojikeaispanclassemojiemoji1f495span
p677
sVSignature
p678
V\u5b87\u5b87\u4e0d\u6536\u4e8c\u624b\u5783\u573e\u3002
p679
sVRemarkPYInitial
p680
g52
sVContactFlag
p681
I3
sVUin
p682
I0
sVNickName
p683
V\u5b87\u5b87\u7092\u9e21\u53ef\u7231\U0001f495
p684
sVAppAccountFlag
p685
I0
sVVerifyFlag
p686
I0
sVRemarkPYQuanPin
p687
g52
sVHeadImgUrl
p688
V/cgi-bin/mmwebwx-bin/webwxgeticon?seq=673719601&username=@968b11c1b791f0db51fcec2107e790798335c1a3309cd3ed46ee0182a207127a&skey=@crypt_49509d7f_df94b43681afd374518130ada01304f0
p689
sVKeyWord
p690
g52
sVProvince
p691
V\u6cb3\u5317
p692
sVPYInitial
p693
VYYCJKASPANCLASSEMOJIEMOJI1F495SPAN
p694
sVRemarkName
p695
g52
sVIsOwner
p696
I0
sVSex
p697
I2
sVStarFriend
p698
I0
sVHideInputBarFlag
p699
I0
sVChatRoomId
p700
I0
sVEncryChatRoomId
p701
g52
sVAttrStatus
p702
I4645
sVStatues
p703
I0
stp704
Rp705
I1
bag34
(g38
g39
(dp706
VUserName
p707
V@0f48049624a3e9e9781aedc5eb39eb5e21deb937d0cc17026a440ab222865060
p708
sVCity
p709
VOthers
p710
sVSnsFlag
p711
I1
sVDisplayName
p712
g52
sVUniFriend
p713
I0
sVMemberCount
p714
I0
sVOwnerUin
p715
I0
sVMemberList
p716
g50
sVAlias
p717
g52
sVPYQuanPin
p718
Vabbyhuanerspanclassemojiemoji1f48bspanspanclassemojiemoji1f6baspan
p719
sVSignature
p720
V\u8ba9\u8721\u70db\u4ee3\u66ff\u6240\u6709\u706f \u8ba9\u97f3\u4e50\u4ee3\u66ff\u8bdd\u8bed\u58f0 \u6b64\u65f6\u65e0\u58f0\u80dc\u6709\u58f0
p721
sVRemarkPYInitial
p722
g52
sVContactFlag
p723
I1
sVUin
p724
I0
sVNickName
p725
Vabby\u6b22\u513f\U0001f48b\U0001f6ba
p726
sVAppAccountFlag
p727
I0
sVVerifyFlag
p728
I0
sVRemarkPYQuanPin
p729
g52
sVHeadImgUrl
p730
V/cgi-bin/mmwebwx-bin/webwxgeticon?seq=673719319&username=@0f48049624a3e9e9781aedc5eb39eb5e21deb937d0cc17026a440ab222865060&skey=@crypt_49509d7f_df94b43681afd374518130ada01304f0
p731
sVKeyWord
p732
g52
sVProvince
p733
VKuala Lumpur
p734
sVPYInitial
p735
VABBYHESPANCLASSEMOJIEMOJI1F48BSPANSPANCLASSEMOJIEMOJI1F6BASPAN
p736
sVRemarkName
p737
g52
sVIsOwner
p738
I0
sVSex
p739
I2
sVStarFriend
p740
I0
sVHideInputBarFlag
p741
I0
sVChatRoomId
p742
I0
sVEncryChatRoomId
p743
g52
sVAttrStatus
p744
I33656865
sVStatues
p745
I0
stp746
Rp747
I1
batp748
Rp749
I1
bsS'chatroomList'
p750
g34
(g35
g36
(lp751
g34
(citchat.storage.templates
Chatroom
p752
g39
(dp753
VUserName
p754
V@@25501ab4ca393ae38f179e595965ff9a6d12490225c84093b07307b7875d0657
p755
sVCity
p756
g52
sVDisplayName
p757
g52
sVUniFriend
p758
I0
sS'Self'
p759
g34
(g38
g39
(dp760
g41
g31
sg42
g43
sg44
g43
sg45
I0
sg46
I0
sg47
g34
(g35
g36
(lp761
tp762
Rp763
I1
bsg51
g52
sg53
g52
sg54
I200509586
sg55
I0
sg56
I0
sg57
g43
sg58
g43
sg59
g52
sg60
g52
sg61
I0
sg62
I0
sg63
I1
sg64
g43
sg65
I0
sg66
I0
sg67
I0
sg68
I0
sg69
g43
sg70
g52
sg71
I0
sg72
g73
sg74
g52
sg75
g76
sg77
I1
sg78
I0
sg79
I0
stp764
Rp765
I1
bsVMemberList
p766
g34
(g35
g36
(lp767
tp768
Rp769
I1
bsVPYQuanPin
p770
g52
sVRemarkPYInitial
p771
g52
sVSex
p772
I0
sVAppAccountFlag
p773
I0
sVVerifyFlag
p774
I0
sVProvince
p775
g52
sVKeyWord
p776
g52
sVRemarkName
p777
g52
sVPYInitial
p778
g52
sVIsOwner
p779
I0
sVChatRoomId
p780
I0
sVHideInputBarFlag
p781
I0
sVEncryChatRoomId
p782
g52
sVAttrStatus
p783
I0
sVSnsFlag
p784
I0
sVMemberCount
p785
I479
sVOwnerUin
p786
I0
sVAlias
p787
g52
sS'IsAdmin'
p788
NsVSignature
p789
g52
sVContactFlag
p790
I0
sVNickName
p791
VRedis\u6280\u672f\u4ea4\u6d41\u7fa42
p792
sVRemarkPYQuanPin
p793
g52
sVHeadImgUrl
p794
V/cgi-bin/mmwebwx-bin/webwxgetheadimg?seq=0&username=@@25501ab4ca393ae38f179e595965ff9a6d12490225c84093b07307b7875d0657&skey=@crypt_49509d7f_df94b43681afd374518130ada01304f0
p795
sVUin
p796
I0
sVStarFriend
p797
I0
sVStatues
p798
I1
stp799
Rp800
I1
bag34
(g752
g39
(dp801
VUserName
p802
V@@cc8ad33386f1864f6e9d3fb611f835578fbd9069bcf35c8dab4b391246cde7c0
p803
sVCity
p804
g52
sVDisplayName
p805
g52
sVUniFriend
p806
I0
sg759
g34
(g38
g39
(dp807
g41
g31
sg42
g43
sg44
g43
sg45
I0
sg46
I0
sg47
g34
(g35
g36
(lp808
tp809
Rp810
I1
bsg51
g52
sg53
g52
sg54
I200509586
sg55
I0
sg56
I0
sg57
g43
sg58
g43
sg59
g52
sg60
g52
sg61
I0
sg62
I0
sg63
I1
sg64
g43
sg65
I0
sg66
I0
sg67
I0
sg68
I0
sg69
g43
sg70
g52
sg71
I0
sg72
g73
sg74
g52
sg75
g76
sg77
I1
sg78
I0
sg79
I0
stp811
Rp812
I1
bsVMemberList
p813
g34
(g35
g36
(lp814
tp815
Rp816
I1
bsVPYQuanPin
p817
g52
sVRemarkPYInitial
p818
g52
sVSex
p819
I0
sVAppAccountFlag
p820
I0
sVVerifyFlag
p821
I0
sVProvince
p822
g52
sVKeyWord
p823
g52
sVRemarkName
p824
g52
sVPYInitial
p825
g52
sVIsOwner
p826
I0
sVChatRoomId
p827
I0
sVHideInputBarFlag
p828
I0
sVEncryChatRoomId
p829
g52
sVAttrStatus
p830
I0
sVSnsFlag
p831
I0
sVMemberCount
p832
I500
sVOwnerUin
p833
I0
sVAlias
p834
g52
sg788
NsVSignature
p835
g52
sVContactFlag
p836
I2
sVNickName
p837
VRedis\u6280\u672f\u4ea4\u6d41\u7fa4
p838
sVRemarkPYQuanPin
p839
g52
sVHeadImgUrl
p840
V/cgi-bin/mmwebwx-bin/webwxgetheadimg?seq=673719738&username=@@cc8ad33386f1864f6e9d3fb611f835578fbd9069bcf35c8dab4b391246cde7c0&skey=@crypt_49509d7f_df94b43681afd374518130ada01304f0
p841
sVUin
p842
I0
sVStarFriend
p843
I0
sVStatues
p844
I1
stp845
Rp846
I1
batp847
Rp848
I1
bsS'nickName'
p849
g73
sS'mpList'
p850
g34
(g35
g36
(lp851
g34
(citchat.storage.templates
MassivePlatform
p852
g39
(dp853
VUserName
p854
V@0ba7a662e2c2b965b4f486407864da02
p855
sVCity
p856
V\u6df1\u5733
p857
sVSnsFlag
p858
I0
sVDisplayName
p859
g52
sVUniFriend
p860
I0
sVMemberCount
p861
I0
sVOwnerUin
p862
I0
sVMemberList
p863
g50
sVAlias
p864
g52
sVPYQuanPin
p865
Vqiyueyingku
p866
sVSignature
p867
V\u56e0\u4e3a\u7231\u7535\u5f71\uff0c\u6240\u4ee5\u4e0d\u5bc2\u5bde\u3002
p868
sVRemarkPYInitial
p869
g52
sVContactFlag
p870
I3
sVUin
p871
I0
sVNickName
p872
V\u4e03\u6708\u5f71\u5e93
p873
sVAppAccountFlag
p874
I0
sVVerifyFlag
p875
I24
sVRemarkPYQuanPin
p876
g52
sVHeadImgUrl
p877
V/cgi-bin/mmwebwx-bin/webwxgeticon?seq=673715022&username=@0ba7a662e2c2b965b4f486407864da02&skey=@crypt_49509d7f_df94b43681afd374518130ada01304f0
p878
sVKeyWord
p879
Vgh_
p880
sVProvince
p881
V\u5e7f\u4e1c
p882
sVPYInitial
p883
VQYYK
p884
sVRemarkName
p885
g52
sVIsOwner
p886
I0
sVSex
p887
I0
sVStarFriend
p888
I0
sVHideInputBarFlag
p889
I0
sVChatRoomId
p890
I0
sVEncryChatRoomId
p891
g52
sVAttrStatus
p892
I0
sVStatues
p893
I0
stp894
Rp895
I1
bag34
(g852
g39
(dp896
VUserName
p897
V@8e3a99b88d0748142eebe359a7f32c06
p898
sVCity
p899
V\u6df1\u5733
p900
sVSnsFlag
p901
I0
sVDisplayName
p902
g52
sVUniFriend
p903
I0
sVMemberCount
p904
I0
sVOwnerUin
p905
I0
sVMemberList
p906
g50
sVAlias
p907
g52
sVPYQuanPin
p908
Vfengchaozhinenggui
p909
sVSignature
p910
V\u5173\u6ce8\u4e30\u5de2\u670d\u52a1\u53f7\uff0c\u7b2c\u4e00\u65f6\u95f4\u63a5\u6536\u60a8\u7684\u5feb\u4ef6\u7269\u6d41\u63d0\u9192\uff01\u63d0\u4f9b24\u5c0f\u65f6\u81ea\u52a9\u5bc4\u5feb\u9012\u3001\u7535\u5546\u8d2d\u7269\u3001\u6682\u5b58\u7269\u54c1\u3001\u5a92\u4f53\u4e92\u52a8\u7b49\u4e00\u7ad9\u5f0f\u751f\u6d3b\u670d\u52a1\uff0c\u8ba9\u751f\u6d3b\u66f4\u7b80\u5355\uff01
p911
sVRemarkPYInitial
p912
g52
sVContactFlag
p913
I3
sVUin
p914
I0
sVNickName
p915
V\u4e30\u5de2\u667a\u80fd\u67dc
p916
sVAppAccountFlag
p917
I0
sVVerifyFlag
p918
I24
sVRemarkPYQuanPin
p919
g52
sVHeadImgUrl
p920
V/cgi-bin/mmwebwx-bin/webwxgeticon?seq=673711737&username=@8e3a99b88d0748142eebe359a7f32c06&skey=@crypt_49509d7f_df94b43681afd374518130ada01304f0
p921
sVKeyWord
p922
Vgh_
p923
sVProvince
p924
V\u5e7f\u4e1c
p925
sVPYInitial
p926
VFCZNG
p927
sVRemarkName
p928
g52
sVIsOwner
p929
I0
sVSex
p930
I0
sVStarFriend
p931
I0
sVHideInputBarFlag
p932
I0
sVChatRoomId
p933
I0
sVEncryChatRoomId
p934
g52
sVAttrStatus
p935
I0
sVStatues
p936
I0
stp937
Rp938
I1
bag34
(g852
g39
(dp939
VUserName
p940
V@eac51352730ff7830f8b256f1bcbb6bd
p941
sVCity
p942
V\u5e7f\u5dde
p943
sVSnsFlag
p944
I0
sVDisplayName
p945
g52
sVUniFriend
p946
I0
sVMemberCount
p947
I0
sVOwnerUin
p948
I0
sVMemberList
p949
g50
sVAlias
p950
g52
sVPYQuanPin
p951
Vyikushaonv
p952
sVSignature
p953
V\u5173\u6ce8\u4e0d\u4e86\uff1f \u8bf7\u641c\u7d22\u5173\u6ce8\uff1a\u5947\u8da3\u62a5\u793e\u65b0\u53f7
p954
sVRemarkPYInitial
p955
g52
sVContactFlag
p956
I3
sVUin
p957
I0
sVNickName
p958
V\u4e00\u5e93\u5c11\u5973
p959
sVAppAccountFlag
p960
I0
sVVerifyFlag
p961
I8
sVRemarkPYQuanPin
p962
g52
sVHeadImgUrl
p963
V/cgi-bin/mmwebwx-bin/webwxgeticon?seq=673712037&username=@eac51352730ff7830f8b256f1bcbb6bd&skey=@crypt_49509d7f_df94b43681afd374518130ada01304f0
p964
sVKeyWord
p965
Vgh_
p966
sVProvince
p967
V\u5e7f\u4e1c
p968
sVPYInitial
p969
VYKSN
p970
sVRemarkName
p971
g52
sVIsOwner
p972
I0
sVSex
p973
I0
sVStarFriend
p974
I0
sVHideInputBarFlag
p975
I0
sVChatRoomId
p976
I0
sVEncryChatRoomId
p977
g52
sVAttrStatus
p978
I0
sVStatues
p979
I0
stp980
Rp981
I1
bag34
(g852
g39
(dp982
VUserName
p983
V@b6b13fd5966b282b55050e0bcfddbb48
p984
sVCity
p985
V\u9752\u6d66
p986
sVSnsFlag
p987
I0
sVDisplayName
p988
g52
sVUniFriend
p989
I0
sVMemberCount
p990
I0
sVOwnerUin
p991
I0
sVMemberList
p992
g50
sVAlias
p993
g52
sVPYQuanPin
p994
Vdebangkuaidi
p995
sVSignature
p996
V\u5173\u6ce8\u7acb\u4eab2\u52305\u5143\u4f18\u60e0\u5238\uff0c\u5b9e\u65f6\u83b7\u53d6\u8d27\u7269\u52a8\u6001
p997
sVRemarkPYInitial
p998
g52
sVContactFlag
p999
I3
sVUin
p1000
I0
sVNickName
p1001
V\u5fb7\u90a6\u5feb\u9012
p1002
sVAppAccountFlag
p1003
I0
sVVerifyFlag
p1004
I24
sVRemarkPYQuanPin
p1005
g52
sVHeadImgUrl
p1006
V/cgi-bin/mmwebwx-bin/webwxgeticon?seq=673716437&username=@b6b13fd5966b282b55050e0bcfddbb48&skey=@crypt_49509d7f_df94b43681afd374518130ada01304f0
p1007
sVKeyWord
p1008
Vgh_
p1009
sVProvince
p1010
V\u4e0a\u6d77
p1011
sVPYInitial
p1012
VDBKD
p1013
sVRemarkName
p1014
g52
sVIsOwner
p1015
I0
sVSex
p1016
I0
sVStarFriend
p1017
I0
sVHideInputBarFlag
p1018
I0
sVChatRoomId
p1019
I0
sVEncryChatRoomId
p1020
g52
sVAttrStatus
p1021
I0
sVStatues
p1022
I0
stp1023
Rp1024
I1
bag34
(g852
g39
(dp1025
VUserName
p1026
V@44de368f23f60a302291f6e4106cbd7c
p1027
sVCity
p1028
V\u6df1\u5733
p1029
sVSnsFlag
p1030
I0
sVDisplayName
p1031
g52
sVUniFriend
p1032
I0
sVMemberCount
p1033
I0
sVOwnerUin
p1034
I0
sVMemberList
p1035
g50
sVAlias
p1036
g52
sVPYQuanPin
p1037
Vshunfengsuyun
p1038
sVSignature
p1039
V\u6700\u4fbf\u6377\u7684\u987a\u4e30\u901f\u8fd0\u81ea\u52a9\u670d\u52a1\u5e73\u53f0\u3002\u4e0b\u5355\u5bc4\u4ef6\uff0c \u53ca\u65f6\u8ffd\u8e2a\u5feb\u4ef6\u72b6\u6001\uff0c\u4e3b\u52a8\u63a8\u9001\u8def\u7531\u4fe1\u606f\uff0c\u540c\u65f6\u8ba2\u5355\u7ba1\u7406\u3001\u5730\u5740\u7c3f\u7ba1\u7406\u8ba9\u60a8\u653e\u5fc3\u3001\u8212\u5fc3\u3002\u6211\u4eec\u4e00\u76f4\u5728\u52aa\u529b\uff01
p1040
sVRemarkPYInitial
p1041
g52
sVContactFlag
p1042
I3
sVUin
p1043
I0
sVNickName
p1044
V\u987a\u4e30\u901f\u8fd0
p1045
sVAppAccountFlag
p1046
I0
sVVerifyFlag
p1047
I24
sVRemarkPYQuanPin
p1048
g52
sVHeadImgUrl
p1049
V/cgi-bin/mmwebwx-bin/webwxgeticon?seq=673719418&username=@44de368f23f60a302291f6e4106cbd7c&skey=@crypt_49509d7f_df94b43681afd374518130ada01304f0
p1050
sVKeyWord
p1051
Vgh_
p1052
sVProvince
p1053
V\u5e7f\u4e1c
p1054
sVPYInitial
p1055
VSFSY
p1056
sVRemarkName
p1057
g52
sVIsOwner
p1058
I0
sVSex
p1059
I0
sVStarFriend
p1060
I0
sVHideInputBarFlag
p1061
I0
sVChatRoomId
p1062
I0
sVEncryChatRoomId
p1063
g52
sVAttrStatus
p1064
I0
sVStatues
p1065
I0
stp1066
Rp1067
I1
batp1068
Rp1069
I1
bssS'loginInfo'
p1070
(dp1071
S'SyncKey'
p1072
(dp1073
VCount
p1074
I4
sVList
p1075
(lp1076
(dp1077
VVal
p1078
I673719760
sVKey
p1079
I1
sa(dp1080
VVal
p1081
I673719856
sVKey
p1082
I2
sa(dp1083
VVal
p1084
I673719690
sVKey
p1085
I3
sa(dp1086
VVal
p1087
I1559378718
sVKey
p1088
I1000
sassS'syncUrl'
p1089
S'https://webpush.wx2.qq.com/cgi-bin/mmwebwx-bin'
p1090
sS'skey'
p1091
V@crypt_49509d7f_df94b43681afd374518130ada01304f0
p1092
sS'wxuin'
p1093
V200509586
p1094
sS'synckey'
p1095
S'1_673719760|2_673719856|3_673719690|1000_1559378718'
p1096
sS'url'
p1097
Vhttps://wx2.qq.com/cgi-bin/mmwebwx-bin
p1098
sS'pass_ticket'
p1099
VwkNYiF%2F4teVYgzSMPJssrsq6Ec5h%2FMhWEg%2FuZFnra%2FM%3D
p1100
sS'wxsid'
p1101
VgzDKpfoVMjvCjfrS
p1102
sS'User'
p1103
g34
(g38
g39
(dp1104
g41
g31
sg42
g43
sg44
g43
sg45
I0
sg47
g50
sg51
g52
sg53
g52
sg77
I1
sg55
I0
sg56
I0
sg57
g43
sg58
g43
sg59
g52
sg60
g52
sg61
I0
sg62
I0
sg63
I1
sg64
g43
sg65
I0
sg68
I0
sg66
I0
sg67
I0
sg46
I0
sg69
g43
sg70
g52
sg71
I0
sg72
g73
sg74
g52
sg75
g76
sg54
I200509586
sg78
I0
sg79
I0
stp1105
Rp1106
I1
bsS'InviteStartCount'
p1107
I40
sS'fileUrl'
p1108
S'https://file.wx2.qq.com/cgi-bin/mmwebwx-bin'
p1109
sS'BaseRequest'
p1110
(dp1111
g54
g1094
sS'Skey'
p1112
g1092
sS'DeviceID'
p1113
g1100
sS'Sid'
p1114
g1102
ssS'deviceid'
p1115
S'e356040305744812'
p1116
ss.