(dp0
S'cookies'
p1
(dp2
S'wxloadtime'
p3
S'1563845549'
p4
sS'webwx_data_ticket'
p5
S'gSdqrlhxHrEPH4UyelC0sSBu'
p6
sS'wxuin'
p7
S'200509586'
p8
sS'login_frequency'
p9
S'2'
p10
sS'MM_WX_NOTIFY_STATE'
p11
S'1'
p12
sS'MM_WX_SOUND_STATE'
p13
g12
sS'webwx_auth_ticket'
p14
S'CIsBEJCN884GGoABi8mR7uy6cxlcmXdkvZ5e4tYIH4IXdR+mvQhXhNcfxgpudv/mV+faiZGE1WmBWkpvgPviqDOQXCC4VDG1/Aw3yGKZOlMKjcYhEsTwhwMzLQIg1hf5UpgZ9yoQ6Bro8LfPhE6iHQLcrAuOllkMAqXZ2rgXYJ1IAwQ+jPWIrn7GY7g='
p15
sS'last_wxuin'
p16
S'200509586'
p17
sS'webwxuvid'
p18
S'd67c82d1011316d7673811e3409b28781876bbba4c1b52acfab654de17b1e8998401369bfd8f88a4f7be1b8079c6640d'
p19
sS'wxpluginkey'
p20
S'1563667756'
p21
sS'wxsid'
p22
S'Br6gJPk60uFFnMiX'
p23
sS'mm_lang'
p24
S'zh_CN'
p25
ssS'version'
p26
S'1.3.10'
p27
sS'storage'
p28
(dp29
S'userName'
p30
V@cc66f6c2935439a2745d49a2b80725f970c8eaecd05beace4d676013ba2a24be
p31
sS'lastInputUserName'
p32
NsS'memberList'
p33
ccopy_reg
_reconstructor
p34
(citchat.storage.templates
ContactList
p35
c__builtin__
list
p36
(lp37
g34
(citchat.storage.templates
User
p38
c__builtin__
dict
p39
(dp40
S'UserName'
p41
g31
sS'City'
p42
S''
p43
sS'DisplayName'
p44
g43
sS'UniFriend'
p45
I0
sS'OwnerUin'
p46
I0
sS'MemberList'
p47
g34
(g35
g36
(lp48
tp49
Rp50
I1
bsS'PYQuanPin'
p51
V
p52
sS'RemarkPYInitial'
p53
g52
sS'Uin'
p54
I200509586
sS'AppAccountFlag'
p55
I0
sS'VerifyFlag'
p56
I0
sS'Province'
p57
g43
sS'KeyWord'
p58
g43
sS'RemarkName'
p59
g52
sS'PYInitial'
p60
g52
sS'ChatRoomId'
p61
I0
sS'HideInputBarFlag'
p62
I0
sVHeadImgFlag
p63
I1
sS'EncryChatRoomId'
p64
g43
sS'AttrStatus'
p65
I0
sS'SnsFlag'
p66
I0
sS'MemberCount'
p67
I0
sVWebWxPluginSwitch
p68
I0
sS'Alias'
p69
g43
sS'Signature'
p70
g52
sS'ContactFlag'
p71
I0
sS'NickName'
p72
V\u673a\u5668\u4eba\u5c0f\u80d6
p73
sS'RemarkPYQuanPin'
p74
g52
sS'HeadImgUrl'
p75
V/cgi-bin/mmwebwx-bin/webwxgeticon?seq=1598728938&username=@cc66f6c2935439a2745d49a2b80725f970c8eaecd05beace4d676013ba2a24be&skey=@crypt_49509d7f_f4e63aaaf384913d85e9284287535689
p76
sS'Sex'
p77
I1
sS'StarFriend'
p78
I0
sS'Statues'
p79
I0
stp80
Rp81
I1
bag34
(g38
g39
(dp82
VUserName
p83
V@6697935d79516ebdca5c03b5e1b80bf3
p84
sVCity
p85
g52
sVSnsFlag
p86
I17
sVDisplayName
p87
g52
sVUniFriend
p88
I0
sVMemberCount
p89
I0
sVOwnerUin
p90
I0
sVMemberList
p91
g50
sVAlias
p92
g52
sVPYQuanPin
p93
VCXY
p94
sVSignature
p95
V\u7b49\u98ce\u4e5f\u7b49\u4f60\u3002
p96
sVRemarkPYInitial
p97
VXYKTX
p98
sVContactFlag
p99
I1
sVUin
p100
I0
sVNickName
p101
V-C_XY-
p102
sVAppAccountFlag
p103
I0
sVVerifyFlag
p104
I0
sVRemarkPYQuanPin
p105
Vxinyongkataoxian
p106
sVHeadImgUrl
p107
V/cgi-bin/mmwebwx-bin/webwxgeticon?seq=673710066&username=@6697935d79516ebdca5c03b5e1b80bf3&skey=@crypt_49509d7f_f4e63aaaf384913d85e9284287535689
p108
sVKeyWord
p109
Vwux
p110
sVProvince
p111
g52
sVPYInitial
p112
VCXY
p113
sVRemarkName
p114
V\u4fe1\u7528\u5361\u5957\u73b0
p115
sVIsOwner
p116
I0
sVSex
p117
I2
sVStarFriend
p118
I0
sVHideInputBarFlag
p119
I0
sVChatRoomId
p120
I0
sVEncryChatRoomId
p121
g52
sVAttrStatus
p122
I111719
sVStatues
p123
I0
stp124
Rp125
I1
bag34
(g38
g39
(dp126
VUserName
p127
V@d3a3ef429402059e004d125d8ef3f009979335adcc6507b6bd0daccdd8de7cb3
p128
sVCity
p129
g52
sVSnsFlag
p130
I1
sVDisplayName
p131
g52
sVUniFriend
p132
I0
sVMemberCount
p133
I0
sVOwnerUin
p134
I0
sVMemberList
p135
g50
sVAlias
p136
g52
sVPYQuanPin
p137
VMolly
p138
sVSignature
p139
V\u5c3d\u4eba\u4e8b\u542c\u5929\u610f\uff01
p140
sVRemarkPYInitial
p141
g52
sVContactFlag
p142
I1
sVUin
p143
I0
sVNickName
p144
VMolly
p145
sVAppAccountFlag
p146
I0
sVVerifyFlag
p147
I0
sVRemarkPYQuanPin
p148
g52
sVHeadImgUrl
p149
V/cgi-bin/mmwebwx-bin/webwxgeticon?seq=673715616&username=@d3a3ef429402059e004d125d8ef3f009979335adcc6507b6bd0daccdd8de7cb3&skey=@crypt_49509d7f_f4e63aaaf384913d85e9284287535689
p150
sVKeyWord
p151
g52
sVProvince
p152
g52
sVPYInitial
p153
VMOLLY
p154
sVRemarkName
p155
g52
sVIsOwner
p156
I0
sVSex
p157
I2
sVStarFriend
p158
I0
sVHideInputBarFlag
p159
I0
sVChatRoomId
p160
I0
sVEncryChatRoomId
p161
g52
sVAttrStatus
p162
I234083
sVStatues
p163
I0
stp164
Rp165
I1
bag34
(g38
g39
(dp166
VUserName
p167
V@b8cb4ca6c39724143edc99e86242ddd5e33b706bc31cba0ba0c04191a5a03eaf
p168
sVCity
p169
g52
sVSnsFlag
p170
I1
sVDisplayName
p171
g52
sVUniFriend
p172
I0
sVMemberCount
p173
I0
sVOwnerUin
p174
I0
sVMemberList
p175
g50
sVAlias
p176
g52
sVPYQuanPin
p177
Vchuanguoliushui
p178
sVSignature
p179
V\u53ea\u4e3a\u4e00\u4eba\u7559
p180
sVRemarkPYInitial
p181
g52
sVContactFlag
p182
I1
sVUin
p183
I0
sVNickName
p184
V\u7a7f\u8fc7\u6d41\u6c34
p185
sVAppAccountFlag
p186
I0
sVVerifyFlag
p187
I0
sVRemarkPYQuanPin
p188
g52
sVHeadImgUrl
p189
V/cgi-bin/mmwebwx-bin/webwxgeticon?seq=673714836&username=@b8cb4ca6c39724143edc99e86242ddd5e33b706bc31cba0ba0c04191a5a03eaf&skey=@crypt_49509d7f_f4e63aaaf384913d85e9284287535689
p190
sVKeyWord
p191
g52
sVProvince
p192
VKowloon City
p193
sVPYInitial
p194
VCGLS
p195
sVRemarkName
p196
g52
sVIsOwner
p197
I0
sVSex
p198
I1
sVStarFriend
p199
I0
sVHideInputBarFlag
p200
I0
sVChatRoomId
p201
I0
sVEncryChatRoomId
p202
g52
sVAttrStatus
p203
I33690405
sVStatues
p204
I0
stp205
Rp206
I1
bag34
(g38
g39
(dp207
VUserName
p208
V@933abbd64495e51706dbd10377b2bdc620a6be9f53cf5098264d56d790d9861d
p209
sVCity
p210
V\u6d66\u4e1c\u65b0\u533a
p211
sVSnsFlag
p212
I1
sVDisplayName
p213
g52
sVUniFriend
p214
I0
sVMemberCount
p215
I0
sVOwnerUin
p216
I0
sVMemberList
p217
g50
sVAlias
p218
g52
sVPYQuanPin
p219
Vyannispanclassemojiemoji1f485span?
p220
sVSignature
p221
V\u4f60\u82e5\u76db\u5f00\uff0c\u8774\u8776\u81ea\u6765\u2026\u2026
p222
sVRemarkPYInitial
p223
g52
sVContactFlag
p224
I1
sVUin
p225
I0
sVNickName
p226
V\u71d5\u59ae\U0001f485\U0001f3fb
p227
sVAppAccountFlag
p228
I0
sVVerifyFlag
p229
I0
sVRemarkPYQuanPin
p230
g52
sVHeadImgUrl
p231
V/cgi-bin/mmwebwx-bin/webwxgeticon?seq=673715724&username=@933abbd64495e51706dbd10377b2bdc620a6be9f53cf5098264d56d790d9861d&skey=@crypt_49509d7f_f4e63aaaf384913d85e9284287535689
p232
sVKeyWord
p233
g52
sVProvince
p234
V\u4e0a\u6d77
p235
sVPYInitial
p236
VYNSPANCLASSEMOJIEMOJI1F485SPAN?
p237
sVRemarkName
p238
g52
sVIsOwner
p239
I0
sVSex
p240
I2
sVStarFriend
p241
I0
sVHideInputBarFlag
p242
I0
sVChatRoomId
p243
I0
sVEncryChatRoomId
p244
g52
sVAttrStatus
p245
I103205
sVStatues
p246
I0
stp247
Rp248
I1
bag34
(g38
g39
(dp249
VUserName
p250
V@8b79ec8af9a8833d6e14e4b0349a3e508c6497f2ce4ccd35dc720bd5414e4583
p251
sVCity
p252
g52
sVSnsFlag
p253
I1
sVDisplayName
p254
g52
sVUniFriend
p255
I0
sVMemberCount
p256
I0
sVOwnerUin
p257
I0
sVMemberList
p258
g50
sVAlias
p259
g52
sVPYQuanPin
p260
VAkuaidiyouhuiquanbudingjigengxin
p261
sVSignature
p262
V\u963f\u8fea\u8fbe\u65af\u7ae5\u88c5  \u65ad\u7801\u7279\u4ef7
p263
sVRemarkPYInitial
p264
g52
sVContactFlag
p265
I3
sVUin
p266
I0
sVNickName
p267
VA\u5feb\u9012\u4f18\u60e0\u5238 \u4e0d\u5b9a\u671f\u66f4\u65b0
p268
sVAppAccountFlag
p269
I0
sVVerifyFlag
p270
I0
sVRemarkPYQuanPin
p271
g52
sVHeadImgUrl
p272
V/cgi-bin/mmwebwx-bin/webwxgeticon?seq=673716439&username=@8b79ec8af9a8833d6e14e4b0349a3e508c6497f2ce4ccd35dc720bd5414e4583&skey=@crypt_49509d7f_f4e63aaaf384913d85e9284287535689
p273
sVKeyWord
p274
g52
sVProvince
p275
g52
sVPYInitial
p276
VAKDYHQBDJGX
p277
sVRemarkName
p278
g52
sVIsOwner
p279
I0
sVSex
p280
I1
sVStarFriend
p281
I0
sVHideInputBarFlag
p282
I0
sVChatRoomId
p283
I0
sVEncryChatRoomId
p284
g52
sVAttrStatus
p285
I135205
sVStatues
p286
I0
stp287
Rp288
I1
bag34
(g38
g39
(dp289
VUserName
p290
V@5c33aa52fa23a0731b22aabd1ce417f0
p291
sVCity
p292
V\u4e1c\u57ce
p293
sVSnsFlag
p294
I17
sVDisplayName
p295
g52
sVUniFriend
p296
I0
sVMemberCount
p297
I0
sVOwnerUin
p298
I0
sVMemberList
p299
g50
sVAlias
p300
g52
sVPYQuanPin
p301
Vpengcheng
p302
sVSignature
p303
V\u672a\u6765\u4e0d\u8fce\uff0c\u5f53\u65f6\u4e0d\u6742\uff0c\u8fc7\u5f80\u4e0d\u604b
p304
sVRemarkPYInitial
p305
g52
sVContactFlag
p306
I3
sVUin
p307
I0
sVNickName
p308
V\u9e4f\u7a0b
p309
sVAppAccountFlag
p310
I0
sVVerifyFlag
p311
I0
sVRemarkPYQuanPin
p312
g52
sVHeadImgUrl
p313
V/cgi-bin/mmwebwx-bin/webwxgeticon?seq=669180196&username=@5c33aa52fa23a0731b22aabd1ce417f0&skey=@crypt_49509d7f_f4e63aaaf384913d85e9284287535689
p314
sVKeyWord
p315
Vwar
p316
sVProvince
p317
V\u5317\u4eac
p318
sVPYInitial
p319
VPC
p320
sVRemarkName
p321
g52
sVIsOwner
p322
I0
sVSex
p323
I1
sVStarFriend
p324
I0
sVHideInputBarFlag
p325
I0
sVChatRoomId
p326
I0
sVEncryChatRoomId
p327
g52
sVAttrStatus
p328
I33691111
sVStatues
p329
I0
stp330
Rp331
I1
bag34
(g38
g39
(dp332
VUserName
p333
V@d6308f2cbae7551d5da6296400a14790318178b5fdc65159757eaaa053992b69
p334
sVCity
p335
V\u90af\u90f8
p336
sVSnsFlag
p337
I1
sVDisplayName
p338
g52
sVUniFriend
p339
I0
sVMemberCount
p340
I0
sVOwnerUin
p341
I0
sVMemberList
p342
g50
sVAlias
p343
g52
sVPYQuanPin
p344
Vniming
p345
sVSignature
p346
V<span class="emoji emoji1f63a"></span> <span class="emoji emoji1f63a"></span> <span class="emoji emoji1f63a"></span> <span class="emoji emoji1f63a"></span> <span class="emoji emoji1f63a"></span>
p347
sVRemarkPYInitial
p348
g52
sVContactFlag
p349
I3
sVUin
p350
I0
sVNickName
p351
V\u533f\u540d
p352
sVAppAccountFlag
p353
I0
sVVerifyFlag
p354
I0
sVRemarkPYQuanPin
p355
g52
sVHeadImgUrl
p356
V/cgi-bin/mmwebwx-bin/webwxgeticon?seq=673718011&username=@d6308f2cbae7551d5da6296400a14790318178b5fdc65159757eaaa053992b69&skey=@crypt_49509d7f_f4e63aaaf384913d85e9284287535689
p357
sVKeyWord
p358
g52
sVProvince
p359
V\u6cb3\u5317
p360
sVPYInitial
p361
VNM
p362
sVRemarkName
p363
g52
sVIsOwner
p364
I0
sVSex
p365
I1
sVStarFriend
p366
I0
sVHideInputBarFlag
p367
I0
sVChatRoomId
p368
I0
sVEncryChatRoomId
p369
g52
sVAttrStatus
p370
I33657149
sVStatues
p371
I0
stp372
Rp373
I1
bag34
(g38
g39
(dp374
VUserName
p375
V@b623bb8fe996217467c5812b5e8d350faef3422298f91322c7ffc1ebe5515a10
p376
sVCity
p377
V\u5305\u5934
p378
sVSnsFlag
p379
I1
sVDisplayName
p380
g52
sVUniFriend
p381
I0
sVMemberCount
p382
I0
sVOwnerUin
p383
I0
sVMemberList
p384
g50
sVAlias
p385
g52
sVPYQuanPin
p386
Vxiaoqing
p387
sVSignature
p388
g52
sVRemarkPYInitial
p389
g52
sVContactFlag
p390
I3
sVUin
p391
I0
sVNickName
p392
V\u5c0f\u9752
p393
sVAppAccountFlag
p394
I0
sVVerifyFlag
p395
I0
sVRemarkPYQuanPin
p396
g52
sVHeadImgUrl
p397
V/cgi-bin/mmwebwx-bin/webwxgeticon?seq=673718930&username=@b623bb8fe996217467c5812b5e8d350faef3422298f91322c7ffc1ebe5515a10&skey=@crypt_49509d7f_f4e63aaaf384913d85e9284287535689
p398
sVKeyWord
p399
g52
sVProvince
p400
V\u5185\u8499\u53e4
p401
sVPYInitial
p402
VXQ
p403
sVRemarkName
p404
g52
sVIsOwner
p405
I0
sVSex
p406
I1
sVStarFriend
p407
I0
sVHideInputBarFlag
p408
I0
sVChatRoomId
p409
I0
sVEncryChatRoomId
p410
g52
sVAttrStatus
p411
I234109
sVStatues
p412
I0
stp413
Rp414
I1
bag34
(g38
g39
(dp415
VUserName
p416
V@2f2f2d67ea028e302448d6699c4810ce77cdedf6a72e1ff31af2dff6e0c87efd
p417
sVCity
p418
V\u53a6\u95e8
p419
sVSnsFlag
p420
I1
sVDisplayName
p421
g52
sVUniFriend
p422
I0
sVMemberCount
p423
I0
sVOwnerUin
p424
I0
sVMemberList
p425
g50
sVAlias
p426
g52
sVPYQuanPin
p427
Vfeisehuiyi
p428
sVSignature
p429
V\u505a\u4e2a\u6e29\u67d4\uff0c\u9738\u6c14\u7684\uff0c\u6dd1\u5973\U0001f643\U0001f643
p430
sVRemarkPYInitial
p431
g52
sVContactFlag
p432
I1
sVUin
p433
I0
sVNickName
p434
V\u83f2\u8272\u56de\u5fc6
p435
sVAppAccountFlag
p436
I0
sVVerifyFlag
p437
I0
sVRemarkPYQuanPin
p438
g52
sVHeadImgUrl
p439
V/cgi-bin/mmwebwx-bin/webwxgeticon?seq=673715277&username=@2f2f2d67ea028e302448d6699c4810ce77cdedf6a72e1ff31af2dff6e0c87efd&skey=@crypt_49509d7f_f4e63aaaf384913d85e9284287535689
p440
sVKeyWord
p441
g52
sVProvince
p442
V\u798f\u5efa
p443
sVPYInitial
p444
VFSHY
p445
sVRemarkName
p446
g52
sVIsOwner
p447
I0
sVSex
p448
I2
sVStarFriend
p449
I0
sVHideInputBarFlag
p450
I0
sVChatRoomId
p451
I0
sVEncryChatRoomId
p452
g52
sVAttrStatus
p453
I102589
sVStatues
p454
I0
stp455
Rp456
I1
bag34
(g38
g39
(dp457
VUserName
p458
V@ed9505f364f6ef0975efd1eb5ab818698719b7a1aa6449d9357ed77efaef6dac
p459
sVCity
p460
VOthers
p461
sVSnsFlag
p462
I1
sVDisplayName
p463
g52
sVUniFriend
p464
I0
sVMemberCount
p465
I0
sVOwnerUin
p466
I0
sVMemberList
p467
g50
sVAlias
p468
g52
sVPYQuanPin
p469
Vabbyhuanerspanclassemojiemoji1f48bspanspanclassemojiemoji1f6baspan
p470
sVSignature
p471
V\u8ba9\u8721\u70db\u4ee3\u66ff\u6240\u6709\u706f \u8ba9\u97f3\u4e50\u4ee3\u66ff\u8bdd\u8bed\u58f0 \u6b64\u65f6\u65e0\u58f0\u80dc\u6709\u58f0
p472
sVRemarkPYInitial
p473
g52
sVContactFlag
p474
I1
sVUin
p475
I0
sVNickName
p476
Vabby\u6b22\u513f\U0001f48b\U0001f6ba
p477
sVAppAccountFlag
p478
I0
sVVerifyFlag
p479
I0
sVRemarkPYQuanPin
p480
g52
sVHeadImgUrl
p481
V/cgi-bin/mmwebwx-bin/webwxgeticon?seq=673719319&username=@ed9505f364f6ef0975efd1eb5ab818698719b7a1aa6449d9357ed77efaef6dac&skey=@crypt_49509d7f_f4e63aaaf384913d85e9284287535689
p482
sVKeyWord
p483
g52
sVProvince
p484
VKuala Lumpur
p485
sVPYInitial
p486
VABBYHESPANCLASSEMOJIEMOJI1F48BSPANSPANCLASSEMOJIEMOJI1F6BASPAN
p487
sVRemarkName
p488
g52
sVIsOwner
p489
I0
sVSex
p490
I2
sVStarFriend
p491
I0
sVHideInputBarFlag
p492
I0
sVChatRoomId
p493
I0
sVEncryChatRoomId
p494
g52
sVAttrStatus
p495
I33656865
sVStatues
p496
I0
stp497
Rp498
I1
bag34
(g38
g39
(dp499
VUserName
p500
V@a621d69a15b9f3937cb689e1723fdba9f6c70364dc23ab152b64d2b1064dac75
p501
sVCity
p502
g52
sVSnsFlag
p503
I1
sVDisplayName
p504
g52
sVUniFriend
p505
I0
sVMemberCount
p506
I0
sVOwnerUin
p507
I0
sVMemberList
p508
g50
sVAlias
p509
g52
sVPYQuanPin
p510
VSimpler?
p511
sVSignature
p512
VHierarchy
p513
sVRemarkPYInitial
p514
g52
sVContactFlag
p515
I1
sVUin
p516
I0
sVNickName
p517
VSimpler\U0001f408
p518
sVAppAccountFlag
p519
I0
sVVerifyFlag
p520
I0
sVRemarkPYQuanPin
p521
g52
sVHeadImgUrl
p522
V/cgi-bin/mmwebwx-bin/webwxgeticon?seq=673719582&username=@a621d69a15b9f3937cb689e1723fdba9f6c70364dc23ab152b64d2b1064dac75&skey=@crypt_49509d7f_f4e63aaaf384913d85e9284287535689
p523
sVKeyWord
p524
g52
sVProvince
p525
g52
sVPYInitial
p526
VSIMPLER?
p527
sVRemarkName
p528
g52
sVIsOwner
p529
I0
sVSex
p530
I2
sVStarFriend
p531
I0
sVHideInputBarFlag
p532
I0
sVChatRoomId
p533
I0
sVEncryChatRoomId
p534
g52
sVAttrStatus
p535
I234277
sVStatues
p536
I0
stp537
Rp538
I1
bag34
(g38
g39
(dp539
VUserName
p540
V@d4ddcda09c7adfda9ecb022a3983a4cf902d85fa8a03a35ac3c648fa2749c78b
p541
sVCity
p542
V\u90af\u90f8
p543
sVSnsFlag
p544
I1
sVDisplayName
p545
g52
sVUniFriend
p546
I0
sVMemberCount
p547
I0
sVOwnerUin
p548
I0
sVMemberList
p549
g50
sVAlias
p550
g52
sVPYQuanPin
p551
Vningbeisenwu
p552
sVSignature
p553
V\u5b87\u5b87\u4e0d\u6536\u4e8c\u624b\u5783\u573e\u3002
p554
sVRemarkPYInitial
p555
g52
sVContactFlag
p556
I3
sVUin
p557
I0
sVNickName
p558
V\u67e0\u5317\u68ee\u5c4b\u3002
p559
sVAppAccountFlag
p560
I0
sVVerifyFlag
p561
I0
sVRemarkPYQuanPin
p562
g52
sVHeadImgUrl
p563
V/cgi-bin/mmwebwx-bin/webwxgeticon?seq=673721821&username=@d4ddcda09c7adfda9ecb022a3983a4cf902d85fa8a03a35ac3c648fa2749c78b&skey=@crypt_49509d7f_f4e63aaaf384913d85e9284287535689
p564
sVKeyWord
p565
g52
sVProvince
p566
V\u6cb3\u5317
p567
sVPYInitial
p568
VNBSW
p569
sVRemarkName
p570
g52
sVIsOwner
p571
I0
sVSex
p572
I2
sVStarFriend
p573
I0
sVHideInputBarFlag
p574
I0
sVChatRoomId
p575
I0
sVEncryChatRoomId
p576
g52
sVAttrStatus
p577
I102945
sVStatues
p578
I0
stp579
Rp580
I1
bag34
(g38
g39
(dp581
VUserName
p582
V@1b5925eb39219093925dc38a5f91b32f5e12ebfb82f77ed240653e780870c419
p583
sVCity
p584
g52
sVSnsFlag
p585
I1
sVDisplayName
p586
g52
sVUniFriend
p587
I0
sVMemberCount
p588
I0
sVOwnerUin
p589
I0
sVMemberList
p590
g50
sVAlias
p591
g52
sVPYQuanPin
p592
Vqinghuida2019
p593
sVSignature
p594
V\u8bda\u5fc3\u6b63\u610f\uff0c\u505a\u5fc3\u5e95\u8ba4\u4e3a\u6b63\u786e\u7684\u4e8b
p595
sVRemarkPYInitial
p596
VCLAIRTINDER
p597
sVContactFlag
p598
I3
sVUin
p599
I0
sVNickName
p600
V\u8bf7\u56de\u7b542019
p601
sVAppAccountFlag
p602
I0
sVVerifyFlag
p603
I0
sVRemarkPYQuanPin
p604
VClairTinder
p605
sVHeadImgUrl
p606
V/cgi-bin/mmwebwx-bin/webwxgeticon?seq=673719286&username=@1b5925eb39219093925dc38a5f91b32f5e12ebfb82f77ed240653e780870c419&skey=@crypt_49509d7f_f4e63aaaf384913d85e9284287535689
p607
sVKeyWord
p608
g52
sVProvince
p609
g52
sVPYInitial
p610
VQHD2019
p611
sVRemarkName
p612
VClair Tinder
p613
sVIsOwner
p614
I0
sVSex
p615
I0
sVStarFriend
p616
I0
sVHideInputBarFlag
p617
I0
sVChatRoomId
p618
I0
sVEncryChatRoomId
p619
g52
sVAttrStatus
p620
I233509
sVStatues
p621
I0
stp622
Rp623
I1
bag34
(g38
g39
(dp624
VUserName
p625
V@2d144054be389d7f00bde02a034ced8e17a8374e79d941ad765c795a4d4ba33f
p626
sVCity
p627
g52
sVSnsFlag
p628
I1
sVDisplayName
p629
g52
sVUniFriend
p630
I0
sVMemberCount
p631
I0
sVOwnerUin
p632
I0
sVMemberList
p633
g50
sVAlias
p634
g52
sVPYQuanPin
p635
Vbanjialvyou
p636
sVSignature
p637
g52
sVRemarkPYInitial
p638
g52
sVContactFlag
p639
I3
sVUin
p640
I0
sVNickName
p641
V\u534a\u4ef7\u65c5\u6e38
p642
sVAppAccountFlag
p643
I0
sVVerifyFlag
p644
I0
sVRemarkPYQuanPin
p645
g52
sVHeadImgUrl
p646
V/cgi-bin/mmwebwx-bin/webwxgeticon?seq=673722419&username=@2d144054be389d7f00bde02a034ced8e17a8374e79d941ad765c795a4d4ba33f&skey=@crypt_49509d7f_f4e63aaaf384913d85e9284287535689
p647
sVKeyWord
p648
g52
sVProvince
p649
g52
sVPYInitial
p650
VBJLY
p651
sVRemarkName
p652
g52
sVIsOwner
p653
I0
sVSex
p654
I0
sVStarFriend
p655
I0
sVHideInputBarFlag
p656
I0
sVChatRoomId
p657
I0
sVEncryChatRoomId
p658
g52
sVAttrStatus
p659
I135269
sVStatues
p660
I0
stp661
Rp662
I1
bag34
(g38
g39
(dp663
VUserName
p664
V@f1bec49395969fcdd69586a588aebeac
p665
sVCity
p666
V\u65e0\u9521
p667
sVSnsFlag
p668
I177
sVDisplayName
p669
g52
sVUniFriend
p670
I0
sVMemberCount
p671
I0
sVOwnerUin
p672
I0
sVMemberList
p673
g50
sVAlias
p674
g52
sVPYQuanPin
p675
VjietouebaZip
p676
sVSignature
p677
VStreet Bully\u521b\u59cb\u4eba\u3001\u72d7\u4e0d\u61c2\u521b\u59cb\u4eba
p678
sVRemarkPYInitial
p679
g52
sVContactFlag
p680
I1
sVUin
p681
I0
sVNickName
p682
V\u8857\u982d\u60e1\u9738\u3010Zip\u3011
p683
sVAppAccountFlag
p684
I0
sVVerifyFlag
p685
I0
sVRemarkPYQuanPin
p686
g52
sVHeadImgUrl
p687
V/cgi-bin/mmwebwx-bin/webwxgeticon?seq=673713460&username=@f1bec49395969fcdd69586a588aebeac&skey=@crypt_49509d7f_f4e63aaaf384913d85e9284287535689
p688
sVKeyWord
p689
Vtr8
p690
sVProvince
p691
V\u6c5f\u82cf
p692
sVPYInitial
p693
VJTEBZIP
p694
sVRemarkName
p695
g52
sVIsOwner
p696
I0
sVSex
p697
I1
sVStarFriend
p698
I0
sVHideInputBarFlag
p699
I0
sVChatRoomId
p700
I0
sVEncryChatRoomId
p701
g52
sVAttrStatus
p702
I2147564455
sVStatues
p703
I0
stp704
Rp705
I1
bag34
(g38
g39
(dp706
VUserName
p707
V@be8e595be31a1cb98f543c2b4f5a3e6bb2bd0793ba161b12e8e24ae7dc28af88
p708
sVCity
p709
V\u5e7f\u5dde
p710
sVSnsFlag
p711
I1
sVDisplayName
p712
g52
sVUniFriend
p713
I0
sVMemberCount
p714
I0
sVOwnerUin
p715
I0
sVMemberList
p716
g50
sVAlias
p717
g52
sVPYQuanPin
p718
VA0zhengshubanli0Azhaodaili
p719
sVSignature
p720
V\u8d28\u91cf\u4e0e\u8bda\u4fe1\u5e76\u5b58\uff01\u62db\u4ee3\u7406\uff01
p721
sVRemarkPYInitial
p722
g52
sVContactFlag
p723
I3
sVUin
p724
I0
sVNickName
p725
VA0\u8bc1\u4e66\u529e\u74060A(\u62db\u4ee3\u7406)
p726
sVAppAccountFlag
p727
I0
sVVerifyFlag
p728
I0
sVRemarkPYQuanPin
p729
g52
sVHeadImgUrl
p730
V/cgi-bin/mmwebwx-bin/webwxgeticon?seq=673722645&username=@be8e595be31a1cb98f543c2b4f5a3e6bb2bd0793ba161b12e8e24ae7dc28af88&skey=@crypt_49509d7f_f4e63aaaf384913d85e9284287535689
p731
sVKeyWord
p732
g52
sVProvince
p733
V\u5e7f\u4e1c
p734
sVPYInitial
p735
VA0ZSBL0AZDL
p736
sVRemarkName
p737
g52
sVIsOwner
p738
I0
sVSex
p739
I1
sVStarFriend
p740
I0
sVHideInputBarFlag
p741
I0
sVChatRoomId
p742
I0
sVEncryChatRoomId
p743
g52
sVAttrStatus
p744
I4965
sVStatues
p745
I0
stp746
Rp747
I1
bag34
(g38
g39
(dp748
VUserName
p749
V@2221f3e98787b357c806033cc3ead70c63eb7928c7fe1056dad82ac7838a8995
p750
sVCity
p751
g52
sVSnsFlag
p752
I1
sVDisplayName
p753
g52
sVUniFriend
p754
I0
sVMemberCount
p755
I0
sVOwnerUin
p756
I0
sVMemberList
p757
g50
sVAlias
p758
g52
sVPYQuanPin
p759
Vspanclassemojiemoji1f451spanHoiYispanclassemojiemoji1f451span
p760
sVSignature
p761
V\u8d8a\u52aa\u529b \u8d8a\u5e78\u904b <span class="emoji emoji2728"></span>
p762
sVRemarkPYInitial
p763
g52
sVContactFlag
p764
I3
sVUin
p765
I0
sVNickName
p766
V\U0001f451HoiYi\U0001f451
p767
sVAppAccountFlag
p768
I0
sVVerifyFlag
p769
I0
sVRemarkPYQuanPin
p770
g52
sVHeadImgUrl
p771
V/cgi-bin/mmwebwx-bin/webwxgeticon?seq=673722685&username=@2221f3e98787b357c806033cc3ead70c63eb7928c7fe1056dad82ac7838a8995&skey=@crypt_49509d7f_f4e63aaaf384913d85e9284287535689
p772
sVKeyWord
p773
g52
sVProvince
p774
g52
sVPYInitial
p775
VSPANCLASSEMOJIEMOJI1F451SPANHOIYISPANCLASSEMOJIEMOJI1F451SPAN
p776
sVRemarkName
p777
g52
sVIsOwner
p778
I0
sVSex
p779
I0
sVStarFriend
p780
I0
sVHideInputBarFlag
p781
I0
sVChatRoomId
p782
I0
sVEncryChatRoomId
p783
g52
sVAttrStatus
p784
I103205
sVStatues
p785
I0
stp786
Rp787
I1
bag34
(g38
g39
(dp788
VUserName
p789
V@dea5f50c1b34902369ed7e0cab6fe344ccb1070cfcb728cb5cbb95d1ab22092a
p790
sVCity
p791
g52
sVSnsFlag
p792
I0
sVDisplayName
p793
g52
sVUniFriend
p794
I0
sVMemberCount
p795
I0
sVOwnerUin
p796
I0
sVMemberList
p797
g50
sVAlias
p798
g52
sVPYQuanPin
p799
Vruhigruhig
p800
sVSignature
p801
g52
sVRemarkPYInitial
p802
g52
sVContactFlag
p803
I3
sVUin
p804
I0
sVNickName
p805
Vruhigruhig
p806
sVAppAccountFlag
p807
I0
sVVerifyFlag
p808
I0
sVRemarkPYQuanPin
p809
g52
sVHeadImgUrl
p810
V/cgi-bin/mmwebwx-bin/webwxgeticon?seq=673722781&username=@dea5f50c1b34902369ed7e0cab6fe344ccb1070cfcb728cb5cbb95d1ab22092a&skey=@crypt_49509d7f_f4e63aaaf384913d85e9284287535689
p811
sVKeyWord
p812
g52
sVProvince
p813
g52
sVPYInitial
p814
VRUHIGRUHIG
p815
sVRemarkName
p816
g52
sVIsOwner
p817
I0
sVSex
p818
I0
sVStarFriend
p819
I0
sVHideInputBarFlag
p820
I0
sVChatRoomId
p821
I0
sVEncryChatRoomId
p822
g52
sVAttrStatus
p823
I234277
sVStatues
p824
I0
stp825
Rp826
I1
bag34
(g38
g39
(dp827
VUserName
p828
V@8d1e4a2226ea0d5411c1d9c175acd5d9b7b3e81383222152ea34ea3f2d150fa0
p829
sVCity
p830
V\u671d\u9633
p831
sVSnsFlag
p832
I1
sVDisplayName
p833
g52
sVUniFriend
p834
I0
sVMemberCount
p835
I0
sVOwnerUin
p836
I0
sVMemberList
p837
g50
sVAlias
p838
g52
sVPYQuanPin
p839
Vxiaomaoshugadian
p840
sVSignature
p841
V\u5907\u6ce8\u6765\u610f+\u54ea\u91cc\u770b\u5230\u5fae\u4fe1\u53f7\uff0c\u4e0d\u5907\u6ce8\u4e0d\u901a\u8fc7
p842
sVRemarkPYInitial
p843
g52
sVContactFlag
p844
I3
sVUin
p845
I0
sVNickName
p846
V\u5c0f\u732b\u4e66\u5496\u5e97
p847
sVAppAccountFlag
p848
I0
sVVerifyFlag
p849
I0
sVRemarkPYQuanPin
p850
g52
sVHeadImgUrl
p851
V/cgi-bin/mmwebwx-bin/webwxgeticon?seq=673723018&username=@8d1e4a2226ea0d5411c1d9c175acd5d9b7b3e81383222152ea34ea3f2d150fa0&skey=@crypt_49509d7f_f4e63aaaf384913d85e9284287535689
p852
sVKeyWord
p853
g52
sVProvince
p854
V\u5317\u4eac
p855
sVPYInitial
p856
VXMSGD
p857
sVRemarkName
p858
g52
sVIsOwner
p859
I0
sVSex
p860
I2
sVStarFriend
p861
I0
sVHideInputBarFlag
p862
I0
sVChatRoomId
p863
I0
sVEncryChatRoomId
p864
g52
sVAttrStatus
p865
I135717
sVStatues
p866
I0
stp867
Rp868
I1
batp869
Rp870
I1
bsS'chatroomList'
p871
g34
(g35
g36
(lp872
g34
(citchat.storage.templates
Chatroom
p873
g39
(dp874
VUserName
p875
V@@8215c73160610c0c7f73ad6550b0ef69aed1aa11148ef81d6e3687e66f38107e
p876
sVCity
p877
g52
sVDisplayName
p878
g52
sVUniFriend
p879
I0
sS'Self'
p880
g34
(g38
g39
(dp881
g41
g31
sg42
g43
sg44
g43
sg45
I0
sg46
I0
sg47
g34
(g35
g36
(lp882
tp883
Rp884
I1
bsg51
g52
sg53
g52
sg54
I200509586
sg55
I0
sg56
I0
sg57
g43
sg58
g43
sg59
g52
sg60
g52
sg61
I0
sg62
I0
sg63
I1
sg64
g43
sg65
I0
sg66
I0
sg67
I0
sg68
I0
sg69
g43
sg70
g52
sg71
I0
sg72
g73
sg74
g52
sg75
g76
sg77
I1
sg78
I0
sg79
I0
stp885
Rp886
I1
bsVMemberList
p887
g34
(g35
g36
(lp888
tp889
Rp890
I1
bsVPYQuanPin
p891
g52
sVRemarkPYInitial
p892
g52
sVSex
p893
I0
sVAppAccountFlag
p894
I0
sVVerifyFlag
p895
I0
sVProvince
p896
g52
sVKeyWord
p897
g52
sVRemarkName
p898
g52
sVPYInitial
p899
g52
sVIsOwner
p900
I0
sVChatRoomId
p901
I0
sVHideInputBarFlag
p902
I0
sVEncryChatRoomId
p903
g52
sVAttrStatus
p904
I0
sVSnsFlag
p905
I0
sVMemberCount
p906
I488
sVOwnerUin
p907
I0
sVAlias
p908
g52
sS'IsAdmin'
p909
NsVSignature
p910
g52
sVContactFlag
p911
I0
sVNickName
p912
VRedis\u6280\u672f\u4ea4\u6d41\u7fa42
p913
sVRemarkPYQuanPin
p914
g52
sVHeadImgUrl
p915
V/cgi-bin/mmwebwx-bin/webwxgetheadimg?seq=0&username=@@8215c73160610c0c7f73ad6550b0ef69aed1aa11148ef81d6e3687e66f38107e&skey=@crypt_49509d7f_f4e63aaaf384913d85e9284287535689
p916
sVUin
p917
I0
sVStarFriend
p918
I0
sVStatues
p919
I1
stp920
Rp921
I1
batp922
Rp923
I1
bsS'nickName'
p924
g73
sS'mpList'
p925
g34
(g35
g36
(lp926
g34
(citchat.storage.templates
MassivePlatform
p927
g39
(dp928
VUserName
p929
V@019133c0e5a7641c53ed062bf05db242
p930
sVCity
p931
V\u6df1\u5733
p932
sVSnsFlag
p933
I0
sVDisplayName
p934
g52
sVUniFriend
p935
I0
sVMemberCount
p936
I0
sVOwnerUin
p937
I0
sVMemberList
p938
g50
sVAlias
p939
g52
sVPYQuanPin
p940
Vfengchaozhinenggui
p941
sVSignature
p942
V\u5173\u6ce8\u4e30\u5de2\u670d\u52a1\u53f7\uff0c\u7b2c\u4e00\u65f6\u95f4\u63a5\u6536\u60a8\u7684\u5feb\u4ef6\u7269\u6d41\u63d0\u9192\uff01\u63d0\u4f9b24\u5c0f\u65f6\u81ea\u52a9\u5bc4\u5feb\u9012\u3001\u7535\u5546\u8d2d\u7269\u3001\u6682\u5b58\u7269\u54c1\u3001\u5a92\u4f53\u4e92\u52a8\u7b49\u4e00\u7ad9\u5f0f\u751f\u6d3b\u670d\u52a1\uff0c\u8ba9\u751f\u6d3b\u66f4\u7b80\u5355\uff01
p943
sVRemarkPYInitial
p944
g52
sVContactFlag
p945
I3
sVUin
p946
I0
sVNickName
p947
V\u4e30\u5de2\u667a\u80fd\u67dc
p948
sVAppAccountFlag
p949
I0
sVVerifyFlag
p950
I24
sVRemarkPYQuanPin
p951
g52
sVHeadImgUrl
p952
V/cgi-bin/mmwebwx-bin/webwxgeticon?seq=673711737&username=@019133c0e5a7641c53ed062bf05db242&skey=@crypt_49509d7f_f4e63aaaf384913d85e9284287535689
p953
sVKeyWord
p954
Vgh_
p955
sVProvince
p956
V\u5e7f\u4e1c
p957
sVPYInitial
p958
VFCZNG
p959
sVRemarkName
p960
g52
sVIsOwner
p961
I0
sVSex
p962
I0
sVStarFriend
p963
I0
sVHideInputBarFlag
p964
I0
sVChatRoomId
p965
I0
sVEncryChatRoomId
p966
g52
sVAttrStatus
p967
I0
sVStatues
p968
I0
stp969
Rp970
I1
bag34
(g927
g39
(dp971
VUserName
p972
V@e82c539962f6542ec676bf26940a52cb
p973
sVCity
p974
V\u5e7f\u5dde
p975
sVSnsFlag
p976
I0
sVDisplayName
p977
g52
sVUniFriend
p978
I0
sVMemberCount
p979
I0
sVOwnerUin
p980
I0
sVMemberList
p981
g50
sVAlias
p982
g52
sVPYQuanPin
p983
Vyikushaonv
p984
sVSignature
p985
V\u5173\u6ce8\u4e0d\u4e86\uff1f \u8bf7\u641c\u7d22\u5173\u6ce8\uff1a\u5947\u8da3\u62a5\u793e\u65b0\u53f7
p986
sVRemarkPYInitial
p987
g52
sVContactFlag
p988
I3
sVUin
p989
I0
sVNickName
p990
V\u4e00\u5e93\u5c11\u5973
p991
sVAppAccountFlag
p992
I0
sVVerifyFlag
p993
I8
sVRemarkPYQuanPin
p994
g52
sVHeadImgUrl
p995
V/cgi-bin/mmwebwx-bin/webwxgeticon?seq=673712037&username=@e82c539962f6542ec676bf26940a52cb&skey=@crypt_49509d7f_f4e63aaaf384913d85e9284287535689
p996
sVKeyWord
p997
Vgh_
p998
sVProvince
p999
V\u5e7f\u4e1c
p1000
sVPYInitial
p1001
VYKSN
p1002
sVRemarkName
p1003
g52
sVIsOwner
p1004
I0
sVSex
p1005
I0
sVStarFriend
p1006
I0
sVHideInputBarFlag
p1007
I0
sVChatRoomId
p1008
I0
sVEncryChatRoomId
p1009
g52
sVAttrStatus
p1010
I0
sVStatues
p1011
I0
stp1012
Rp1013
I1
bag34
(g927
g39
(dp1014
VUserName
p1015
V@8392048948431f8f02f1259f03f1b2cf
p1016
sVCity
p1017
V\u6df1\u5733
p1018
sVSnsFlag
p1019
I0
sVDisplayName
p1020
g52
sVUniFriend
p1021
I0
sVMemberCount
p1022
I0
sVOwnerUin
p1023
I0
sVMemberList
p1024
g50
sVAlias
p1025
g52
sVPYQuanPin
p1026
Vqiyueyingku
p1027
sVSignature
p1028
V\u56e0\u4e3a\u7231\u7535\u5f71\uff0c\u6240\u4ee5\u4e0d\u5bc2\u5bde\u3002
p1029
sVRemarkPYInitial
p1030
g52
sVContactFlag
p1031
I3
sVUin
p1032
I0
sVNickName
p1033
V\u4e03\u6708\u5f71\u5e93
p1034
sVAppAccountFlag
p1035
I0
sVVerifyFlag
p1036
I24
sVRemarkPYQuanPin
p1037
g52
sVHeadImgUrl
p1038
V/cgi-bin/mmwebwx-bin/webwxgeticon?seq=673715022&username=@8392048948431f8f02f1259f03f1b2cf&skey=@crypt_49509d7f_f4e63aaaf384913d85e9284287535689
p1039
sVKeyWord
p1040
Vgh_
p1041
sVProvince
p1042
V\u5e7f\u4e1c
p1043
sVPYInitial
p1044
VQYYK
p1045
sVRemarkName
p1046
g52
sVIsOwner
p1047
I0
sVSex
p1048
I0
sVStarFriend
p1049
I0
sVHideInputBarFlag
p1050
I0
sVChatRoomId
p1051
I0
sVEncryChatRoomId
p1052
g52
sVAttrStatus
p1053
I0
sVStatues
p1054
I0
stp1055
Rp1056
I1
bag34
(g927
g39
(dp1057
VUserName
p1058
V@dbe4c021f064a36194a9f95a607783ae
p1059
sVCity
p1060
V\u9752\u6d66
p1061
sVSnsFlag
p1062
I0
sVDisplayName
p1063
g52
sVUniFriend
p1064
I0
sVMemberCount
p1065
I0
sVOwnerUin
p1066
I0
sVMemberList
p1067
g50
sVAlias
p1068
g52
sVPYQuanPin
p1069
Vdebangkuaidi
p1070
sVSignature
p1071
V\u5173\u6ce8\u7acb\u4eab25\u5143\u5bc4\u4ef6\u4f18\u60e0\u5927\u793c\u5305\uff0c\u5b9e\u65f6\u83b7\u53d6\u8d27\u7269\u52a8\u6001\u3002
p1072
sVRemarkPYInitial
p1073
g52
sVContactFlag
p1074
I3
sVUin
p1075
I0
sVNickName
p1076
V\u5fb7\u90a6\u5feb\u9012
p1077
sVAppAccountFlag
p1078
I0
sVVerifyFlag
p1079
I24
sVRemarkPYQuanPin
p1080
g52
sVHeadImgUrl
p1081
V/cgi-bin/mmwebwx-bin/webwxgeticon?seq=673716437&username=@dbe4c021f064a36194a9f95a607783ae&skey=@crypt_49509d7f_f4e63aaaf384913d85e9284287535689
p1082
sVKeyWord
p1083
Vgh_
p1084
sVProvince
p1085
V\u4e0a\u6d77
p1086
sVPYInitial
p1087
VDBKD
p1088
sVRemarkName
p1089
g52
sVIsOwner
p1090
I0
sVSex
p1091
I0
sVStarFriend
p1092
I0
sVHideInputBarFlag
p1093
I0
sVChatRoomId
p1094
I0
sVEncryChatRoomId
p1095
g52
sVAttrStatus
p1096
I0
sVStatues
p1097
I0
stp1098
Rp1099
I1
bag34
(g927
g39
(dp1100
VUserName
p1101
V@f422d8395c81e548a1abce9efc98df63
p1102
sVCity
p1103
V\u6df1\u5733
p1104
sVSnsFlag
p1105
I0
sVDisplayName
p1106
g52
sVUniFriend
p1107
I0
sVMemberCount
p1108
I0
sVOwnerUin
p1109
I0
sVMemberList
p1110
g50
sVAlias
p1111
g52
sVPYQuanPin
p1112
Vshunfengsuyun
p1113
sVSignature
p1114
V\u6700\u4fbf\u6377\u7684\u987a\u4e30\u901f\u8fd0\u81ea\u52a9\u670d\u52a1\u5e73\u53f0\u3002\u4e0b\u5355\u5bc4\u4ef6\uff0c \u53ca\u65f6\u8ffd\u8e2a\u5feb\u4ef6\u72b6\u6001\uff0c\u4e3b\u52a8\u63a8\u9001\u8def\u7531\u4fe1\u606f\uff0c\u540c\u65f6\u8ba2\u5355\u7ba1\u7406\u3001\u5730\u5740\u7c3f\u7ba1\u7406\u8ba9\u60a8\u653e\u5fc3\u3001\u8212\u5fc3\u3002\u6211\u4eec\u4e00\u76f4\u5728\u52aa\u529b\uff01
p1115
sVRemarkPYInitial
p1116
g52
sVContactFlag
p1117
I3
sVUin
p1118
I0
sVNickName
p1119
V\u987a\u4e30\u901f\u8fd0
p1120
sVAppAccountFlag
p1121
I0
sVVerifyFlag
p1122
I24
sVRemarkPYQuanPin
p1123
g52
sVHeadImgUrl
p1124
V/cgi-bin/mmwebwx-bin/webwxgeticon?seq=673719418&username=@f422d8395c81e548a1abce9efc98df63&skey=@crypt_49509d7f_f4e63aaaf384913d85e9284287535689
p1125
sVKeyWord
p1126
Vgh_
p1127
sVProvince
p1128
V\u5e7f\u4e1c
p1129
sVPYInitial
p1130
VSFSY
p1131
sVRemarkName
p1132
g52
sVIsOwner
p1133
I0
sVSex
p1134
I0
sVStarFriend
p1135
I0
sVHideInputBarFlag
p1136
I0
sVChatRoomId
p1137
I0
sVEncryChatRoomId
p1138
g52
sVAttrStatus
p1139
I0
sVStatues
p1140
I0
stp1141
Rp1142
I1
bag34
(g927
g39
(dp1143
VUserName
p1144
V@722dfffd5c69b613075b2d3851aeabf5
p1145
sVCity
p1146
V\u6d4e\u5357
p1147
sVSnsFlag
p1148
I0
sVDisplayName
p1149
g52
sVUniFriend
p1150
I0
sVMemberCount
p1151
I0
sVOwnerUin
p1152
I0
sVMemberList
p1153
g50
sVAlias
p1154
g52
sVPYQuanPin
p1155
Vbaigehuidi
p1156
sVSignature
p1157
V\u767d\u9e3d\u60e0\u9012\u4e3a\u5feb\u9012\u7269\u6d41\u4e1a\u52a1\u7684\u7f51\u4e0a\u4e0b\u5355\u5e73\u53f0\u3002\u4e0e\u4e2d\u90ae\u3001\u987a\u4e30\u3001\u5fb7\u90a6\u3001\u5706\u901a\u3001\u5b85\u6025\u9001\u7b49\u4e00\u7ebf\u901f\u8fd0\u4f01\u4e1a\u5f62\u6210\u5168\u56fd\u5408\u4f5c\u9635\u8425\u3002\u7528\u6237\u53ef\u5728\u7ebf\u5bf9\u6bd4\u4e0b\u5355\uff0c\u4eab\u53d7\u5e73\u53f0\u8865\u8d34\u3002\u4e0b\u5355\u540e\u5ba2\u6237\u9759\u5f85\u5feb\u9012\u5458\u63fd\u4ef6\u3002
p1158
sVRemarkPYInitial
p1159
g52
sVContactFlag
p1160
I3
sVUin
p1161
I0
sVNickName
p1162
V\u767d\u9e3d\u60e0\u9012
p1163
sVAppAccountFlag
p1164
I0
sVVerifyFlag
p1165
I24
sVRemarkPYQuanPin
p1166
g52
sVHeadImgUrl
p1167
V/cgi-bin/mmwebwx-bin/webwxgeticon?seq=673719895&username=@722dfffd5c69b613075b2d3851aeabf5&skey=@crypt_49509d7f_f4e63aaaf384913d85e9284287535689
p1168
sVKeyWord
p1169
Vgh_
p1170
sVProvince
p1171
V\u5c71\u4e1c
p1172
sVPYInitial
p1173
VBGHD
p1174
sVRemarkName
p1175
g52
sVIsOwner
p1176
I0
sVSex
p1177
I0
sVStarFriend
p1178
I0
sVHideInputBarFlag
p1179
I0
sVChatRoomId
p1180
I0
sVEncryChatRoomId
p1181
g52
sVAttrStatus
p1182
I0
sVStatues
p1183
I0
stp1184
Rp1185
I1
batp1186
Rp1187
I1
bssS'loginInfo'
p1188
(dp1189
S'SyncKey'
p1190
(dp1191
VCount
p1192
I4
sVList
p1193
(lp1194
(dp1195
VVal
p1196
I673723017
sVKey
p1197
I1
sa(dp1198
VVal
p1199
I673723051
sVKey
p1200
I2
sa(dp1201
VVal
p1202
I673723018
sVKey
p1203
I3
sa(dp1204
VVal
p1205
I1563839236
sVKey
p1206
I1000
sassS'syncUrl'
p1207
S'https://webpush.wx2.qq.com/cgi-bin/mmwebwx-bin'
p1208
sS'skey'
p1209
V@crypt_49509d7f_f4e63aaaf384913d85e9284287535689
p1210
sS'wxuin'
p1211
V200509586
p1212
sS'synckey'
p1213
S'1_673723017|2_673723051|3_673723018|1000_1563839236'
p1214
sS'url'
p1215
Vhttps://wx2.qq.com/cgi-bin/mmwebwx-bin
p1216
sS'pass_ticket'
p1217
V6CJhbehwcEpM9n3YxOcmYwaOiTjiCU%2B2cpoRwqwB5qA%3D
p1218
sS'wxsid'
p1219
VBr6gJPk60uFFnMiX
p1220
sS'BaseRequest'
p1221
(dp1222
g54
g1212
sS'Skey'
p1223
g1210
sS'DeviceID'
p1224
g1218
sS'Sid'
p1225
g1220
ssS'User'
p1226
g34
(g38
g39
(dp1227
g41
g31
sg42
g43
sg44
g43
sg45
I0
sg47
g50
sg51
g52
sg53
g52
sg77
I1
sg55
I0
sg56
I0
sg57
g43
sg58
g43
sg59
g52
sg60
g52
sg61
I0
sg62
I0
sg63
I1
sg64
g43
sg65
I0
sg68
I0
sg66
I0
sg67
I0
sg46
I0
sg69
g43
sg70
g52
sg71
I0
sg72
g73
sg74
g52
sg75
g76
sg54
I200509586
sg78
I0
sg79
I0
stp1228
Rp1229
I1
bsS'fileUrl'
p1230
S'https://file.wx2.qq.com/cgi-bin/mmwebwx-bin'
p1231
sS'InviteStartCount'
p1232
I40
sS'deviceid'
p1233
S'e496225376583059'
p1234
ss.