(dp0
S'cookies'
p1
(dp2
S'wxloadtime'
p3
S'1563667756'
p4
sS'webwx_data_ticket'
p5
S'gSfvF6llpvS4MnB5Ei3UjlXS'
p6
sS'wxuin'
p7
S'200509586'
p8
sS'login_frequency'
p9
S'2'
p10
sS'MM_WX_NOTIFY_STATE'
p11
S'1'
p12
sS'MM_WX_SOUND_STATE'
p13
g12
sS'webwx_auth_ticket'
p14
S'CIsBEPeIp5YGGoABOnA8SoFxbm2yvSN+a0+f8dYIH4IXdR+mvQhXhNcfxgpudv/mV+faiZGE1WmBWkpvgPviqDOQXCC4VDG1/Aw3yGKZOlMKjcYhEsTwhwMzLQIg1hf5UpgZ9yoQ6Bro8LfPhE6iHQLcrAuOllkMAqXZ2rgXYJ1IAwQ+jPWIrn7GY7g='
p15
sS'last_wxuin'
p16
S'200509586'
p17
sS'webwxuvid'
p18
S'd67c82d1011316d7673811e3409b28781876bbba4c1b52acfab654de17b1e8998401369bfd8f88a4f7be1b8079c6640d'
p19
sS'wxpluginkey'
p20
S'1558427790'
p21
sS'wxsid'
p22
S'09yA0JX2vbVpjc5Q'
p23
sS'mm_lang'
p24
S'zh_CN'
p25
ssS'version'
p26
S'1.3.10'
p27
sS'storage'
p28
(dp29
S'userName'
p30
V@66c4ee4d51746fdef102767df44b0f07eac323499c1e232ebcb396cbb5f4958b
p31
sS'lastInputUserName'
p32
NsS'memberList'
p33
ccopy_reg
_reconstructor
p34
(citchat.storage.templates
ContactList
p35
c__builtin__
list
p36
(lp37
g34
(citchat.storage.templates
User
p38
c__builtin__
dict
p39
(dp40
S'UserName'
p41
g31
sS'City'
p42
S''
p43
sS'DisplayName'
p44
g43
sS'UniFriend'
p45
I0
sS'OwnerUin'
p46
I0
sS'MemberList'
p47
g34
(g35
g36
(lp48
tp49
Rp50
I1
bsS'PYQuanPin'
p51
V
p52
sS'RemarkPYInitial'
p53
g52
sS'Uin'
p54
I200509586
sS'AppAccountFlag'
p55
I0
sS'VerifyFlag'
p56
I0
sS'Province'
p57
g43
sS'KeyWord'
p58
g43
sS'RemarkName'
p59
g52
sS'PYInitial'
p60
g52
sS'ChatRoomId'
p61
I0
sS'HideInputBarFlag'
p62
I0
sVHeadImgFlag
p63
I1
sS'EncryChatRoomId'
p64
g43
sS'AttrStatus'
p65
I0
sS'SnsFlag'
p66
I0
sS'MemberCount'
p67
I0
sVWebWxPluginSwitch
p68
I0
sS'Alias'
p69
g43
sS'Signature'
p70
g52
sS'ContactFlag'
p71
I0
sS'NickName'
p72
V\u673a\u5668\u4eba\u5c0f\u80d6
p73
sS'RemarkPYQuanPin'
p74
g52
sS'HeadImgUrl'
p75
V/cgi-bin/mmwebwx-bin/webwxgeticon?seq=381289628&username=@66c4ee4d51746fdef102767df44b0f07eac323499c1e232ebcb396cbb5f4958b&skey=@crypt_49509d7f_b5f4352dece0511bfe9b1d643c254ccf
p76
sS'Sex'
p77
I1
sS'StarFriend'
p78
I0
sS'Statues'
p79
I0
stp80
Rp81
I1
bag34
(g38
g39
(dp82
VUserName
p83
V@e33a30a361ab22d1a086959b0876013fe3290be49c93e0137145fcab565fdffb
p84
sVCity
p85
g52
sVSnsFlag
p86
I0
sVDisplayName
p87
g52
sVUniFriend
p88
I0
sVMemberCount
p89
I0
sVOwnerUin
p90
I0
sVMemberList
p91
g50
sVAlias
p92
g52
sVPYQuanPin
p93
Vruhigruhig
p94
sVSignature
p95
g52
sVRemarkPYInitial
p96
g52
sVContactFlag
p97
I3
sVUin
p98
I0
sVNickName
p99
Vruhigruhig
p100
sVAppAccountFlag
p101
I0
sVVerifyFlag
p102
I0
sVRemarkPYQuanPin
p103
g52
sVHeadImgUrl
p104
V/cgi-bin/mmwebwx-bin/webwxgeticon?seq=673722781&username=@e33a30a361ab22d1a086959b0876013fe3290be49c93e0137145fcab565fdffb&skey=@crypt_49509d7f_b5f4352dece0511bfe9b1d643c254ccf
p105
sVKeyWord
p106
g52
sVProvince
p107
g52
sVPYInitial
p108
VRUHIGRUHIG
p109
sVRemarkName
p110
g52
sVIsOwner
p111
I0
sVSex
p112
I0
sVStarFriend
p113
I0
sVHideInputBarFlag
p114
I0
sVChatRoomId
p115
I0
sVEncryChatRoomId
p116
g52
sVAttrStatus
p117
I234277
sVStatues
p118
I0
stp119
Rp120
I1
bag34
(g38
g39
(dp121
VUserName
p122
V@fd2564d25253ae5b5ca4ce258d8c39e6
p123
sVCity
p124
g52
sVSnsFlag
p125
I17
sVDisplayName
p126
g52
sVUniFriend
p127
I0
sVMemberCount
p128
I0
sVOwnerUin
p129
I0
sVMemberList
p130
g50
sVAlias
p131
g52
sVPYQuanPin
p132
VCXY
p133
sVSignature
p134
V\u7b49\u98ce\u4e5f\u7b49\u4f60\u3002
p135
sVRemarkPYInitial
p136
VXYKTX
p137
sVContactFlag
p138
I1
sVUin
p139
I0
sVNickName
p140
V-C_XY-
p141
sVAppAccountFlag
p142
I0
sVVerifyFlag
p143
I0
sVRemarkPYQuanPin
p144
Vxinyongkataoxian
p145
sVHeadImgUrl
p146
V/cgi-bin/mmwebwx-bin/webwxgeticon?seq=673710066&username=@fd2564d25253ae5b5ca4ce258d8c39e6&skey=@crypt_49509d7f_b5f4352dece0511bfe9b1d643c254ccf
p147
sVKeyWord
p148
Vwux
p149
sVProvince
p150
g52
sVPYInitial
p151
VCXY
p152
sVRemarkName
p153
V\u4fe1\u7528\u5361\u5957\u73b0
p154
sVIsOwner
p155
I0
sVSex
p156
I2
sVStarFriend
p157
I0
sVHideInputBarFlag
p158
I0
sVChatRoomId
p159
I0
sVEncryChatRoomId
p160
g52
sVAttrStatus
p161
I111719
sVStatues
p162
I0
stp163
Rp164
I1
bag34
(g38
g39
(dp165
VUserName
p166
V@f12187271682f62ca7abdedd82dfbf156c35125d9ce5bb6d1ccf9fdb9181cce8
p167
sVCity
p168
g52
sVSnsFlag
p169
I1
sVDisplayName
p170
g52
sVUniFriend
p171
I0
sVMemberCount
p172
I0
sVOwnerUin
p173
I0
sVMemberList
p174
g50
sVAlias
p175
g52
sVPYQuanPin
p176
VMolly
p177
sVSignature
p178
V\u5c3d\u4eba\u4e8b\u542c\u5929\u610f\uff01
p179
sVRemarkPYInitial
p180
g52
sVContactFlag
p181
I1
sVUin
p182
I0
sVNickName
p183
VMolly
p184
sVAppAccountFlag
p185
I0
sVVerifyFlag
p186
I0
sVRemarkPYQuanPin
p187
g52
sVHeadImgUrl
p188
V/cgi-bin/mmwebwx-bin/webwxgeticon?seq=673715616&username=@f12187271682f62ca7abdedd82dfbf156c35125d9ce5bb6d1ccf9fdb9181cce8&skey=@crypt_49509d7f_b5f4352dece0511bfe9b1d643c254ccf
p189
sVKeyWord
p190
g52
sVProvince
p191
g52
sVPYInitial
p192
VMOLLY
p193
sVRemarkName
p194
g52
sVIsOwner
p195
I0
sVSex
p196
I2
sVStarFriend
p197
I0
sVHideInputBarFlag
p198
I0
sVChatRoomId
p199
I0
sVEncryChatRoomId
p200
g52
sVAttrStatus
p201
I234083
sVStatues
p202
I0
stp203
Rp204
I1
bag34
(g38
g39
(dp205
VUserName
p206
V@50788ab818b8a6e5027c0fdd6fa47899cd09a5d2a0ebed1639465a8db76ffcdc
p207
sVCity
p208
g52
sVSnsFlag
p209
I1
sVDisplayName
p210
g52
sVUniFriend
p211
I0
sVMemberCount
p212
I0
sVOwnerUin
p213
I0
sVMemberList
p214
g50
sVAlias
p215
g52
sVPYQuanPin
p216
Vchuanguoliushui
p217
sVSignature
p218
V\u53ea\u4e3a\u4e00\u4eba\u7559
p219
sVRemarkPYInitial
p220
g52
sVContactFlag
p221
I1
sVUin
p222
I0
sVNickName
p223
V\u7a7f\u8fc7\u6d41\u6c34
p224
sVAppAccountFlag
p225
I0
sVVerifyFlag
p226
I0
sVRemarkPYQuanPin
p227
g52
sVHeadImgUrl
p228
V/cgi-bin/mmwebwx-bin/webwxgeticon?seq=673714836&username=@50788ab818b8a6e5027c0fdd6fa47899cd09a5d2a0ebed1639465a8db76ffcdc&skey=@crypt_49509d7f_b5f4352dece0511bfe9b1d643c254ccf
p229
sVKeyWord
p230
g52
sVProvince
p231
VKowloon City
p232
sVPYInitial
p233
VCGLS
p234
sVRemarkName
p235
g52
sVIsOwner
p236
I0
sVSex
p237
I1
sVStarFriend
p238
I0
sVHideInputBarFlag
p239
I0
sVChatRoomId
p240
I0
sVEncryChatRoomId
p241
g52
sVAttrStatus
p242
I33690405
sVStatues
p243
I0
stp244
Rp245
I1
bag34
(g38
g39
(dp246
VUserName
p247
V@4d341b67dac01652052333409eed04a9323442cc19736a2923abf1ac1e8fa15e
p248
sVCity
p249
V\u6d66\u4e1c\u65b0\u533a
p250
sVSnsFlag
p251
I1
sVDisplayName
p252
g52
sVUniFriend
p253
I0
sVMemberCount
p254
I0
sVOwnerUin
p255
I0
sVMemberList
p256
g50
sVAlias
p257
g52
sVPYQuanPin
p258
Vyannispanclassemojiemoji1f485span?
p259
sVSignature
p260
V\u4f60\u82e5\u76db\u5f00\uff0c\u8774\u8776\u81ea\u6765\u2026\u2026
p261
sVRemarkPYInitial
p262
g52
sVContactFlag
p263
I1
sVUin
p264
I0
sVNickName
p265
V\u71d5\u59ae\U0001f485\U0001f3fb
p266
sVAppAccountFlag
p267
I0
sVVerifyFlag
p268
I0
sVRemarkPYQuanPin
p269
g52
sVHeadImgUrl
p270
V/cgi-bin/mmwebwx-bin/webwxgeticon?seq=673715724&username=@4d341b67dac01652052333409eed04a9323442cc19736a2923abf1ac1e8fa15e&skey=@crypt_49509d7f_b5f4352dece0511bfe9b1d643c254ccf
p271
sVKeyWord
p272
g52
sVProvince
p273
V\u4e0a\u6d77
p274
sVPYInitial
p275
VYNSPANCLASSEMOJIEMOJI1F485SPAN?
p276
sVRemarkName
p277
g52
sVIsOwner
p278
I0
sVSex
p279
I2
sVStarFriend
p280
I0
sVHideInputBarFlag
p281
I0
sVChatRoomId
p282
I0
sVEncryChatRoomId
p283
g52
sVAttrStatus
p284
I103205
sVStatues
p285
I0
stp286
Rp287
I1
bag34
(g38
g39
(dp288
VUserName
p289
V@044a74f46d10cb24ceedb19b2d17d443f412337d4a5a94b461d32029f65d1c9e
p290
sVCity
p291
g52
sVSnsFlag
p292
I1
sVDisplayName
p293
g52
sVUniFriend
p294
I0
sVMemberCount
p295
I0
sVOwnerUin
p296
I0
sVMemberList
p297
g50
sVAlias
p298
g52
sVPYQuanPin
p299
VAkuaidiyouhuiquanbudingjigengxin
p300
sVSignature
p301
V\u963f\u8fea\u8fbe\u65af\u7ae5\u88c5  \u65ad\u7801\u7279\u4ef7
p302
sVRemarkPYInitial
p303
g52
sVContactFlag
p304
I3
sVUin
p305
I0
sVNickName
p306
VA\u5feb\u9012\u4f18\u60e0\u5238 \u4e0d\u5b9a\u671f\u66f4\u65b0
p307
sVAppAccountFlag
p308
I0
sVVerifyFlag
p309
I0
sVRemarkPYQuanPin
p310
g52
sVHeadImgUrl
p311
V/cgi-bin/mmwebwx-bin/webwxgeticon?seq=673716439&username=@044a74f46d10cb24ceedb19b2d17d443f412337d4a5a94b461d32029f65d1c9e&skey=@crypt_49509d7f_b5f4352dece0511bfe9b1d643c254ccf
p312
sVKeyWord
p313
g52
sVProvince
p314
g52
sVPYInitial
p315
VAKDYHQBDJGX
p316
sVRemarkName
p317
g52
sVIsOwner
p318
I0
sVSex
p319
I1
sVStarFriend
p320
I0
sVHideInputBarFlag
p321
I0
sVChatRoomId
p322
I0
sVEncryChatRoomId
p323
g52
sVAttrStatus
p324
I135205
sVStatues
p325
I0
stp326
Rp327
I1
bag34
(g38
g39
(dp328
VUserName
p329
V@ead6bf33b739ca5427c94b409050836e
p330
sVCity
p331
V\u4e1c\u57ce
p332
sVSnsFlag
p333
I17
sVDisplayName
p334
g52
sVUniFriend
p335
I0
sVMemberCount
p336
I0
sVOwnerUin
p337
I0
sVMemberList
p338
g50
sVAlias
p339
g52
sVPYQuanPin
p340
Vpengcheng
p341
sVSignature
p342
V\u672a\u6765\u4e0d\u8fce\uff0c\u5f53\u65f6\u4e0d\u6742\uff0c\u8fc7\u5f80\u4e0d\u604b
p343
sVRemarkPYInitial
p344
g52
sVContactFlag
p345
I3
sVUin
p346
I0
sVNickName
p347
V\u9e4f\u7a0b
p348
sVAppAccountFlag
p349
I0
sVVerifyFlag
p350
I0
sVRemarkPYQuanPin
p351
g52
sVHeadImgUrl
p352
V/cgi-bin/mmwebwx-bin/webwxgeticon?seq=669180196&username=@ead6bf33b739ca5427c94b409050836e&skey=@crypt_49509d7f_b5f4352dece0511bfe9b1d643c254ccf
p353
sVKeyWord
p354
Vwar
p355
sVProvince
p356
V\u5317\u4eac
p357
sVPYInitial
p358
VPC
p359
sVRemarkName
p360
g52
sVIsOwner
p361
I0
sVSex
p362
I1
sVStarFriend
p363
I0
sVHideInputBarFlag
p364
I0
sVChatRoomId
p365
I0
sVEncryChatRoomId
p366
g52
sVAttrStatus
p367
I33691111
sVStatues
p368
I0
stp369
Rp370
I1
bag34
(g38
g39
(dp371
VUserName
p372
V@58791f91581e19fd9d9f6f10ade88b8875538a6efd2c58e33336a790b7fa7b50
p373
sVCity
p374
V\u90af\u90f8
p375
sVSnsFlag
p376
I1
sVDisplayName
p377
g52
sVUniFriend
p378
I0
sVMemberCount
p379
I0
sVOwnerUin
p380
I0
sVMemberList
p381
g50
sVAlias
p382
g52
sVPYQuanPin
p383
Vniming
p384
sVSignature
p385
V<span class="emoji emoji1f63a"></span> <span class="emoji emoji1f63a"></span> <span class="emoji emoji1f63a"></span> <span class="emoji emoji1f63a"></span> <span class="emoji emoji1f63a"></span>
p386
sVRemarkPYInitial
p387
g52
sVContactFlag
p388
I3
sVUin
p389
I0
sVNickName
p390
V\u533f\u540d
p391
sVAppAccountFlag
p392
I0
sVVerifyFlag
p393
I0
sVRemarkPYQuanPin
p394
g52
sVHeadImgUrl
p395
V/cgi-bin/mmwebwx-bin/webwxgeticon?seq=673718011&username=@58791f91581e19fd9d9f6f10ade88b8875538a6efd2c58e33336a790b7fa7b50&skey=@crypt_49509d7f_b5f4352dece0511bfe9b1d643c254ccf
p396
sVKeyWord
p397
g52
sVProvince
p398
V\u6cb3\u5317
p399
sVPYInitial
p400
VNM
p401
sVRemarkName
p402
g52
sVIsOwner
p403
I0
sVSex
p404
I1
sVStarFriend
p405
I0
sVHideInputBarFlag
p406
I0
sVChatRoomId
p407
I0
sVEncryChatRoomId
p408
g52
sVAttrStatus
p409
I33657149
sVStatues
p410
I0
stp411
Rp412
I1
bag34
(g38
g39
(dp413
VUserName
p414
V@3d0900e89e898dcbe5ba8b0905825fec14016f3055bde1ee4ea1b98deeead9f7
p415
sVCity
p416
V\u5305\u5934
p417
sVSnsFlag
p418
I1
sVDisplayName
p419
g52
sVUniFriend
p420
I0
sVMemberCount
p421
I0
sVOwnerUin
p422
I0
sVMemberList
p423
g50
sVAlias
p424
g52
sVPYQuanPin
p425
Vxiaoqing
p426
sVSignature
p427
g52
sVRemarkPYInitial
p428
g52
sVContactFlag
p429
I3
sVUin
p430
I0
sVNickName
p431
V\u5c0f\u9752
p432
sVAppAccountFlag
p433
I0
sVVerifyFlag
p434
I0
sVRemarkPYQuanPin
p435
g52
sVHeadImgUrl
p436
V/cgi-bin/mmwebwx-bin/webwxgeticon?seq=673718930&username=@3d0900e89e898dcbe5ba8b0905825fec14016f3055bde1ee4ea1b98deeead9f7&skey=@crypt_49509d7f_b5f4352dece0511bfe9b1d643c254ccf
p437
sVKeyWord
p438
g52
sVProvince
p439
V\u5185\u8499\u53e4
p440
sVPYInitial
p441
VXQ
p442
sVRemarkName
p443
g52
sVIsOwner
p444
I0
sVSex
p445
I1
sVStarFriend
p446
I0
sVHideInputBarFlag
p447
I0
sVChatRoomId
p448
I0
sVEncryChatRoomId
p449
g52
sVAttrStatus
p450
I234109
sVStatues
p451
I0
stp452
Rp453
I1
bag34
(g38
g39
(dp454
VUserName
p455
V@46f0645e4936b103f15d648ba2fd19089089f44e93a50f70b27050d9c63208b1
p456
sVCity
p457
V\u53a6\u95e8
p458
sVSnsFlag
p459
I1
sVDisplayName
p460
g52
sVUniFriend
p461
I0
sVMemberCount
p462
I0
sVOwnerUin
p463
I0
sVMemberList
p464
g50
sVAlias
p465
g52
sVPYQuanPin
p466
Vfeisehuiyi
p467
sVSignature
p468
V\u505a\u4e2a\u6e29\u67d4\uff0c\u9738\u6c14\u7684\uff0c\u6dd1\u5973\U0001f643\U0001f643
p469
sVRemarkPYInitial
p470
g52
sVContactFlag
p471
I1
sVUin
p472
I0
sVNickName
p473
V\u83f2\u8272\u56de\u5fc6
p474
sVAppAccountFlag
p475
I0
sVVerifyFlag
p476
I0
sVRemarkPYQuanPin
p477
g52
sVHeadImgUrl
p478
V/cgi-bin/mmwebwx-bin/webwxgeticon?seq=673715277&username=@46f0645e4936b103f15d648ba2fd19089089f44e93a50f70b27050d9c63208b1&skey=@crypt_49509d7f_b5f4352dece0511bfe9b1d643c254ccf
p479
sVKeyWord
p480
g52
sVProvince
p481
V\u798f\u5efa
p482
sVPYInitial
p483
VFSHY
p484
sVRemarkName
p485
g52
sVIsOwner
p486
I0
sVSex
p487
I2
sVStarFriend
p488
I0
sVHideInputBarFlag
p489
I0
sVChatRoomId
p490
I0
sVEncryChatRoomId
p491
g52
sVAttrStatus
p492
I102589
sVStatues
p493
I0
stp494
Rp495
I1
bag34
(g38
g39
(dp496
VUserName
p497
V@e4a68e5445f5f9188f0ad0f08c30f6d52ca3be3015e049ead916eb63e355ac18
p498
sVCity
p499
VOthers
p500
sVSnsFlag
p501
I1
sVDisplayName
p502
g52
sVUniFriend
p503
I0
sVMemberCount
p504
I0
sVOwnerUin
p505
I0
sVMemberList
p506
g50
sVAlias
p507
g52
sVPYQuanPin
p508
Vabbyhuanerspanclassemojiemoji1f48bspanspanclassemojiemoji1f6baspan
p509
sVSignature
p510
V\u8ba9\u8721\u70db\u4ee3\u66ff\u6240\u6709\u706f \u8ba9\u97f3\u4e50\u4ee3\u66ff\u8bdd\u8bed\u58f0 \u6b64\u65f6\u65e0\u58f0\u80dc\u6709\u58f0
p511
sVRemarkPYInitial
p512
g52
sVContactFlag
p513
I1
sVUin
p514
I0
sVNickName
p515
Vabby\u6b22\u513f\U0001f48b\U0001f6ba
p516
sVAppAccountFlag
p517
I0
sVVerifyFlag
p518
I0
sVRemarkPYQuanPin
p519
g52
sVHeadImgUrl
p520
V/cgi-bin/mmwebwx-bin/webwxgeticon?seq=673719319&username=@e4a68e5445f5f9188f0ad0f08c30f6d52ca3be3015e049ead916eb63e355ac18&skey=@crypt_49509d7f_b5f4352dece0511bfe9b1d643c254ccf
p521
sVKeyWord
p522
g52
sVProvince
p523
VKuala Lumpur
p524
sVPYInitial
p525
VABBYHESPANCLASSEMOJIEMOJI1F48BSPANSPANCLASSEMOJIEMOJI1F6BASPAN
p526
sVRemarkName
p527
g52
sVIsOwner
p528
I0
sVSex
p529
I2
sVStarFriend
p530
I0
sVHideInputBarFlag
p531
I0
sVChatRoomId
p532
I0
sVEncryChatRoomId
p533
g52
sVAttrStatus
p534
I33656865
sVStatues
p535
I0
stp536
Rp537
I1
bag34
(g38
g39
(dp538
VUserName
p539
V@ad48b6f04a2801b5d572568d7b7c1592ef77d556cb6377b30ed910af9445af87
p540
sVCity
p541
g52
sVSnsFlag
p542
I1
sVDisplayName
p543
g52
sVUniFriend
p544
I0
sVMemberCount
p545
I0
sVOwnerUin
p546
I0
sVMemberList
p547
g50
sVAlias
p548
g52
sVPYQuanPin
p549
VSimpler?
p550
sVSignature
p551
VHierarchy
p552
sVRemarkPYInitial
p553
g52
sVContactFlag
p554
I1
sVUin
p555
I0
sVNickName
p556
VSimpler\U0001f408
p557
sVAppAccountFlag
p558
I0
sVVerifyFlag
p559
I0
sVRemarkPYQuanPin
p560
g52
sVHeadImgUrl
p561
V/cgi-bin/mmwebwx-bin/webwxgeticon?seq=673719582&username=@ad48b6f04a2801b5d572568d7b7c1592ef77d556cb6377b30ed910af9445af87&skey=@crypt_49509d7f_b5f4352dece0511bfe9b1d643c254ccf
p562
sVKeyWord
p563
g52
sVProvince
p564
g52
sVPYInitial
p565
VSIMPLER?
p566
sVRemarkName
p567
g52
sVIsOwner
p568
I0
sVSex
p569
I2
sVStarFriend
p570
I0
sVHideInputBarFlag
p571
I0
sVChatRoomId
p572
I0
sVEncryChatRoomId
p573
g52
sVAttrStatus
p574
I234277
sVStatues
p575
I0
stp576
Rp577
I1
bag34
(g38
g39
(dp578
VUserName
p579
V@083535f945f7bfabc9ed6a706848f38cda74624c2899cd043fce42923706208f
p580
sVCity
p581
V\u90af\u90f8
p582
sVSnsFlag
p583
I1
sVDisplayName
p584
g52
sVUniFriend
p585
I0
sVMemberCount
p586
I0
sVOwnerUin
p587
I0
sVMemberList
p588
g50
sVAlias
p589
g52
sVPYQuanPin
p590
Vningbeisenwu
p591
sVSignature
p592
V\u5b87\u5b87\u4e0d\u6536\u4e8c\u624b\u5783\u573e\u3002
p593
sVRemarkPYInitial
p594
g52
sVContactFlag
p595
I3
sVUin
p596
I0
sVNickName
p597
V\u67e0\u5317\u68ee\u5c4b\u3002
p598
sVAppAccountFlag
p599
I0
sVVerifyFlag
p600
I0
sVRemarkPYQuanPin
p601
g52
sVHeadImgUrl
p602
V/cgi-bin/mmwebwx-bin/webwxgeticon?seq=673721821&username=@083535f945f7bfabc9ed6a706848f38cda74624c2899cd043fce42923706208f&skey=@crypt_49509d7f_b5f4352dece0511bfe9b1d643c254ccf
p603
sVKeyWord
p604
g52
sVProvince
p605
V\u6cb3\u5317
p606
sVPYInitial
p607
VNBSW
p608
sVRemarkName
p609
g52
sVIsOwner
p610
I0
sVSex
p611
I2
sVStarFriend
p612
I0
sVHideInputBarFlag
p613
I0
sVChatRoomId
p614
I0
sVEncryChatRoomId
p615
g52
sVAttrStatus
p616
I102945
sVStatues
p617
I0
stp618
Rp619
I1
bag34
(g38
g39
(dp620
VUserName
p621
V@33a7af76b163cfe71d3de2e82ce13c4ad79ad2df397d13bd1b4a72f3a6508479
p622
sVCity
p623
g52
sVSnsFlag
p624
I1
sVDisplayName
p625
g52
sVUniFriend
p626
I0
sVMemberCount
p627
I0
sVOwnerUin
p628
I0
sVMemberList
p629
g50
sVAlias
p630
g52
sVPYQuanPin
p631
Vqinghuida2019
p632
sVSignature
p633
V\u8bda\u5fc3\u6b63\u610f\uff0c\u505a\u5fc3\u5e95\u8ba4\u4e3a\u6b63\u786e\u7684\u4e8b
p634
sVRemarkPYInitial
p635
VCLAIRTINDER
p636
sVContactFlag
p637
I3
sVUin
p638
I0
sVNickName
p639
V\u8bf7\u56de\u7b542019
p640
sVAppAccountFlag
p641
I0
sVVerifyFlag
p642
I0
sVRemarkPYQuanPin
p643
VClairTinder
p644
sVHeadImgUrl
p645
V/cgi-bin/mmwebwx-bin/webwxgeticon?seq=673719286&username=@33a7af76b163cfe71d3de2e82ce13c4ad79ad2df397d13bd1b4a72f3a6508479&skey=@crypt_49509d7f_b5f4352dece0511bfe9b1d643c254ccf
p646
sVKeyWord
p647
g52
sVProvince
p648
g52
sVPYInitial
p649
VQHD2019
p650
sVRemarkName
p651
VClair Tinder
p652
sVIsOwner
p653
I0
sVSex
p654
I0
sVStarFriend
p655
I0
sVHideInputBarFlag
p656
I0
sVChatRoomId
p657
I0
sVEncryChatRoomId
p658
g52
sVAttrStatus
p659
I233509
sVStatues
p660
I0
stp661
Rp662
I1
bag34
(g38
g39
(dp663
VUserName
p664
V@5704c7041f336bba1fb5e96eb76a27e5f1b25d0a94efe7fd29566482dcd08283
p665
sVCity
p666
g52
sVSnsFlag
p667
I1
sVDisplayName
p668
g52
sVUniFriend
p669
I0
sVMemberCount
p670
I0
sVOwnerUin
p671
I0
sVMemberList
p672
g50
sVAlias
p673
g52
sVPYQuanPin
p674
Vbanjialvyou
p675
sVSignature
p676
g52
sVRemarkPYInitial
p677
g52
sVContactFlag
p678
I3
sVUin
p679
I0
sVNickName
p680
V\u534a\u4ef7\u65c5\u6e38
p681
sVAppAccountFlag
p682
I0
sVVerifyFlag
p683
I0
sVRemarkPYQuanPin
p684
g52
sVHeadImgUrl
p685
V/cgi-bin/mmwebwx-bin/webwxgeticon?seq=673722419&username=@5704c7041f336bba1fb5e96eb76a27e5f1b25d0a94efe7fd29566482dcd08283&skey=@crypt_49509d7f_b5f4352dece0511bfe9b1d643c254ccf
p686
sVKeyWord
p687
g52
sVProvince
p688
g52
sVPYInitial
p689
VBJLY
p690
sVRemarkName
p691
g52
sVIsOwner
p692
I0
sVSex
p693
I0
sVStarFriend
p694
I0
sVHideInputBarFlag
p695
I0
sVChatRoomId
p696
I0
sVEncryChatRoomId
p697
g52
sVAttrStatus
p698
I135269
sVStatues
p699
I0
stp700
Rp701
I1
bag34
(g38
g39
(dp702
VUserName
p703
V@7673bd2ac6853ba14e99697a88944fd2
p704
sVCity
p705
V\u65e0\u9521
p706
sVSnsFlag
p707
I177
sVDisplayName
p708
g52
sVUniFriend
p709
I0
sVMemberCount
p710
I0
sVOwnerUin
p711
I0
sVMemberList
p712
g50
sVAlias
p713
g52
sVPYQuanPin
p714
VjietouebaZip
p715
sVSignature
p716
VStreet Bully\u521b\u59cb\u4eba\u3001\u72d7\u4e0d\u61c2\u521b\u59cb\u4eba
p717
sVRemarkPYInitial
p718
g52
sVContactFlag
p719
I1
sVUin
p720
I0
sVNickName
p721
V\u8857\u982d\u60e1\u9738\u3010Zip\u3011
p722
sVAppAccountFlag
p723
I0
sVVerifyFlag
p724
I0
sVRemarkPYQuanPin
p725
g52
sVHeadImgUrl
p726
V/cgi-bin/mmwebwx-bin/webwxgeticon?seq=673713460&username=@7673bd2ac6853ba14e99697a88944fd2&skey=@crypt_49509d7f_b5f4352dece0511bfe9b1d643c254ccf
p727
sVKeyWord
p728
Vtr8
p729
sVProvince
p730
V\u6c5f\u82cf
p731
sVPYInitial
p732
VJTEBZIP
p733
sVRemarkName
p734
g52
sVIsOwner
p735
I0
sVSex
p736
I1
sVStarFriend
p737
I0
sVHideInputBarFlag
p738
I0
sVChatRoomId
p739
I0
sVEncryChatRoomId
p740
g52
sVAttrStatus
p741
I2147564455
sVStatues
p742
I0
stp743
Rp744
I1
bag34
(g38
g39
(dp745
VUserName
p746
V@cd9b2bc6860a951c29ab71c451b466e2aea61ca71572caa490afb5522a805533
p747
sVCity
p748
V\u5e7f\u5dde
p749
sVSnsFlag
p750
I1
sVDisplayName
p751
g52
sVUniFriend
p752
I0
sVMemberCount
p753
I0
sVOwnerUin
p754
I0
sVMemberList
p755
g50
sVAlias
p756
g52
sVPYQuanPin
p757
VA0zhengshubanli0Azhaodaili
p758
sVSignature
p759
V\u8d28\u91cf\u4e0e\u8bda\u4fe1\u5e76\u5b58\uff01\u62db\u4ee3\u7406\uff01
p760
sVRemarkPYInitial
p761
g52
sVContactFlag
p762
I3
sVUin
p763
I0
sVNickName
p764
VA0\u8bc1\u4e66\u529e\u74060A(\u62db\u4ee3\u7406)
p765
sVAppAccountFlag
p766
I0
sVVerifyFlag
p767
I0
sVRemarkPYQuanPin
p768
g52
sVHeadImgUrl
p769
V/cgi-bin/mmwebwx-bin/webwxgeticon?seq=673722645&username=@cd9b2bc6860a951c29ab71c451b466e2aea61ca71572caa490afb5522a805533&skey=@crypt_49509d7f_b5f4352dece0511bfe9b1d643c254ccf
p770
sVKeyWord
p771
g52
sVProvince
p772
V\u5e7f\u4e1c
p773
sVPYInitial
p774
VA0ZSBL0AZDL
p775
sVRemarkName
p776
g52
sVIsOwner
p777
I0
sVSex
p778
I1
sVStarFriend
p779
I0
sVHideInputBarFlag
p780
I0
sVChatRoomId
p781
I0
sVEncryChatRoomId
p782
g52
sVAttrStatus
p783
I4965
sVStatues
p784
I0
stp785
Rp786
I1
bag34
(g38
g39
(dp787
VUserName
p788
V@3ee70405005b5988124286a829cc9886886d64ae20550320b36cff79cd651c45
p789
sVCity
p790
g52
sVSnsFlag
p791
I1
sVDisplayName
p792
g52
sVUniFriend
p793
I0
sVMemberCount
p794
I0
sVOwnerUin
p795
I0
sVMemberList
p796
g50
sVAlias
p797
g52
sVPYQuanPin
p798
Vspanclassemojiemoji1f451spanHoiYispanclassemojiemoji1f451span
p799
sVSignature
p800
V\u8d8a\u52aa\u529b \u8d8a\u5e78\u904b <span class="emoji emoji2728"></span>
p801
sVRemarkPYInitial
p802
g52
sVContactFlag
p803
I3
sVUin
p804
I0
sVNickName
p805
V\U0001f451HoiYi\U0001f451
p806
sVAppAccountFlag
p807
I0
sVVerifyFlag
p808
I0
sVRemarkPYQuanPin
p809
g52
sVHeadImgUrl
p810
V/cgi-bin/mmwebwx-bin/webwxgeticon?seq=673722685&username=@3ee70405005b5988124286a829cc9886886d64ae20550320b36cff79cd651c45&skey=@crypt_49509d7f_b5f4352dece0511bfe9b1d643c254ccf
p811
sVKeyWord
p812
g52
sVProvince
p813
g52
sVPYInitial
p814
VSPANCLASSEMOJIEMOJI1F451SPANHOIYISPANCLASSEMOJIEMOJI1F451SPAN
p815
sVRemarkName
p816
g52
sVIsOwner
p817
I0
sVSex
p818
I0
sVStarFriend
p819
I0
sVHideInputBarFlag
p820
I0
sVChatRoomId
p821
I0
sVEncryChatRoomId
p822
g52
sVAttrStatus
p823
I103205
sVStatues
p824
I0
stp825
Rp826
I1
batp827
Rp828
I1
bsS'chatroomList'
p829
g34
(g35
g36
(lp830
g34
(citchat.storage.templates
Chatroom
p831
g39
(dp832
VUserName
p833
V@@04d42e261d70341db925798ec4260dc086c7ec48a37cec6f2de26fd64b6960a3
p834
sVCity
p835
g52
sVDisplayName
p836
g52
sVUniFriend
p837
I0
sS'Self'
p838
g34
(g38
g39
(dp839
g41
g31
sg42
g43
sg44
g43
sg45
I0
sg46
I0
sg47
g34
(g35
g36
(lp840
tp841
Rp842
I1
bsg51
g52
sg53
g52
sg54
I200509586
sg55
I0
sg56
I0
sg57
g43
sg58
g43
sg59
g52
sg60
g52
sg61
I0
sg62
I0
sg63
I1
sg64
g43
sg65
I0
sg66
I0
sg67
I0
sg68
I0
sg69
g43
sg70
g52
sg71
I0
sg72
g73
sg74
g52
sg75
g76
sg77
I1
sg78
I0
sg79
I0
stp843
Rp844
I1
bsVMemberList
p845
g34
(g35
g36
(lp846
tp847
Rp848
I1
bsVPYQuanPin
p849
g52
sVRemarkPYInitial
p850
g52
sVSex
p851
I0
sVAppAccountFlag
p852
I0
sVVerifyFlag
p853
I0
sVProvince
p854
g52
sVKeyWord
p855
g52
sVRemarkName
p856
g52
sVPYInitial
p857
g52
sVIsOwner
p858
I0
sVChatRoomId
p859
I0
sVHideInputBarFlag
p860
I0
sVEncryChatRoomId
p861
g52
sVAttrStatus
p862
I0
sVSnsFlag
p863
I0
sVMemberCount
p864
I499
sVOwnerUin
p865
I0
sVAlias
p866
g52
sS'IsAdmin'
p867
NsVSignature
p868
g52
sVContactFlag
p869
I2
sVNickName
p870
VRedis\u6280\u672f\u4ea4\u6d41\u7fa4
p871
sVRemarkPYQuanPin
p872
g52
sVHeadImgUrl
p873
V/cgi-bin/mmwebwx-bin/webwxgetheadimg?seq=673722728&username=@@04d42e261d70341db925798ec4260dc086c7ec48a37cec6f2de26fd64b6960a3&skey=@crypt_49509d7f_b5f4352dece0511bfe9b1d643c254ccf
p874
sVUin
p875
I0
sVStarFriend
p876
I0
sVStatues
p877
I1
stp878
Rp879
I1
bag34
(g831
g39
(dp880
VUserName
p881
V@@352547573232b93308062490470ee96c14e233401dbc9af9ba5c1e2d3923bdfc
p882
sVCity
p883
g52
sVDisplayName
p884
g52
sVUniFriend
p885
I0
sg838
g34
(g38
g39
(dp886
g41
g31
sg42
g43
sg44
g43
sg45
I0
sg46
I0
sg47
g34
(g35
g36
(lp887
tp888
Rp889
I1
bsg51
g52
sg53
g52
sg54
I200509586
sg55
I0
sg56
I0
sg57
g43
sg58
g43
sg59
g52
sg60
g52
sg61
I0
sg62
I0
sg63
I1
sg64
g43
sg65
I0
sg66
I0
sg67
I0
sg68
I0
sg69
g43
sg70
g52
sg71
I0
sg72
g73
sg74
g52
sg75
g76
sg77
I1
sg78
I0
sg79
I0
stp890
Rp891
I1
bsVMemberList
p892
g34
(g35
g36
(lp893
tp894
Rp895
I1
bsVPYQuanPin
p896
g52
sVRemarkPYInitial
p897
g52
sVSex
p898
I0
sVAppAccountFlag
p899
I0
sVVerifyFlag
p900
I0
sVProvince
p901
g52
sVKeyWord
p902
g52
sVRemarkName
p903
g52
sVPYInitial
p904
g52
sVIsOwner
p905
I0
sVChatRoomId
p906
I0
sVHideInputBarFlag
p907
I0
sVEncryChatRoomId
p908
g52
sVAttrStatus
p909
I0
sVSnsFlag
p910
I0
sVMemberCount
p911
I487
sVOwnerUin
p912
I0
sVAlias
p913
g52
sg867
NsVSignature
p914
g52
sVContactFlag
p915
I0
sVNickName
p916
VRedis\u6280\u672f\u4ea4\u6d41\u7fa42
p917
sVRemarkPYQuanPin
p918
g52
sVHeadImgUrl
p919
V/cgi-bin/mmwebwx-bin/webwxgetheadimg?seq=0&username=@@352547573232b93308062490470ee96c14e233401dbc9af9ba5c1e2d3923bdfc&skey=@crypt_49509d7f_b5f4352dece0511bfe9b1d643c254ccf
p920
sVUin
p921
I0
sVStarFriend
p922
I0
sVStatues
p923
I1
stp924
Rp925
I1
batp926
Rp927
I1
bsS'nickName'
p928
g73
sS'mpList'
p929
g34
(g35
g36
(lp930
g34
(citchat.storage.templates
MassivePlatform
p931
g39
(dp932
VUserName
p933
V@c9454ef4b05ed15bee53f1e7cdc47474
p934
sVCity
p935
V\u6df1\u5733
p936
sVSnsFlag
p937
I0
sVDisplayName
p938
g52
sVUniFriend
p939
I0
sVMemberCount
p940
I0
sVOwnerUin
p941
I0
sVMemberList
p942
g50
sVAlias
p943
g52
sVPYQuanPin
p944
Vfengchaozhinenggui
p945
sVSignature
p946
V\u5173\u6ce8\u4e30\u5de2\u670d\u52a1\u53f7\uff0c\u7b2c\u4e00\u65f6\u95f4\u63a5\u6536\u60a8\u7684\u5feb\u4ef6\u7269\u6d41\u63d0\u9192\uff01\u63d0\u4f9b24\u5c0f\u65f6\u81ea\u52a9\u5bc4\u5feb\u9012\u3001\u7535\u5546\u8d2d\u7269\u3001\u6682\u5b58\u7269\u54c1\u3001\u5a92\u4f53\u4e92\u52a8\u7b49\u4e00\u7ad9\u5f0f\u751f\u6d3b\u670d\u52a1\uff0c\u8ba9\u751f\u6d3b\u66f4\u7b80\u5355\uff01
p947
sVRemarkPYInitial
p948
g52
sVContactFlag
p949
I3
sVUin
p950
I0
sVNickName
p951
V\u4e30\u5de2\u667a\u80fd\u67dc
p952
sVAppAccountFlag
p953
I0
sVVerifyFlag
p954
I24
sVRemarkPYQuanPin
p955
g52
sVHeadImgUrl
p956
V/cgi-bin/mmwebwx-bin/webwxgeticon?seq=673711737&username=@c9454ef4b05ed15bee53f1e7cdc47474&skey=@crypt_49509d7f_b5f4352dece0511bfe9b1d643c254ccf
p957
sVKeyWord
p958
Vgh_
p959
sVProvince
p960
V\u5e7f\u4e1c
p961
sVPYInitial
p962
VFCZNG
p963
sVRemarkName
p964
g52
sVIsOwner
p965
I0
sVSex
p966
I0
sVStarFriend
p967
I0
sVHideInputBarFlag
p968
I0
sVChatRoomId
p969
I0
sVEncryChatRoomId
p970
g52
sVAttrStatus
p971
I0
sVStatues
p972
I0
stp973
Rp974
I1
bag34
(g931
g39
(dp975
VUserName
p976
V@ceafdc01fb04d4850c7a71084fa9e2f9
p977
sVCity
p978
V\u5e7f\u5dde
p979
sVSnsFlag
p980
I0
sVDisplayName
p981
g52
sVUniFriend
p982
I0
sVMemberCount
p983
I0
sVOwnerUin
p984
I0
sVMemberList
p985
g50
sVAlias
p986
g52
sVPYQuanPin
p987
Vyikushaonv
p988
sVSignature
p989
V\u5173\u6ce8\u4e0d\u4e86\uff1f \u8bf7\u641c\u7d22\u5173\u6ce8\uff1a\u5947\u8da3\u62a5\u793e\u65b0\u53f7
p990
sVRemarkPYInitial
p991
g52
sVContactFlag
p992
I3
sVUin
p993
I0
sVNickName
p994
V\u4e00\u5e93\u5c11\u5973
p995
sVAppAccountFlag
p996
I0
sVVerifyFlag
p997
I8
sVRemarkPYQuanPin
p998
g52
sVHeadImgUrl
p999
V/cgi-bin/mmwebwx-bin/webwxgeticon?seq=673712037&username=@ceafdc01fb04d4850c7a71084fa9e2f9&skey=@crypt_49509d7f_b5f4352dece0511bfe9b1d643c254ccf
p1000
sVKeyWord
p1001
Vgh_
p1002
sVProvince
p1003
V\u5e7f\u4e1c
p1004
sVPYInitial
p1005
VYKSN
p1006
sVRemarkName
p1007
g52
sVIsOwner
p1008
I0
sVSex
p1009
I0
sVStarFriend
p1010
I0
sVHideInputBarFlag
p1011
I0
sVChatRoomId
p1012
I0
sVEncryChatRoomId
p1013
g52
sVAttrStatus
p1014
I0
sVStatues
p1015
I0
stp1016
Rp1017
I1
bag34
(g931
g39
(dp1018
VUserName
p1019
V@093a1ed9c68af3952c1a7b4e2cd21564
p1020
sVCity
p1021
V\u6df1\u5733
p1022
sVSnsFlag
p1023
I0
sVDisplayName
p1024
g52
sVUniFriend
p1025
I0
sVMemberCount
p1026
I0
sVOwnerUin
p1027
I0
sVMemberList
p1028
g50
sVAlias
p1029
g52
sVPYQuanPin
p1030
Vqiyueyingku
p1031
sVSignature
p1032
V\u56e0\u4e3a\u7231\u7535\u5f71\uff0c\u6240\u4ee5\u4e0d\u5bc2\u5bde\u3002
p1033
sVRemarkPYInitial
p1034
g52
sVContactFlag
p1035
I3
sVUin
p1036
I0
sVNickName
p1037
V\u4e03\u6708\u5f71\u5e93
p1038
sVAppAccountFlag
p1039
I0
sVVerifyFlag
p1040
I24
sVRemarkPYQuanPin
p1041
g52
sVHeadImgUrl
p1042
V/cgi-bin/mmwebwx-bin/webwxgeticon?seq=673715022&username=@093a1ed9c68af3952c1a7b4e2cd21564&skey=@crypt_49509d7f_b5f4352dece0511bfe9b1d643c254ccf
p1043
sVKeyWord
p1044
Vgh_
p1045
sVProvince
p1046
V\u5e7f\u4e1c
p1047
sVPYInitial
p1048
VQYYK
p1049
sVRemarkName
p1050
g52
sVIsOwner
p1051
I0
sVSex
p1052
I0
sVStarFriend
p1053
I0
sVHideInputBarFlag
p1054
I0
sVChatRoomId
p1055
I0
sVEncryChatRoomId
p1056
g52
sVAttrStatus
p1057
I0
sVStatues
p1058
I0
stp1059
Rp1060
I1
bag34
(g931
g39
(dp1061
VUserName
p1062
V@00b3770c50b690dee21dd73461e2933d
p1063
sVCity
p1064
V\u9752\u6d66
p1065
sVSnsFlag
p1066
I0
sVDisplayName
p1067
g52
sVUniFriend
p1068
I0
sVMemberCount
p1069
I0
sVOwnerUin
p1070
I0
sVMemberList
p1071
g50
sVAlias
p1072
g52
sVPYQuanPin
p1073
Vdebangkuaidi
p1074
sVSignature
p1075
V\u5173\u6ce8\u7acb\u4eab25\u5143\u5bc4\u4ef6\u4f18\u60e0\u5927\u793c\u5305\uff0c\u5b9e\u65f6\u83b7\u53d6\u8d27\u7269\u52a8\u6001\u3002
p1076
sVRemarkPYInitial
p1077
g52
sVContactFlag
p1078
I3
sVUin
p1079
I0
sVNickName
p1080
V\u5fb7\u90a6\u5feb\u9012
p1081
sVAppAccountFlag
p1082
I0
sVVerifyFlag
p1083
I24
sVRemarkPYQuanPin
p1084
g52
sVHeadImgUrl
p1085
V/cgi-bin/mmwebwx-bin/webwxgeticon?seq=673716437&username=@00b3770c50b690dee21dd73461e2933d&skey=@crypt_49509d7f_b5f4352dece0511bfe9b1d643c254ccf
p1086
sVKeyWord
p1087
Vgh_
p1088
sVProvince
p1089
V\u4e0a\u6d77
p1090
sVPYInitial
p1091
VDBKD
p1092
sVRemarkName
p1093
g52
sVIsOwner
p1094
I0
sVSex
p1095
I0
sVStarFriend
p1096
I0
sVHideInputBarFlag
p1097
I0
sVChatRoomId
p1098
I0
sVEncryChatRoomId
p1099
g52
sVAttrStatus
p1100
I0
sVStatues
p1101
I0
stp1102
Rp1103
I1
bag34
(g931
g39
(dp1104
VUserName
p1105
V@fc733f7f16fa48a64d368bfa3c74ffb7
p1106
sVCity
p1107
V\u6df1\u5733
p1108
sVSnsFlag
p1109
I0
sVDisplayName
p1110
g52
sVUniFriend
p1111
I0
sVMemberCount
p1112
I0
sVOwnerUin
p1113
I0
sVMemberList
p1114
g50
sVAlias
p1115
g52
sVPYQuanPin
p1116
Vshunfengsuyun
p1117
sVSignature
p1118
V\u6700\u4fbf\u6377\u7684\u987a\u4e30\u901f\u8fd0\u81ea\u52a9\u670d\u52a1\u5e73\u53f0\u3002\u4e0b\u5355\u5bc4\u4ef6\uff0c \u53ca\u65f6\u8ffd\u8e2a\u5feb\u4ef6\u72b6\u6001\uff0c\u4e3b\u52a8\u63a8\u9001\u8def\u7531\u4fe1\u606f\uff0c\u540c\u65f6\u8ba2\u5355\u7ba1\u7406\u3001\u5730\u5740\u7c3f\u7ba1\u7406\u8ba9\u60a8\u653e\u5fc3\u3001\u8212\u5fc3\u3002\u6211\u4eec\u4e00\u76f4\u5728\u52aa\u529b\uff01
p1119
sVRemarkPYInitial
p1120
g52
sVContactFlag
p1121
I3
sVUin
p1122
I0
sVNickName
p1123
V\u987a\u4e30\u901f\u8fd0
p1124
sVAppAccountFlag
p1125
I0
sVVerifyFlag
p1126
I24
sVRemarkPYQuanPin
p1127
g52
sVHeadImgUrl
p1128
V/cgi-bin/mmwebwx-bin/webwxgeticon?seq=673719418&username=@fc733f7f16fa48a64d368bfa3c74ffb7&skey=@crypt_49509d7f_b5f4352dece0511bfe9b1d643c254ccf
p1129
sVKeyWord
p1130
Vgh_
p1131
sVProvince
p1132
V\u5e7f\u4e1c
p1133
sVPYInitial
p1134
VSFSY
p1135
sVRemarkName
p1136
g52
sVIsOwner
p1137
I0
sVSex
p1138
I0
sVStarFriend
p1139
I0
sVHideInputBarFlag
p1140
I0
sVChatRoomId
p1141
I0
sVEncryChatRoomId
p1142
g52
sVAttrStatus
p1143
I0
sVStatues
p1144
I0
stp1145
Rp1146
I1
bag34
(g931
g39
(dp1147
VUserName
p1148
V@f7ad4292b99f9be38c19edea1b1fee60
p1149
sVCity
p1150
V\u6d4e\u5357
p1151
sVSnsFlag
p1152
I0
sVDisplayName
p1153
g52
sVUniFriend
p1154
I0
sVMemberCount
p1155
I0
sVOwnerUin
p1156
I0
sVMemberList
p1157
g50
sVAlias
p1158
g52
sVPYQuanPin
p1159
Vbaigehuidi
p1160
sVSignature
p1161
V\u767d\u9e3d\u60e0\u9012\u4e3a\u5feb\u9012\u7269\u6d41\u4e1a\u52a1\u7684\u7f51\u4e0a\u4e0b\u5355\u5e73\u53f0\u3002\u4e0e\u4e2d\u90ae\u3001\u987a\u4e30\u3001\u5fb7\u90a6\u3001\u5706\u901a\u3001\u5b85\u6025\u9001\u7b49\u4e00\u7ebf\u901f\u8fd0\u4f01\u4e1a\u5f62\u6210\u5168\u56fd\u5408\u4f5c\u9635\u8425\u3002\u7528\u6237\u53ef\u5728\u7ebf\u5bf9\u6bd4\u4e0b\u5355\uff0c\u4eab\u53d7\u5e73\u53f0\u8865\u8d34\u3002\u4e0b\u5355\u540e\u5ba2\u6237\u9759\u5f85\u5feb\u9012\u5458\u63fd\u4ef6\u3002
p1162
sVRemarkPYInitial
p1163
g52
sVContactFlag
p1164
I3
sVUin
p1165
I0
sVNickName
p1166
V\u767d\u9e3d\u60e0\u9012
p1167
sVAppAccountFlag
p1168
I0
sVVerifyFlag
p1169
I24
sVRemarkPYQuanPin
p1170
g52
sVHeadImgUrl
p1171
V/cgi-bin/mmwebwx-bin/webwxgeticon?seq=673719895&username=@f7ad4292b99f9be38c19edea1b1fee60&skey=@crypt_49509d7f_b5f4352dece0511bfe9b1d643c254ccf
p1172
sVKeyWord
p1173
Vgh_
p1174
sVProvince
p1175
V\u5c71\u4e1c
p1176
sVPYInitial
p1177
VBGHD
p1178
sVRemarkName
p1179
g52
sVIsOwner
p1180
I0
sVSex
p1181
I0
sVStarFriend
p1182
I0
sVHideInputBarFlag
p1183
I0
sVChatRoomId
p1184
I0
sVEncryChatRoomId
p1185
g52
sVAttrStatus
p1186
I0
sVStatues
p1187
I0
stp1188
Rp1189
I1
batp1190
Rp1191
I1
bssS'loginInfo'
p1192
(dp1193
S'SyncKey'
p1194
(dp1195
VCount
p1196
I4
sVList
p1197
(lp1198
(dp1199
VVal
p1200
I673722834
sVKey
p1201
I1
sa(dp1202
VVal
p1203
I673722972
sVKey
p1204
I2
sa(dp1205
VVal
p1206
I673722921
sVKey
p1207
I3
sa(dp1208
VVal
p1209
I1563666675
sVKey
p1210
I1000
sassS'syncUrl'
p1211
S'https://webpush.wx2.qq.com/cgi-bin/mmwebwx-bin'
p1212
sS'skey'
p1213
V@crypt_49509d7f_b5f4352dece0511bfe9b1d643c254ccf
p1214
sS'wxuin'
p1215
V200509586
p1216
sS'synckey'
p1217
S'1_673722834|2_673722972|3_673722921|1000_1563666675'
p1218
sS'url'
p1219
Vhttps://wx2.qq.com/cgi-bin/mmwebwx-bin
p1220
sS'pass_ticket'
p1221
V4%2BS%2BLQ2iwf5aEU%2Bcyerm1zju6iDT8YqAsmKYlIAyJiA%3D
p1222
sS'wxsid'
p1223
V09yA0JX2vbVpjc5Q
p1224
sS'User'
p1225
g34
(g38
g39
(dp1226
g41
g31
sg42
g43
sg44
g43
sg45
I0
sg47
g50
sg51
g52
sg53
g52
sg77
I1
sg55
I0
sg56
I0
sg57
g43
sg58
g43
sg59
g52
sg60
g52
sg61
I0
sg62
I0
sg63
I1
sg64
g43
sg65
I0
sg68
I0
sg66
I0
sg67
I0
sg46
I0
sg69
g43
sg70
g52
sg71
I0
sg72
g73
sg74
g52
sg75
g76
sg54
I200509586
sg78
I0
sg79
I0
stp1227
Rp1228
I1
bsS'InviteStartCount'
p1229
I40
sS'fileUrl'
p1230
S'https://file.wx2.qq.com/cgi-bin/mmwebwx-bin'
p1231
sS'BaseRequest'
p1232
(dp1233
g54
g1216
sS'Skey'
p1234
g1214
sS'DeviceID'
p1235
g1222
sS'Sid'
p1236
g1224
ssS'deviceid'
p1237
S'e298027845167232'
p1238
ss.